(dp0
S'tau'
p1
F0.125
sS'|tau|'
p2
F1.0
sS'pairwise'
p3
F0.5625
sS'ranking'
p4
(dp5
I0
(dp6
g1
F-1.0
sS'gold'
p7
(lp8
(lp9
S'large'
p10
aa(lp11
S'larger'
p12
aasS'raw'
p13
(dp14
(g12
g10
tp15
F0.0
s(g10
g12
tp16
F1.0
ssg3
F0.0
sS'algo'
p17
(lp18
(lp19
g12
aa(lp20
g10
aasg2
F1.0
ssI1
(dp21
g1
F1.0
sg7
(lp22
(lp23
S'easy'
p24
aa(lp25
S'easier'
p26
aasg13
(dp27
(g26
g24
tp28
F0.0
s(g24
g26
tp29
F1.0
ssg3
F1.0
sg17
(lp30
(lp31
g24
aa(lp32
g26
aasg2
F1.0
ssI2
(dp33
g1
F1.0
sg7
(lp34
(lp35
S'close'
p36
aa(lp37
S'closer'
p38
aasg13
(dp39
(g38
g36
tp40
F0.0
s(g36
g38
tp41
F1.0
ssg3
F1.0
sg17
(lp42
(lp43
g36
aa(lp44
g38
aasg2
F1.0
ssI3
(dp45
g1
F1.0
sg7
(lp46
(lp47
S'bright'
p48
aa(lp49
S'brighter'
p50
aasg13
(dp51
(g50
g48
tp52
F0.0
s(g48
g50
tp53
F1.0
ssg3
F1.0
sg17
(lp54
(lp55
g48
aa(lp56
g50
aasg2
F1.0
ssI4
(dp57
g1
F1.0
sg7
(lp58
(lp59
S'cool'
p60
aa(lp61
S'cooler'
p62
aasg13
(dp63
(g60
g62
tp64
F1.0
s(g62
g60
tp65
F0.0
ssg3
F1.0
sg17
(lp66
(lp67
g60
aa(lp68
g62
aasg2
F1.0
ssI5
(dp69
g1
F-1.0
sg7
(lp70
(lp71
S'slow'
p72
aa(lp73
S'slower'
p74
aasg13
(dp75
(g72
g74
tp76
F1.0
s(g74
g72
tp77
F0.0
ssg3
F0.0
sg17
(lp78
(lp79
g74
aa(lp80
g72
aasg2
F1.0
ssI6
(dp81
g1
F1.0
sg7
(lp82
(lp83
S'good'
p84
aa(lp85
S'great'
p86
aasg13
(dp87
(g84
g86
tp88
F1.0
s(g86
g84
tp89
F0.0
ssg3
F1.0
sg17
(lp90
(lp91
g84
aa(lp92
g86
aasg2
F1.0
ssI7
(dp93
g1
F1.0
sg7
(lp94
(lp95
S'long'
p96
aa(lp97
S'longer'
p98
aasg13
(dp99
(g98
g96
tp100
F0.0
s(g96
g98
tp101
F1.0
ssg3
F1.0
sg17
(lp102
(lp103
g96
aa(lp104
g98
aasg2
F1.0
ssI8
(dp105
g1
F-1.0
sg7
(lp106
(lp107
S'hot'
p108
aa(lp109
S'hotter'
p110
aasg13
(dp111
(g110
g108
tp112
F0.0
s(g108
g110
tp113
F1.0
ssg3
F0.0
sg17
(lp114
(lp115
g110
aa(lp116
g108
aasg2
F1.0
ssI9
(dp117
g1
F1.0
sg7
(lp118
(lp119
S'pretty'
p120
aa(lp121
S'prettier'
p122
aasg13
(dp123
(g122
g120
tp124
F0.0
s(g120
g122
tp125
F1.0
ssg3
F1.0
sg17
(lp126
(lp127
g120
aa(lp128
g122
aasg2
F1.0
ssI10
(dp129
g1
F1.0
sg7
(lp130
(lp131
S'rich'
p132
aa(lp133
S'richer'
p134
aasg13
(dp135
(g134
g132
tp136
F0.0
s(g132
g134
tp137
F1.0
ssg3
F1.0
sg17
(lp138
(lp139
g132
aa(lp140
g134
aasg2
F1.0
ssI11
(dp141
g1
F1.0
sg7
(lp142
(lp143
S'happy'
p144
aa(lp145
S'happier'
p146
aasg13
(dp147
(g144
g146
tp148
F1.0
s(g146
g144
tp149
F0.0
ssg3
F1.0
sg17
(lp150
(lp151
g144
aa(lp152
g146
aasg2
F1.0
ssI12
(dp153
g1
F1.0
sg7
(lp154
(lp155
S'safe'
p156
aa(lp157
S'safer'
p158
aasg13
(dp159
(g156
g158
tp160
F1.0
s(g158
g156
tp161
F0.0
ssg3
F1.0
sg17
(lp162
(lp163
g156
aa(lp164
g158
aasg2
F1.0
ssI13
(dp165
g1
F-1.0
sg7
(lp166
(lp167
S'heavy'
p168
aa(lp169
S'heavier'
p170
aasg13
(dp171
(g170
g168
tp172
F0.0
s(g168
g170
tp173
F1.0
ssg3
F0.0
sg17
(lp174
(lp175
g170
aa(lp176
g168
aasg2
F1.0
ssI14
(dp177
g1
F1.0
sg7
(lp178
(lp179
S'weak'
p180
aa(lp181
S'weaker'
p182
aasg13
(dp183
(g182
g180
tp184
F0.0
s(g180
g182
tp185
F1.0
ssg3
F1.0
sg17
(lp186
(lp187
g180
aa(lp188
g182
aasg2
F1.0
ssI15
(dp189
g1
F1.0
sg7
(lp190
(lp191
S'far'
p192
aa(lp193
S'further'
p194
aasg13
(dp195
(g192
g194
tp196
F1.0
s(g194
g192
tp197
F-1.0
ssg3
F1.0
sg17
(lp198
(lp199
S'far'
p200
aa(lp201
S'further'
p202
aasg2
F1.0
ssI16
(dp203
g1
F-1.0
sg7
(lp204
(lp205
S'strange'
p206
aa(lp207
S'stranger'
p208
aasg13
(dp209
(g208
g206
tp210
F0.0
s(g206
g208
tp211
F1.0
ssg3
F0.0
sg17
(lp212
(lp213
g208
aa(lp214
g206
aasg2
F1.0
ssI17
(dp215
g1
F1.0
sg7
(lp216
(lp217
S'far'
p218
aa(lp219
S'farther'
p220
aasg13
(dp221
(g218
g220
tp222
F1.0
s(g220
g218
tp223
F-1.0
ssg3
F1.0
sg17
(lp224
(lp225
S'far'
p226
aa(lp227
S'farther'
p228
aasg2
F1.0
ssI18
(dp229
g1
F-1.0
sg7
(lp230
(lp231
S'old'
p232
aa(lp233
S'older'
p234
aasg13
(dp235
(g234
g232
tp236
F0.0
s(g232
g234
tp237
F1.0
ssg3
F0.0
sg17
(lp238
(lp239
g234
aa(lp240
g232
aasg2
F1.0
ssI19
(dp241
g1
F-1.0
sg7
(lp242
(lp243
S'simple'
p244
aa(lp245
S'simpler'
p246
aasg13
(dp247
(g246
g244
tp248
F0.0
s(g244
g246
tp249
F1.0
ssg3
F0.0
sg17
(lp250
(lp251
g246
aa(lp252
g244
aasg2
F1.0
ssI20
(dp253
g1
F1.0
sg7
(lp254
(lp255
S'few'
p256
aa(lp257
S'fewer'
p258
aasg13
(dp259
(g258
g256
tp260
F-1.0
s(g256
g258
tp261
F1.0
ssg3
F1.0
sg17
(lp262
(lp263
S'few'
p264
aa(lp265
S'fewer'
p266
aasg2
F1.0
ssI21
(dp267
g1
F1.0
sg7
(lp268
(lp269
S'low'
p270
aa(lp271
S'lower'
p272
aasg13
(dp273
(g272
g270
tp274
F0.0
s(g270
g272
tp275
F1.0
ssg3
F1.0
sg17
(lp276
(lp277
g270
aa(lp278
g272
aasg2
F1.0
ssI22
(dp279
g1
F1.0
sg7
(lp280
(lp281
S'nice'
p282
aa(lp283
S'nicer'
p284
aasg13
(dp285
(g282
g284
tp286
F1.0
s(g284
g282
tp287
F0.0
ssg3
F1.0
sg17
(lp288
(lp289
g282
aa(lp290
g284
aasg2
F1.0
ssI23
(dp291
g1
F1.0
sg7
(lp292
(lp293
S'cold'
p294
aa(lp295
S'colder'
p296
aasg13
(dp297
(g296
g294
tp298
F0.0
s(g294
g296
tp299
F1.0
ssg3
F1.0
sg17
(lp300
(lp301
g294
aa(lp302
g296
aasg2
F1.0
ssI24
(dp303
g1
F-1.0
sg7
(lp304
(lp305
S'rare'
p306
aa(lp307
S'rarer'
p308
aasg13
(dp309
(g308
g306
tp310
F0.0
s(g306
g308
tp311
F1.0
ssg3
F0.0
sg17
(lp312
(lp313
g308
aa(lp314
g306
aasg2
F1.0
ssI25
(dp315
g1
F-1.0
sg7
(lp316
(lp317
S'much'
p318
aa(lp319
S'more'
p320
aasg13
(dp321
(g318
g320
tp322
F1.0
s(g320
g318
tp323
F0.0
ssg3
F0.0
sg17
(lp324
(lp325
g320
aa(lp326
g318
aasg2
F1.0
ssI26
(dp327
g1
F1.0
sg7
(lp328
(lp329
S'fast'
p330
aa(lp331
S'faster'
p332
aasg13
(dp333
(g332
g330
tp334
F0.0
s(g330
g332
tp335
F1.0
ssg3
F1.0
sg17
(lp336
(lp337
g330
aa(lp338
g332
aasg2
F1.0
ssI27
(dp339
g1
F1.0
sg7
(lp340
(lp341
S'deep'
p342
aa(lp343
S'deeper'
p344
aasg13
(dp345
(g344
g342
tp346
F0.0
s(g342
g344
tp347
F1.0
ssg3
F1.0
sg17
(lp348
(lp349
g342
aa(lp350
g344
aasg2
F1.0
ssI28
(dp351
g1
F-1.0
sg7
(lp352
(lp353
S'little'
p354
aa(lp355
S'less'
p356
aasg13
(dp357
(g354
g356
tp358
F1.0
s(g356
g354
tp359
F0.0
ssg3
F0.0
sg17
(lp360
(lp361
g356
aa(lp362
g354
aasg2
F1.0
ssI29
(dp363
g1
F1.0
sg7
(lp364
(lp365
S'tough'
p366
aa(lp367
S'tougher'
p368
aasg13
(dp369
(g368
g366
tp370
F-1.0
s(g366
g368
tp371
F1.0
ssg3
F1.0
sg17
(lp372
(lp373
S'tough'
p374
aa(lp375
S'tougher'
p376
aasg2
F1.0
ssI30
(dp377
g1
F1.0
sg7
(lp378
(lp379
S'quiet'
p380
aa(lp381
S'quieter'
p382
aasg13
(dp383
(g382
g380
tp384
F0.0
s(g380
g382
tp385
F1.0
ssg3
F1.0
sg17
(lp386
(lp387
g380
aa(lp388
g382
aasg2
F1.0
ssI31
(dp389
g1
F-1.0
sg7
(lp390
(lp391
S'healthy'
p392
aa(lp393
S'healthier'
p394
aasg13
(dp395
(g394
g392
tp396
F0.0
s(g392
g394
tp397
F1.0
ssg3
F0.0
sg17
(lp398
(lp399
g394
aa(lp400
g392
aasg2
F1.0
ssI32
(dp401
g1
F1.0
sg7
(lp402
(lp403
S'wide'
p404
aa(lp405
S'wider'
p406
aasg13
(dp407
(g406
g404
tp408
F0.0
s(g404
g406
tp409
F1.0
ssg3
F1.0
sg17
(lp410
(lp411
g404
aa(lp412
g406
aasg2
F1.0
ssI33
(dp413
g1
F-1.0
sg7
(lp414
(lp415
S'busy'
p416
aa(lp417
S'busier'
p418
aasg13
(dp419
(g416
g418
tp420
F1.0
s(g418
g416
tp421
F0.0
ssg3
F0.0
sg17
(lp422
(lp423
g418
aa(lp424
g416
aasg2
F1.0
ssI34
(dp425
g1
F1.0
sg7
(lp426
(lp427
S'short'
p428
aa(lp429
S'shorter'
p430
aasg13
(dp431
(g428
g430
tp432
F1.0
s(g430
g428
tp433
F0.0
ssg3
F1.0
sg17
(lp434
(lp435
g428
aa(lp436
g430
aasg2
F1.0
ssI35
(dp437
g1
F-1.0
sg7
(lp438
(lp439
S'hard'
p440
aa(lp441
S'harder'
p442
aasg13
(dp443
(g440
g442
tp444
F1.0
s(g442
g440
tp445
F0.0
ssg3
F0.0
sg17
(lp446
(lp447
g442
aa(lp448
g440
aasg2
F1.0
ssI36
(dp449
g1
F1.0
sg7
(lp450
(lp451
S'high'
p452
aa(lp453
S'higher'
p454
aasg13
(dp455
(g454
g452
tp456
F-1.0
s(g452
g454
tp457
F1.0
ssg3
F1.0
sg17
(lp458
(lp459
S'high'
p460
aa(lp461
S'higher'
p462
aasg2
F1.0
ssI37
(dp463
g1
F-1.0
sg7
(lp464
(lp465
S'bad'
p466
aa(lp467
S'worse'
p468
aasg13
(dp469
(g466
g468
tp470
F1.0
s(g468
g466
tp471
F0.0
ssg3
F0.0
sg17
(lp472
(lp473
g468
aa(lp474
g466
aasg2
F1.0
ssI38
(dp475
g1
F1.0
sg7
(lp476
(lp477
S'thin'
p478
aa(lp479
S'thinner'
p480
aasg13
(dp481
(g480
g478
tp482
F0.0
s(g478
g480
tp483
F1.0
ssg3
F1.0
sg17
(lp484
(lp485
g478
aa(lp486
g480
aasg2
F1.0
ssI39
(dp487
g1
F-1.0
sg7
(lp488
(lp489
S'quick'
p490
aa(lp491
S'quicker'
p492
aasg13
(dp493
(g492
g490
tp494
F0.0
s(g490
g492
tp495
F1.0
ssg3
F0.0
sg17
(lp496
(lp497
g492
aa(lp498
g490
aasg2
F1.0
ssI40
(dp499
g1
F-1.0
sg7
(lp500
(lp501
S'tall'
p502
aa(lp503
S'taller'
p504
aasg13
(dp505
(g502
g504
tp506
F1.0
s(g504
g502
tp507
F0.0
ssg3
F0.0
sg17
(lp508
(lp509
g504
aa(lp510
g502
aasg2
F1.0
ssI41
(dp511
g1
F-1.0
sg7
(lp512
(lp513
S'true'
p514
aa(lp515
S'truer'
p516
aasg13
(dp517
(g516
g514
tp518
F0.0
s(g514
g516
tp519
F1.0
ssg3
F0.0
sg17
(lp520
(lp521
g516
aa(lp522
g514
aasg2
F1.0
ssI42
(dp523
g1
F-1.0
sg7
(lp524
(lp525
S'big'
p526
aa(lp527
S'bigger'
p528
aasg13
(dp529
(g528
g526
tp530
F0.0
s(g526
g528
tp531
F1.0
ssg3
F0.0
sg17
(lp532
(lp533
g528
aa(lp534
g526
aasg2
F1.0
ssI43
(dp535
g1
F-1.0
sg7
(lp536
(lp537
S'clear'
p538
aa(lp539
S'clearer'
p540
aasg13
(dp541
(g538
g540
tp542
F1.0
s(g540
g538
tp543
F0.0
ssg3
F0.0
sg17
(lp544
(lp545
g540
aa(lp546
g538
aasg2
F1.0
ssI44
(dp547
g1
F1.0
sg7
(lp548
(lp549
S'young'
p550
aa(lp551
S'younger'
p552
aasg13
(dp553
(g552
g550
tp554
F0.0
s(g550
g552
tp555
F1.0
ssg3
F1.0
sg17
(lp556
(lp557
g550
aa(lp558
g552
aasg2
F1.0
ssI45
(dp559
g1
F1.0
sg7
(lp560
(lp561
S'smart'
p562
aa(lp563
S'smarter'
p564
aasg13
(dp565
(g562
g564
tp566
F1.0
s(g564
g562
tp567
F0.0
ssg3
F1.0
sg17
(lp568
(lp569
g562
aa(lp570
g564
aasg2
F1.0
ssI46
(dp571
g1
F-1.0
sg7
(lp572
(lp573
S'warm'
p574
aa(lp575
S'warmer'
p576
aasg13
(dp577
(g574
g576
tp578
F1.0
s(g576
g574
tp579
F0.0
ssg3
F0.0
sg17
(lp580
(lp581
g576
aa(lp582
g574
aasg2
F1.0
ssI47
(dp583
g1
F-1.0
sg7
(lp584
(lp585
S'poor'
p586
aa(lp587
S'poorer'
p588
aasg13
(dp589
(g588
g586
tp590
F0.0
s(g586
g588
tp591
F1.0
ssg3
F0.0
sg17
(lp592
(lp593
g588
aa(lp594
g586
aasg2
F1.0
ssI48
(dp595
g1
F-1.0
sg7
(lp596
(lp597
S'great'
p598
aa(lp599
S'greater'
p600
aasg13
(dp601
(g598
g600
tp602
F1.0
s(g600
g598
tp603
F0.0
ssg3
F0.0
sg17
(lp604
(lp605
g600
aa(lp606
g598
aasg2
F1.0
ssI49
(dp607
g1
F-1.0
sg7
(lp608
(lp609
S'strong'
p610
aa(lp611
S'stronger'
p612
aasg13
(dp613
(g610
g612
tp614
F1.0
s(g612
g610
tp615
F0.0
ssg3
F0.0
sg17
(lp616
(lp617
g612
aa(lp618
g610
aasg2
F1.0
ssI50
(dp619
g1
F-1.0
sg7
(lp620
(lp621
S'cheap'
p622
aa(lp623
S'cheaper'
p624
aasg13
(dp625
(g624
g622
tp626
F0.0
s(g622
g624
tp627
F1.0
ssg3
F0.0
sg17
(lp628
(lp629
g624
aa(lp630
g622
aasg2
F1.0
ssI51
(dp631
g1
F1.0
sg7
(lp632
(lp633
S'good'
p634
aa(lp635
S'better'
p636
aasg13
(dp637
(g634
g636
tp638
F1.0
s(g636
g634
tp639
F-1.0
ssg3
F1.0
sg17
(lp640
(lp641
S'good'
p642
aa(lp643
S'better'
p644
aasg2
F1.0
ssI52
(dp645
g1
F1.0
sg7
(lp646
(lp647
S'small'
p648
aa(lp649
S'smaller'
p650
aasg13
(dp651
(g650
g648
tp652
F-1.0
s(g648
g650
tp653
F1.0
ssg3
F1.0
sg17
(lp654
(lp655
S'small'
p656
aa(lp657
S'smaller'
p658
aasg2
F1.0
ssI53
(dp659
g1
F1.0
sg7
(lp660
(lp661
S'loud'
p662
aa(lp663
S'louder'
p664
aasg13
(dp665
(g664
g662
tp666
F0.0
s(g662
g664
tp667
F1.0
ssg3
F1.0
sg17
(lp668
(lp669
g662
aa(lp670
g664
aasg2
F1.0
ssI54
(dp671
g1
F-1.0
sg7
(lp672
(lp673
S'great'
p674
aa(lp675
S'greatest'
p676
aasg13
(dp677
(g674
g676
tp678
F1.0
s(g676
g674
tp679
F0.0
ssg3
F0.0
sg17
(lp680
(lp681
g676
aa(lp682
g674
aasg2
F1.0
ssI55
(dp683
g1
F1.0
sg7
(lp684
(lp685
S'much'
p686
aa(lp687
S'most'
p688
aasg13
(dp689
(g686
g688
tp690
F1.0
s(g688
g686
tp691
F0.0
ssg3
F1.0
sg17
(lp692
(lp693
g686
aa(lp694
g688
aasg2
F1.0
ssI56
(dp695
g1
F-1.0
sg7
(lp696
(lp697
S'good'
p698
aa(lp699
S'excellent'
p700
aasg13
(dp701
(g698
g700
tp702
F1.0
s(g700
g698
tp703
F0.0
ssg3
F0.0
sg17
(lp704
(lp705
g700
aa(lp706
g698
aasg2
F1.0
ssI57
(dp707
g1
F-1.0
sg7
(lp708
(lp709
S'many'
p710
aa(lp711
S'most'
p712
aasg13
(dp713
(g710
g712
tp714
F1.0
s(g712
g710
tp715
F0.0
ssg3
F0.0
sg17
(lp716
(lp717
g712
aa(lp718
g710
aasg2
F1.0
ssI58
(dp719
g1
F1.0
sg7
(lp720
(lp721
S'bad'
p722
aa(lp723
S'worst'
p724
aasg13
(dp725
(g724
g722
tp726
F-1.0
s(g722
g724
tp727
F1.0
ssg3
F1.0
sg17
(lp728
(lp729
S'bad'
p730
aa(lp731
S'worst'
p732
aasg2
F1.0
ssI59
(dp733
g1
F1.0
sg7
(lp734
(lp735
S'good'
p736
aa(lp737
S'best'
p738
aasg13
(dp739
(g738
g736
tp740
F-1.0
s(g736
g738
tp741
F1.0
ssg3
F1.0
sg17
(lp742
(lp743
S'good'
p744
aa(lp745
S'best'
p746
aasg2
F1.0
ssI60
(dp747
g1
F1.0
sg7
(lp748
(lp749
S'fast'
p750
aa(lp751
S'fastest'
p752
aasg13
(dp753
(g752
g750
tp754
F0.0
s(g750
g752
tp755
F1.0
ssg3
F1.0
sg17
(lp756
(lp757
g750
aa(lp758
g752
aasg2
F1.0
ssI61
(dp759
g1
F-1.0
sg7
(lp760
(lp761
S'high'
p762
aa(lp763
S'highest'
p764
aasg13
(dp765
(g764
g762
tp766
F0.0
s(g762
g764
tp767
F1.0
ssg3
F0.0
sg17
(lp768
(lp769
g764
aa(lp770
g762
aasg2
F1.0
ssI62
(dp771
g1
F1.0
sg7
(lp772
(lp773
S'strong'
p774
aa(lp775
S'strongest'
p776
aasg13
(dp777
(g774
g776
tp778
F1.0
s(g776
g774
tp779
F0.0
ssg3
F1.0
sg17
(lp780
(lp781
g774
aa(lp782
g776
aasg2
F1.0
ssI63
(dp783
g1
F1.0
sg7
(lp784
(lp785
S'younger'
p786
aa(lp787
S'youngest'
p788
aasg13
(dp789
(g786
g788
tp790
F1.0
s(g788
g786
tp791
F-1.0
ssg3
F1.0
sg17
(lp792
(lp793
S'younger'
p794
aa(lp795
S'youngest'
p796
aasg2
F1.0
sss.