(dp0
S'tau'
p1
F0.03361344537815126
sS'|tau|'
p2
F0.2689075630252101
sS'pairwise'
p3
F0.15126050420168066
sS'ranking'
p4
(dp5
I0
(dp6
g1
F-1.0
sS'gold'
p7
(lp8
(lp9
S'large'
p10
aa(lp11
S'larger'
p12
aasS'raw'
p13
(dp14
(g12
g10
tp15
F0.0
s(g10
g12
tp16
F1.0
ssg3
F0.0
sS'algo'
p17
(lp18
(lp19
g12
aa(lp20
g10
aasg2
F1.0
ssI1
(dp21
g1
F0.0
sg7
(lp22
(lp23
S'mean'
p24
aa(lp25
S'meaner'
p26
aasg13
(dp27
(g24
g26
tp28
F0.0
s(g26
g24
tp29
F0.0
ssg3
F0.0
sg17
(lp30
(lp31
g24
ag26
aasg2
F0.0
ssI2
(dp32
g1
F1.0
sg7
(lp33
(lp34
S'easy'
p35
aa(lp36
S'easier'
p37
aasg13
(dp38
(g37
g35
tp39
F0.0
s(g35
g37
tp40
F1.0
ssg3
F1.0
sg17
(lp41
(lp42
g35
aa(lp43
g37
aasg2
F1.0
ssI3
(dp44
g1
F0.0
sg7
(lp45
(lp46
S'pure'
p47
aa(lp48
S'purer'
p49
aasg13
(dp50
(g47
g49
tp51
F0.0
s(g49
g47
tp52
F0.0
ssg3
F0.0
sg17
(lp53
(lp54
g47
ag49
aasg2
F0.0
ssI4
(dp55
g1
F0.0
sg7
(lp56
(lp57
S'bold'
p58
aa(lp59
S'bolder'
p60
aasg13
(dp61
(g58
g60
tp62
F0.0
s(g60
g58
tp63
F0.0
ssg3
F0.0
sg17
(lp64
(lp65
g58
ag60
aasg2
F0.0
ssI5
(dp66
g1
F0.0
sg7
(lp67
(lp68
S'stark'
p69
aa(lp70
S'starker'
p71
aasg13
(dp72
(g69
g71
tp73
F0.0
s(g71
g69
tp74
F0.0
ssg3
F0.0
sg17
(lp75
(lp76
g69
ag71
aasg2
F0.0
ssI6
(dp77
g1
F1.0
sg7
(lp78
(lp79
S'close'
p80
aa(lp81
S'closer'
p82
aasg13
(dp83
(g82
g80
tp84
F0.0
s(g80
g82
tp85
F1.0
ssg3
F1.0
sg17
(lp86
(lp87
g80
aa(lp88
g82
aasg2
F1.0
ssI7
(dp89
g1
F1.0
sg7
(lp90
(lp91
S'bright'
p92
aa(lp93
S'brighter'
p94
aasg13
(dp95
(g94
g92
tp96
F0.0
s(g92
g94
tp97
F1.0
ssg3
F1.0
sg17
(lp98
(lp99
g92
aa(lp100
g94
aasg2
F1.0
ssI8
(dp101
g1
F0.0
sg7
(lp102
(lp103
S'smooth'
p104
aa(lp105
S'smoother'
p106
aasg13
(dp107
(g106
g104
tp108
F0.0
s(g104
g106
tp109
F0.0
ssg3
F0.0
sg17
(lp110
(lp111
g104
ag106
aasg2
F0.0
ssI9
(dp112
g1
F0.0
sg7
(lp113
(lp114
S'many'
p115
aa(lp116
S'more'
p117
aasg13
(dp118
(g117
g115
tp119
F0.0
s(g115
g117
tp120
F0.0
ssg3
F0.0
sg17
(lp121
(lp122
g115
ag117
aasg2
F0.0
ssI10
(dp123
g1
F1.0
sg7
(lp124
(lp125
S'cool'
p126
aa(lp127
S'cooler'
p128
aasg13
(dp129
(g126
g128
tp130
F1.0
s(g128
g126
tp131
F0.0
ssg3
F1.0
sg17
(lp132
(lp133
g126
aa(lp134
g128
aasg2
F1.0
ssI11
(dp135
g1
F-1.0
sg7
(lp136
(lp137
S'slow'
p138
aa(lp139
S'slower'
p140
aasg13
(dp141
(g138
g140
tp142
F1.0
s(g140
g138
tp143
F0.0
ssg3
F0.0
sg17
(lp144
(lp145
g140
aa(lp146
g138
aasg2
F1.0
ssI12
(dp147
g1
F1.0
sg7
(lp148
(lp149
S'good'
p150
aa(lp151
S'great'
p152
aasg13
(dp153
(g150
g152
tp154
F1.0
s(g152
g150
tp155
F0.0
ssg3
F1.0
sg17
(lp156
(lp157
g150
aa(lp158
g152
aasg2
F1.0
ssI13
(dp159
g1
F1.0
sg7
(lp160
(lp161
S'long'
p162
aa(lp163
S'longer'
p164
aasg13
(dp165
(g164
g162
tp166
F0.0
s(g162
g164
tp167
F1.0
ssg3
F1.0
sg17
(lp168
(lp169
g162
aa(lp170
g164
aasg2
F1.0
ssI14
(dp171
g1
F0.0
sg7
(lp172
(lp173
S'light'
p174
aa(lp175
S'lighter'
p176
aasg13
(dp177
(g176
g174
tp178
F0.0
s(g174
g176
tp179
F0.0
ssg3
F0.0
sg17
(lp180
(lp181
g174
ag176
aasg2
F0.0
ssI15
(dp182
g1
F-1.0
sg7
(lp183
(lp184
S'hot'
p185
aa(lp186
S'hotter'
p187
aasg13
(dp188
(g187
g185
tp189
F0.0
s(g185
g187
tp190
F1.0
ssg3
F0.0
sg17
(lp191
(lp192
g187
aa(lp193
g185
aasg2
F1.0
ssI16
(dp194
g1
F0.0
sg7
(lp195
(lp196
S'dre'
p197
aa(lp198
S'drier'
p199
aasg13
(dp200
(g199
g197
tp201
F0.0
s(g197
g199
tp202
F0.0
ssg3
F0.0
sg17
(lp203
(lp204
g197
ag199
aasg2
F0.0
ssI17
(dp205
g1
F0.0
sg7
(lp206
(lp207
S'some'
p208
aa(lp209
S'more'
p210
aasg13
(dp211
(g210
g208
tp212
F0.0
s(g208
g210
tp213
F0.0
ssg3
F0.0
sg17
(lp214
(lp215
g208
ag210
aasg2
F0.0
ssI18
(dp216
g1
F0.0
sg7
(lp217
(lp218
S'less'
p219
aa(lp220
S'lesser'
p221
aasg13
(dp222
(g219
g221
tp223
F0.0
s(g221
g219
tp224
F0.0
ssg3
F0.0
sg17
(lp225
(lp226
g219
ag221
aasg2
F0.0
ssI19
(dp227
g1
F0.0
sg7
(lp228
(lp229
S'holy'
p230
aa(lp231
S'holier'
p232
aasg13
(dp233
(g232
g230
tp234
F0.0
s(g230
g232
tp235
F0.0
ssg3
F0.0
sg17
(lp236
(lp237
g230
ag232
aasg2
F0.0
ssI20
(dp238
g1
F0.0
sg7
(lp239
(lp240
S'stupid'
p241
aa(lp242
S'stupider'
p243
aasg13
(dp244
(g241
g243
tp245
F0.0
s(g243
g241
tp246
F0.0
ssg3
F0.0
sg17
(lp247
(lp248
g241
ag243
aasg2
F0.0
ssI21
(dp249
g1
F1.0
sg7
(lp250
(lp251
S'pretty'
p252
aa(lp253
S'prettier'
p254
aasg13
(dp255
(g254
g252
tp256
F0.0
s(g252
g254
tp257
F1.0
ssg3
F1.0
sg17
(lp258
(lp259
g252
aa(lp260
g254
aasg2
F1.0
ssI22
(dp261
g1
F1.0
sg7
(lp262
(lp263
S'rich'
p264
aa(lp265
S'richer'
p266
aasg13
(dp267
(g266
g264
tp268
F0.0
s(g264
g266
tp269
F1.0
ssg3
F1.0
sg17
(lp270
(lp271
g264
aa(lp272
g266
aasg2
F1.0
ssI23
(dp273
g1
F1.0
sg7
(lp274
(lp275
S'happy'
p276
aa(lp277
S'happier'
p278
aasg13
(dp279
(g276
g278
tp280
F1.0
s(g278
g276
tp281
F0.0
ssg3
F1.0
sg17
(lp282
(lp283
g276
aa(lp284
g278
aasg2
F1.0
ssI24
(dp285
g1
F0.0
sg7
(lp286
(lp287
S'stupide'
p288
aa(lp289
S'stupider'
p290
aasg13
(dp291
(g290
g288
tp292
F0.0
s(g288
g290
tp293
F0.0
ssg3
F0.0
sg17
(lp294
(lp295
g288
ag290
aasg2
F0.0
ssI25
(dp296
g1
F0.0
sg7
(lp297
(lp298
S'narrow'
p299
aa(lp300
S'narrower'
p301
aasg13
(dp302
(g299
g301
tp303
F0.0
s(g301
g299
tp304
F0.0
ssg3
F0.0
sg17
(lp305
(lp306
g299
ag301
aasg2
F0.0
ssI26
(dp307
g1
F1.0
sg7
(lp308
(lp309
S'safe'
p310
aa(lp311
S'safer'
p312
aasg13
(dp313
(g310
g312
tp314
F1.0
s(g312
g310
tp315
F0.0
ssg3
F1.0
sg17
(lp316
(lp317
g310
aa(lp318
g312
aasg2
F1.0
ssI27
(dp319
g1
F0.0
sg7
(lp320
(lp321
S'sick'
p322
aa(lp323
S'sicker'
p324
aasg13
(dp325
(g324
g322
tp326
F0.0
s(g322
g324
tp327
F0.0
ssg3
F0.0
sg17
(lp328
(lp329
g322
ag324
aasg2
F0.0
ssI28
(dp330
g1
F0.0
sg7
(lp331
(lp332
S'grave'
p333
aa(lp334
S'graver'
p335
aasg13
(dp336
(g335
g333
tp337
F0.0
s(g333
g335
tp338
F0.0
ssg3
F0.0
sg17
(lp339
(lp340
g333
ag335
aasg2
F0.0
ssI29
(dp341
g1
F0.0
sg7
(lp342
(lp343
S'lovely'
p344
aa(lp345
S'lovelier'
p346
aasg13
(dp347
(g344
g346
tp348
F0.0
s(g346
g344
tp349
F0.0
ssg3
F0.0
sg17
(lp350
(lp351
g344
ag346
aasg2
F0.0
ssI30
(dp352
g1
F0.0
sg7
(lp353
(lp354
S'subtle'
p355
aa(lp356
S'subtler'
p357
aasg13
(dp358
(g357
g355
tp359
F0.0
s(g355
g357
tp360
F0.0
ssg3
F0.0
sg17
(lp361
(lp362
g355
ag357
aasg2
F0.0
ssI31
(dp363
g1
F0.0
sg7
(lp364
(lp365
S'east'
p366
aa(lp367
S'easier'
p368
aasg13
(dp369
(g368
g366
tp370
F0.0
s(g366
g368
tp371
F0.0
ssg3
F0.0
sg17
(lp372
(lp373
g366
ag368
aasg2
F0.0
ssI32
(dp374
g1
F-1.0
sg7
(lp375
(lp376
S'heavy'
p377
aa(lp378
S'heavier'
p379
aasg13
(dp380
(g379
g377
tp381
F0.0
s(g377
g379
tp382
F1.0
ssg3
F0.0
sg17
(lp383
(lp384
g379
aa(lp385
g377
aasg2
F1.0
ssI33
(dp386
g1
F0.0
sg7
(lp387
(lp388
S'sweet'
p389
aa(lp390
S'sweeter'
p391
aasg13
(dp392
(g391
g389
tp393
F0.0
s(g389
g391
tp394
F0.0
ssg3
F0.0
sg17
(lp395
(lp396
g389
ag391
aasg2
F0.0
ssI34
(dp397
g1
F1.0
sg7
(lp398
(lp399
S'weak'
p400
aa(lp401
S'weaker'
p402
aasg13
(dp403
(g402
g400
tp404
F0.0
s(g400
g402
tp405
F1.0
ssg3
F1.0
sg17
(lp406
(lp407
g400
aa(lp408
g402
aasg2
F1.0
ssI35
(dp409
g1
F1.0
sg7
(lp410
(lp411
S'far'
p412
aa(lp413
S'further'
p414
aasg13
(dp415
(g412
g414
tp416
F1.0
s(g414
g412
tp417
F-1.0
ssg3
F1.0
sg17
(lp418
(lp419
S'far'
p420
aa(lp421
S'further'
p422
aasg2
F1.0
ssI36
(dp423
g1
F-1.0
sg7
(lp424
(lp425
S'strange'
p426
aa(lp427
S'stranger'
p428
aasg13
(dp429
(g428
g426
tp430
F0.0
s(g426
g428
tp431
F1.0
ssg3
F0.0
sg17
(lp432
(lp433
g428
aa(lp434
g426
aasg2
F1.0
ssI37
(dp435
g1
F1.0
sg7
(lp436
(lp437
S'far'
p438
aa(lp439
S'farther'
p440
aasg13
(dp441
(g438
g440
tp442
F1.0
s(g440
g438
tp443
F-1.0
ssg3
F1.0
sg17
(lp444
(lp445
S'far'
p446
aa(lp447
S'farther'
p448
aasg2
F1.0
ssI38
(dp449
g1
F0.0
sg7
(lp450
(lp451
S'lucky'
p452
aa(lp453
S'luckier'
p454
aasg13
(dp455
(g454
g452
tp456
F0.0
s(g452
g454
tp457
F0.0
ssg3
F0.0
sg17
(lp458
(lp459
g452
ag454
aasg2
F0.0
ssI39
(dp460
g1
F0.0
sg7
(lp461
(lp462
S'new'
p463
aa(lp464
S'newer'
p465
aasg13
(dp466
(g465
g463
tp467
F0.0
s(g463
g465
tp468
F0.0
ssg3
F0.0
sg17
(lp469
(lp470
g463
ag465
aasg2
F0.0
ssI40
(dp471
g1
F-1.0
sg7
(lp472
(lp473
S'old'
p474
aa(lp475
S'older'
p476
aasg13
(dp477
(g476
g474
tp478
F0.0
s(g474
g476
tp479
F1.0
ssg3
F0.0
sg17
(lp480
(lp481
g476
aa(lp482
g474
aasg2
F1.0
ssI41
(dp483
g1
F-1.0
sg7
(lp484
(lp485
S'simple'
p486
aa(lp487
S'simpler'
p488
aasg13
(dp489
(g488
g486
tp490
F0.0
s(g486
g488
tp491
F1.0
ssg3
F0.0
sg17
(lp492
(lp493
g488
aa(lp494
g486
aasg2
F1.0
ssI42
(dp495
g1
F0.0
sg7
(lp496
(lp497
S'costly'
p498
aa(lp499
S'costlier'
p500
aasg13
(dp501
(g500
g498
tp502
F0.0
s(g498
g500
tp503
F0.0
ssg3
F0.0
sg17
(lp504
(lp505
g498
ag500
aasg2
F0.0
ssI43
(dp506
g1
F0.0
sg7
(lp507
(lp508
S'scarce'
p509
aa(lp510
S'scarcer'
p511
aasg13
(dp512
(g511
g509
tp513
F0.0
s(g509
g511
tp514
F0.0
ssg3
F0.0
sg17
(lp515
(lp516
g509
ag511
aasg2
F0.0
ssI44
(dp517
g1
F1.0
sg7
(lp518
(lp519
S'few'
p520
aa(lp521
S'fewer'
p522
aasg13
(dp523
(g522
g520
tp524
F-1.0
s(g520
g522
tp525
F1.0
ssg3
F1.0
sg17
(lp526
(lp527
S'few'
p528
aa(lp529
S'fewer'
p530
aasg2
F1.0
ssI45
(dp531
g1
F0.0
sg7
(lp532
(lp533
S'up'
p534
aa(lp535
S'upper'
p536
aasg13
(dp537
(g534
g536
tp538
F0.0
s(g536
g534
tp539
F0.0
ssg3
F0.0
sg17
(lp540
(lp541
g534
ag536
aasg2
F0.0
ssI46
(dp542
g1
F0.0
sg7
(lp543
(lp544
S'dirty'
p545
aa(lp546
S'dirtier'
p547
aasg13
(dp548
(g547
g545
tp549
F0.0
s(g545
g547
tp550
F0.0
ssg3
F0.0
sg17
(lp551
(lp552
g545
ag547
aasg2
F0.0
ssI47
(dp553
g1
F1.0
sg7
(lp554
(lp555
S'low'
p556
aa(lp557
S'lower'
p558
aasg13
(dp559
(g558
g556
tp560
F0.0
s(g556
g558
tp561
F1.0
ssg3
F1.0
sg17
(lp562
(lp563
g556
aa(lp564
g558
aasg2
F1.0
ssI48
(dp565
g1
F1.0
sg7
(lp566
(lp567
S'nice'
p568
aa(lp569
S'nicer'
p570
aasg13
(dp571
(g568
g570
tp572
F1.0
s(g570
g568
tp573
F0.0
ssg3
F1.0
sg17
(lp574
(lp575
g568
aa(lp576
g570
aasg2
F1.0
ssI49
(dp577
g1
F0.0
sg7
(lp578
(lp579
S'sure'
p580
aa(lp581
S'surer'
p582
aasg13
(dp583
(g580
g582
tp584
F0.0
s(g582
g580
tp585
F0.0
ssg3
F0.0
sg17
(lp586
(lp587
g580
ag582
aasg2
F0.0
ssI50
(dp588
g1
F1.0
sg7
(lp589
(lp590
S'cold'
p591
aa(lp592
S'colder'
p593
aasg13
(dp594
(g593
g591
tp595
F0.0
s(g591
g593
tp596
F1.0
ssg3
F1.0
sg17
(lp597
(lp598
g591
aa(lp599
g593
aasg2
F1.0
ssI51
(dp600
g1
F-1.0
sg7
(lp601
(lp602
S'rare'
p603
aa(lp604
S'rarer'
p605
aasg13
(dp606
(g605
g603
tp607
F0.0
s(g603
g605
tp608
F1.0
ssg3
F0.0
sg17
(lp609
(lp610
g605
aa(lp611
g603
aasg2
F1.0
ssI52
(dp612
g1
F0.0
sg7
(lp613
(lp614
S'brave'
p615
aa(lp616
S'braver'
p617
aasg13
(dp618
(g617
g615
tp619
F0.0
s(g615
g617
tp620
F0.0
ssg3
F0.0
sg17
(lp621
(lp622
g615
ag617
aasg2
F0.0
ssI53
(dp623
g1
F0.0
sg7
(lp624
(lp625
S'proud'
p626
aa(lp627
S'prouder'
p628
aasg13
(dp629
(g626
g628
tp630
F0.0
s(g628
g626
tp631
F0.0
ssg3
F0.0
sg17
(lp632
(lp633
g626
ag628
aasg2
F0.0
ssI54
(dp634
g1
F0.0
sg7
(lp635
(lp636
S'clean'
p637
aa(lp638
S'cleaner'
p639
aasg13
(dp640
(g637
g639
tp641
F0.0
s(g639
g637
tp642
F0.0
ssg3
F0.0
sg17
(lp643
(lp644
g637
ag639
aasg2
F0.0
ssI55
(dp645
g1
F-1.0
sg7
(lp646
(lp647
S'much'
p648
aa(lp649
S'more'
p650
aasg13
(dp651
(g648
g650
tp652
F1.0
s(g650
g648
tp653
F0.0
ssg3
F0.0
sg17
(lp654
(lp655
g650
aa(lp656
g648
aasg2
F1.0
ssI56
(dp657
g1
F0.0
sg7
(lp658
(lp659
S'noble'
p660
aa(lp661
S'nobler'
p662
aasg13
(dp663
(g662
g660
tp664
F0.0
s(g660
g662
tp665
F0.0
ssg3
F0.0
sg17
(lp666
(lp667
g660
ag662
aasg2
F0.0
ssI57
(dp668
g1
F1.0
sg7
(lp669
(lp670
S'fast'
p671
aa(lp672
S'faster'
p673
aasg13
(dp674
(g673
g671
tp675
F0.0
s(g671
g673
tp676
F1.0
ssg3
F1.0
sg17
(lp677
(lp678
g671
aa(lp679
g673
aasg2
F1.0
ssI58
(dp680
g1
F1.0
sg7
(lp681
(lp682
S'deep'
p683
aa(lp684
S'deeper'
p685
aasg13
(dp686
(g685
g683
tp687
F0.0
s(g683
g685
tp688
F1.0
ssg3
F1.0
sg17
(lp689
(lp690
g683
aa(lp691
g685
aasg2
F1.0
ssI59
(dp692
g1
F0.0
sg7
(lp693
(lp694
S'moist'
p695
aa(lp696
S'moister'
p697
aasg13
(dp698
(g697
g695
tp699
F0.0
s(g695
g697
tp700
F0.0
ssg3
F0.0
sg17
(lp701
(lp702
g695
ag697
aasg2
F0.0
ssI60
(dp703
g1
F0.0
sg7
(lp704
(lp705
S'weird'
p706
aa(lp707
S'weirder'
p708
aasg13
(dp709
(g706
g708
tp710
F0.0
s(g708
g706
tp711
F0.0
ssg3
F0.0
sg17
(lp712
(lp713
g706
ag708
aasg2
F0.0
ssI61
(dp714
g1
F0.0
sg7
(lp715
(lp716
S'wise'
p717
aa(lp718
S'wiser'
p719
aasg13
(dp720
(g719
g717
tp721
F0.0
s(g717
g719
tp722
F0.0
ssg3
F0.0
sg17
(lp723
(lp724
g717
ag719
aasg2
F0.0
ssI62
(dp725
g1
F0.0
sg7
(lp726
(lp727
S'sound'
p728
aa(lp729
S'sounder'
p730
aasg13
(dp731
(g730
g728
tp732
F0.0
s(g728
g730
tp733
F0.0
ssg3
F0.0
sg17
(lp734
(lp735
g728
ag730
aasg2
F0.0
ssI63
(dp736
g1
F0.0
sg7
(lp737
(lp738
S'soft'
p739
aa(lp740
S'softer'
p741
aasg13
(dp742
(g741
g739
tp743
F0.0
s(g739
g741
tp744
F0.0
ssg3
F0.0
sg17
(lp745
(lp746
g739
ag741
aasg2
F0.0
ssI64
(dp747
g1
F0.0
sg7
(lp748
(lp749
S'mighty'
p750
aa(lp751
S'mightier'
p752
aasg13
(dp753
(g752
g750
tp754
F0.0
s(g750
g752
tp755
F0.0
ssg3
F0.0
sg17
(lp756
(lp757
g750
ag752
aasg2
F0.0
ssI65
(dp758
g1
F-1.0
sg7
(lp759
(lp760
S'little'
p761
aa(lp762
S'less'
p763
aasg13
(dp764
(g761
g763
tp765
F1.0
s(g763
g761
tp766
F0.0
ssg3
F0.0
sg17
(lp767
(lp768
g763
aa(lp769
g761
aasg2
F1.0
ssI66
(dp770
g1
F1.0
sg7
(lp771
(lp772
S'tough'
p773
aa(lp774
S'tougher'
p775
aasg13
(dp776
(g775
g773
tp777
F-1.0
s(g773
g775
tp778
F1.0
ssg3
F1.0
sg17
(lp779
(lp780
S'tough'
p781
aa(lp782
S'tougher'
p783
aasg2
F1.0
ssI67
(dp784
g1
F1.0
sg7
(lp785
(lp786
S'quiet'
p787
aa(lp788
S'quieter'
p789
aasg13
(dp790
(g789
g787
tp791
F0.0
s(g787
g789
tp792
F1.0
ssg3
F1.0
sg17
(lp793
(lp794
g787
aa(lp795
g789
aasg2
F1.0
ssI68
(dp796
g1
F0.0
sg7
(lp797
(lp798
S'broad'
p799
aa(lp800
S'broader'
p801
aasg13
(dp802
(g801
g799
tp803
F0.0
s(g799
g801
tp804
F0.0
ssg3
F0.0
sg17
(lp805
(lp806
g799
ag801
aasg2
F0.0
ssI69
(dp807
g1
F-1.0
sg7
(lp808
(lp809
S'healthy'
p810
aa(lp811
S'healthier'
p812
aasg13
(dp813
(g812
g810
tp814
F0.0
s(g810
g812
tp815
F1.0
ssg3
F0.0
sg17
(lp816
(lp817
g812
aa(lp818
g810
aasg2
F1.0
ssI70
(dp819
g1
F1.0
sg7
(lp820
(lp821
S'wide'
p822
aa(lp823
S'wider'
p824
aasg13
(dp825
(g824
g822
tp826
F0.0
s(g822
g824
tp827
F1.0
ssg3
F1.0
sg17
(lp828
(lp829
g822
aa(lp830
g824
aasg2
F1.0
ssI71
(dp831
g1
F0.0
sg7
(lp832
(lp833
S'timely'
p834
aa(lp835
S'timelier'
p836
aasg13
(dp837
(g836
g834
tp838
F0.0
s(g834
g836
tp839
F0.0
ssg3
F0.0
sg17
(lp840
(lp841
g834
ag836
aasg2
F0.0
ssI72
(dp842
g1
F0.0
sg7
(lp843
(lp844
S'soon'
p845
aa(lp846
S'sooner'
p847
aasg13
(dp848
(g845
g847
tp849
F0.0
s(g847
g845
tp850
F0.0
ssg3
F0.0
sg17
(lp851
(lp852
g845
ag847
aasg2
F0.0
ssI73
(dp853
g1
F-1.0
sg7
(lp854
(lp855
S'busy'
p856
aa(lp857
S'busier'
p858
aasg13
(dp859
(g856
g858
tp860
F1.0
s(g858
g856
tp861
F0.0
ssg3
F0.0
sg17
(lp862
(lp863
g858
aa(lp864
g856
aasg2
F1.0
ssI74
(dp865
g1
F0.0
sg7
(lp866
(lp867
S'sunny'
p868
aa(lp869
S'sunnier'
p870
aasg13
(dp871
(g870
g868
tp872
F0.0
s(g868
g870
tp873
F0.0
ssg3
F0.0
sg17
(lp874
(lp875
g868
ag870
aasg2
F0.0
ssI75
(dp876
g1
F0.0
sg7
(lp877
(lp878
S'dumb'
p879
aa(lp880
S'dumber'
p881
aasg13
(dp882
(g881
g879
tp883
F0.0
s(g879
g881
tp884
F0.0
ssg3
F0.0
sg17
(lp885
(lp886
g879
ag881
aasg2
F0.0
ssI76
(dp887
g1
F0.0
sg7
(lp888
(lp889
S'fine'
p890
aa(lp891
S'finer'
p892
aasg13
(dp893
(g892
g890
tp894
F0.0
s(g890
g892
tp895
F0.0
ssg3
F0.0
sg17
(lp896
(lp897
g890
ag892
aasg2
F0.0
ssI77
(dp898
g1
F1.0
sg7
(lp899
(lp900
S'short'
p901
aa(lp902
S'shorter'
p903
aasg13
(dp904
(g901
g903
tp905
F1.0
s(g903
g901
tp906
F0.0
ssg3
F1.0
sg17
(lp907
(lp908
g901
aa(lp909
g903
aasg2
F1.0
ssI78
(dp910
g1
F-1.0
sg7
(lp911
(lp912
S'hard'
p913
aa(lp914
S'harder'
p915
aasg13
(dp916
(g913
g915
tp917
F1.0
s(g915
g913
tp918
F0.0
ssg3
F0.0
sg17
(lp919
(lp920
g915
aa(lp921
g913
aasg2
F1.0
ssI79
(dp922
g1
F0.0
sg7
(lp923
(lp924
S'grim'
p925
aa(lp926
S'grimmer'
p927
aasg13
(dp928
(g927
g925
tp929
F0.0
s(g925
g927
tp930
F0.0
ssg3
F0.0
sg17
(lp931
(lp932
g925
ag927
aasg2
F0.0
ssI80
(dp933
g1
F0.0
sg7
(lp934
(lp935
S'sad'
p936
aa(lp937
S'sadder'
p938
aasg13
(dp939
(g936
g938
tp940
F0.0
s(g938
g936
tp941
F0.0
ssg3
F0.0
sg17
(lp942
(lp943
g936
ag938
aasg2
F0.0
ssI81
(dp944
g1
F0.0
sg7
(lp945
(lp946
S'late'
p947
aa(lp948
S'later'
p949
aasg13
(dp950
(g949
g947
tp951
F0.0
s(g947
g949
tp952
F0.0
ssg3
F0.0
sg17
(lp953
(lp954
g947
ag949
aasg2
F0.0
ssI82
(dp955
g1
F1.0
sg7
(lp956
(lp957
S'high'
p958
aa(lp959
S'higher'
p960
aasg13
(dp961
(g960
g958
tp962
F-1.0
s(g958
g960
tp963
F1.0
ssg3
F1.0
sg17
(lp964
(lp965
S'high'
p966
aa(lp967
S'higher'
p968
aasg2
F1.0
ssI83
(dp969
g1
F-1.0
sg7
(lp970
(lp971
S'bad'
p972
aa(lp973
S'worse'
p974
aasg13
(dp975
(g972
g974
tp976
F1.0
s(g974
g972
tp977
F0.0
ssg3
F0.0
sg17
(lp978
(lp979
g974
aa(lp980
g972
aasg2
F1.0
ssI84
(dp981
g1
F0.0
sg7
(lp982
(lp983
S'tight'
p984
aa(lp985
S'tighter'
p986
aasg13
(dp987
(g986
g984
tp988
F0.0
s(g984
g986
tp989
F0.0
ssg3
F0.0
sg17
(lp990
(lp991
g984
ag986
aasg2
F0.0
ssI85
(dp992
g1
F1.0
sg7
(lp993
(lp994
S'thin'
p995
aa(lp996
S'thinner'
p997
aasg13
(dp998
(g997
g995
tp999
F0.0
s(g995
g997
tp1000
F1.0
ssg3
F1.0
sg17
(lp1001
(lp1002
g995
aa(lp1003
g997
aasg2
F1.0
ssI86
(dp1004
g1
F0.0
sg7
(lp1005
(lp1006
S'wealthy'
p1007
aa(lp1008
S'wealthier'
p1009
aasg13
(dp1010
(g1007
g1009
tp1011
F0.0
s(g1009
g1007
tp1012
F0.0
ssg3
F0.0
sg17
(lp1013
(lp1014
g1007
ag1009
aasg2
F0.0
ssI87
(dp1015
g1
F-1.0
sg7
(lp1016
(lp1017
S'quick'
p1018
aa(lp1019
S'quicker'
p1020
aasg13
(dp1021
(g1020
g1018
tp1022
F0.0
s(g1018
g1020
tp1023
F1.0
ssg3
F0.0
sg17
(lp1024
(lp1025
g1020
aa(lp1026
g1018
aasg2
F1.0
ssI88
(dp1027
g1
F-1.0
sg7
(lp1028
(lp1029
S'tall'
p1030
aa(lp1031
S'taller'
p1032
aasg13
(dp1033
(g1030
g1032
tp1034
F1.0
s(g1032
g1030
tp1035
F0.0
ssg3
F0.0
sg17
(lp1036
(lp1037
g1032
aa(lp1038
g1030
aasg2
F1.0
ssI89
(dp1039
g1
F0.0
sg7
(lp1040
(lp1041
S'dead'
p1042
aa(lp1043
S'deader'
p1044
aasg13
(dp1045
(g1044
g1042
tp1046
F0.0
s(g1042
g1044
tp1047
F0.0
ssg3
F0.0
sg17
(lp1048
(lp1049
g1042
ag1044
aasg2
F0.0
ssI90
(dp1050
g1
F-1.0
sg7
(lp1051
(lp1052
S'true'
p1053
aa(lp1054
S'truer'
p1055
aasg13
(dp1056
(g1055
g1053
tp1057
F0.0
s(g1053
g1055
tp1058
F1.0
ssg3
F0.0
sg17
(lp1059
(lp1060
g1055
aa(lp1061
g1053
aasg2
F1.0
ssI91
(dp1062
g1
F0.0
sg7
(lp1063
(lp1064
S'steep'
p1065
aa(lp1066
S'steeper'
p1067
aasg13
(dp1068
(g1067
g1065
tp1069
F0.0
s(g1065
g1067
tp1070
F0.0
ssg3
F0.0
sg17
(lp1071
(lp1072
g1065
ag1067
aasg2
F0.0
ssI92
(dp1073
g1
F-1.0
sg7
(lp1074
(lp1075
S'big'
p1076
aa(lp1077
S'bigger'
p1078
aasg13
(dp1079
(g1078
g1076
tp1080
F0.0
s(g1076
g1078
tp1081
F1.0
ssg3
F0.0
sg17
(lp1082
(lp1083
g1078
aa(lp1084
g1076
aasg2
F1.0
ssI93
(dp1085
g1
F0.0
sg7
(lp1086
(lp1087
S'strict'
p1088
aa(lp1089
S'stricter'
p1090
aasg13
(dp1091
(g1088
g1090
tp1092
F0.0
s(g1090
g1088
tp1093
F0.0
ssg3
F0.0
sg17
(lp1094
(lp1095
g1088
ag1090
aasg2
F0.0
ssI94
(dp1096
g1
F-1.0
sg7
(lp1097
(lp1098
S'clear'
p1099
aa(lp1100
S'clearer'
p1101
aasg13
(dp1102
(g1099
g1101
tp1103
F1.0
s(g1101
g1099
tp1104
F0.0
ssg3
F0.0
sg17
(lp1105
(lp1106
g1101
aa(lp1107
g1099
aasg2
F1.0
ssI95
(dp1108
g1
F0.0
sg7
(lp1109
(lp1110
S'ill'
p1111
aa(lp1112
S'worse'
p1113
aasg13
(dp1114
(g1111
g1113
tp1115
F0.0
s(g1113
g1111
tp1116
F0.0
ssg3
F0.0
sg17
(lp1117
(lp1118
g1111
ag1113
aasg2
F0.0
ssI96
(dp1119
g1
F1.0
sg7
(lp1120
(lp1121
S'young'
p1122
aa(lp1123
S'younger'
p1124
aasg13
(dp1125
(g1124
g1122
tp1126
F0.0
s(g1122
g1124
tp1127
F1.0
ssg3
F1.0
sg17
(lp1128
(lp1129
g1122
aa(lp1130
g1124
aasg2
F1.0
ssI97
(dp1131
g1
F0.0
sg7
(lp1132
(lp1133
S'loose'
p1134
aa(lp1135
S'looser'
p1136
aasg13
(dp1137
(g1136
g1134
tp1138
F0.0
s(g1134
g1136
tp1139
F0.0
ssg3
F0.0
sg17
(lp1140
(lp1141
g1134
ag1136
aasg2
F0.0
ssI98
(dp1142
g1
F1.0
sg7
(lp1143
(lp1144
S'smart'
p1145
aa(lp1146
S'smarter'
p1147
aasg13
(dp1148
(g1145
g1147
tp1149
F1.0
s(g1147
g1145
tp1150
F0.0
ssg3
F1.0
sg17
(lp1151
(lp1152
g1145
aa(lp1153
g1147
aasg2
F1.0
ssI99
(dp1154
g1
F0.0
sg7
(lp1155
(lp1156
S'green'
p1157
aa(lp1158
S'greener'
p1159
aasg13
(dp1160
(g1159
g1157
tp1161
F0.0
s(g1157
g1159
tp1162
F0.0
ssg3
F0.0
sg17
(lp1163
(lp1164
g1157
ag1159
aasg2
F0.0
ssI100
(dp1165
g1
F0.0
sg7
(lp1166
(lp1167
S'wet'
p1168
aa(lp1169
S'wetter'
p1170
aasg13
(dp1171
(g1168
g1170
tp1172
F0.0
s(g1170
g1168
tp1173
F0.0
ssg3
F0.0
sg17
(lp1174
(lp1175
g1168
ag1170
aasg2
F0.0
ssI101
(dp1176
g1
F0.0
sg7
(lp1177
(lp1178
S'dense'
p1179
aa(lp1180
S'denser'
p1181
aasg13
(dp1182
(g1181
g1179
tp1183
F0.0
s(g1179
g1181
tp1184
F0.0
ssg3
F0.0
sg17
(lp1185
(lp1186
g1179
ag1181
aasg2
F0.0
ssI102
(dp1187
g1
F0.0
sg7
(lp1188
(lp1189
S'fair'
p1190
aa(lp1191
S'fairer'
p1192
aasg13
(dp1193
(g1192
g1190
tp1194
F0.0
s(g1190
g1192
tp1195
F0.0
ssg3
F0.0
sg17
(lp1196
(lp1197
g1190
ag1192
aasg2
F0.0
ssI103
(dp1198
g1
F-1.0
sg7
(lp1199
(lp1200
S'warm'
p1201
aa(lp1202
S'warmer'
p1203
aasg13
(dp1204
(g1201
g1203
tp1205
F1.0
s(g1203
g1201
tp1206
F0.0
ssg3
F0.0
sg17
(lp1207
(lp1208
g1203
aa(lp1209
g1201
aasg2
F1.0
ssI104
(dp1210
g1
F0.0
sg7
(lp1211
(lp1212
S'friendly'
p1213
aa(lp1214
S'friendlier'
p1215
aasg13
(dp1216
(g1213
g1215
tp1217
F0.0
s(g1215
g1213
tp1218
F0.0
ssg3
F0.0
sg17
(lp1219
(lp1220
g1213
ag1215
aasg2
F0.0
ssI105
(dp1221
g1
F0.0
sg7
(lp1222
(lp1223
S'swift'
p1224
aa(lp1225
S'swifter'
p1226
aasg13
(dp1227
(g1226
g1224
tp1228
F0.0
s(g1224
g1226
tp1229
F0.0
ssg3
F0.0
sg17
(lp1230
(lp1231
g1224
ag1226
aasg2
F0.0
ssI106
(dp1232
g1
F0.0
sg7
(lp1233
(lp1234
S'dark'
p1235
aa(lp1236
S'darker'
p1237
aasg13
(dp1238
(g1237
g1235
tp1239
F0.0
s(g1235
g1237
tp1240
F0.0
ssg3
F0.0
sg17
(lp1241
(lp1242
g1235
ag1237
aasg2
F0.0
ssI107
(dp1243
g1
F-1.0
sg7
(lp1244
(lp1245
S'poor'
p1246
aa(lp1247
S'poorer'
p1248
aasg13
(dp1249
(g1248
g1246
tp1250
F0.0
s(g1246
g1248
tp1251
F1.0
ssg3
F0.0
sg17
(lp1252
(lp1253
g1248
aa(lp1254
g1246
aasg2
F1.0
ssI108
(dp1255
g1
F0.0
sg7
(lp1256
(lp1257
S'full'
p1258
aa(lp1259
S'fuller'
p1260
aasg13
(dp1261
(g1258
g1260
tp1262
F0.0
s(g1260
g1258
tp1263
F0.0
ssg3
F0.0
sg17
(lp1264
(lp1265
g1258
ag1260
aasg2
F0.0
ssI109
(dp1266
g1
F0.0
sg7
(lp1267
(lp1268
S'thick'
p1269
aa(lp1270
S'thicker'
p1271
aasg13
(dp1272
(g1269
g1271
tp1273
F0.0
s(g1271
g1269
tp1274
F0.0
ssg3
F0.0
sg17
(lp1275
(lp1276
g1269
ag1271
aasg2
F0.0
ssI110
(dp1277
g1
F0.0
sg7
(lp1278
(lp1279
S'fierce'
p1280
aa(lp1281
S'fiercer'
p1282
aasg13
(dp1283
(g1282
g1280
tp1284
F0.0
s(g1280
g1282
tp1285
F0.0
ssg3
F0.0
sg17
(lp1286
(lp1287
g1280
ag1282
aasg2
F0.0
ssI111
(dp1288
g1
F-1.0
sg7
(lp1289
(lp1290
S'great'
p1291
aa(lp1292
S'greater'
p1293
aasg13
(dp1294
(g1291
g1293
tp1295
F1.0
s(g1293
g1291
tp1296
F0.0
ssg3
F0.0
sg17
(lp1297
(lp1298
g1293
aa(lp1299
g1291
aasg2
F1.0
ssI112
(dp1300
g1
F0.0
sg7
(lp1301
(lp1302
S'speedy'
p1303
aa(lp1304
S'speedier'
p1305
aasg13
(dp1306
(g1305
g1303
tp1307
F0.0
s(g1303
g1305
tp1308
F0.0
ssg3
F0.0
sg17
(lp1309
(lp1310
g1303
ag1305
aasg2
F0.0
ssI113
(dp1311
g1
F0.0
sg7
(lp1312
(lp1313
S'early'
p1314
aa(lp1315
S'earlier'
p1316
aasg13
(dp1317
(g1316
g1314
tp1318
F0.0
s(g1314
g1316
tp1319
F0.0
ssg3
F0.0
sg17
(lp1320
(lp1321
g1314
ag1316
aasg2
F0.0
ssI114
(dp1322
g1
F0.0
sg7
(lp1323
(lp1324
S'dear'
p1325
aa(lp1326
S'dearer'
p1327
aasg13
(dp1328
(g1327
g1325
tp1329
F0.0
s(g1325
g1327
tp1330
F0.0
ssg3
F0.0
sg17
(lp1331
(lp1332
g1325
ag1327
aasg2
F0.0
ssI115
(dp1333
g1
F-1.0
sg7
(lp1334
(lp1335
S'strong'
p1336
aa(lp1337
S'stronger'
p1338
aasg13
(dp1339
(g1336
g1338
tp1340
F1.0
s(g1338
g1336
tp1341
F0.0
ssg3
F0.0
sg17
(lp1342
(lp1343
g1338
aa(lp1344
g1336
aasg2
F1.0
ssI116
(dp1345
g1
F0.0
sg7
(lp1346
(lp1347
S'lengthy'
p1348
aa(lp1349
S'lengthier'
p1350
aasg13
(dp1351
(g1348
g1350
tp1352
F0.0
s(g1350
g1348
tp1353
F0.0
ssg3
F0.0
sg17
(lp1354
(lp1355
g1348
ag1350
aasg2
F0.0
ssI117
(dp1356
g1
F0.0
sg7
(lp1357
(lp1358
S'sharp'
p1359
aa(lp1360
S'sharper'
p1361
aasg13
(dp1362
(g1361
g1359
tp1363
F0.0
s(g1359
g1361
tp1364
F0.0
ssg3
F0.0
sg17
(lp1365
(lp1366
g1359
ag1361
aasg2
F0.0
ssI118
(dp1367
g1
F-1.0
sg7
(lp1368
(lp1369
S'cheap'
p1370
aa(lp1371
S'cheaper'
p1372
aasg13
(dp1373
(g1372
g1370
tp1374
F0.0
s(g1370
g1372
tp1375
F1.0
ssg3
F0.0
sg17
(lp1376
(lp1377
g1372
aa(lp1378
g1370
aasg2
F1.0
ssI119
(dp1379
g1
F0.0
sg7
(lp1380
(lp1381
S'well'
p1382
aa(lp1383
S'better'
p1384
aasg13
(dp1385
(g1384
g1382
tp1386
F0.0
s(g1382
g1384
tp1387
F0.0
ssg3
F0.0
sg17
(lp1388
(lp1389
g1382
ag1384
aasg2
F0.0
ssI120
(dp1390
g1
F1.0
sg7
(lp1391
(lp1392
S'good'
p1393
aa(lp1394
S'better'
p1395
aasg13
(dp1396
(g1393
g1395
tp1397
F1.0
s(g1395
g1393
tp1398
F-1.0
ssg3
F1.0
sg17
(lp1399
(lp1400
S'good'
p1401
aa(lp1402
S'better'
p1403
aasg2
F1.0
ssI121
(dp1404
g1
F0.0
sg7
(lp1405
(lp1406
S'funny'
p1407
aa(lp1408
S'funnier'
p1409
aasg13
(dp1410
(g1409
g1407
tp1411
F0.0
s(g1407
g1409
tp1412
F0.0
ssg3
F0.0
sg17
(lp1413
(lp1414
g1407
ag1409
aasg2
F0.0
ssI122
(dp1415
g1
F0.0
sg7
(lp1416
(lp1417
S'mild'
p1418
aa(lp1419
S'milder'
p1420
aasg13
(dp1421
(g1420
g1418
tp1422
F0.0
s(g1418
g1420
tp1423
F0.0
ssg3
F0.0
sg17
(lp1424
(lp1425
g1418
ag1420
aasg2
F0.0
ssI123
(dp1426
g1
F0.0
sg7
(lp1427
(lp1428
S'firm'
p1429
aa(lp1430
S'firmer'
p1431
aasg13
(dp1432
(g1431
g1429
tp1433
F0.0
s(g1429
g1431
tp1434
F0.0
ssg3
F0.0
sg17
(lp1435
(lp1436
g1429
ag1431
aasg2
F0.0
ssI124
(dp1437
g1
F0.0
sg7
(lp1438
(lp1439
S'slim'
p1440
aa(lp1441
S'slimmer'
p1442
aasg13
(dp1443
(g1440
g1442
tp1444
F0.0
s(g1442
g1440
tp1445
F0.0
ssg3
F0.0
sg17
(lp1446
(lp1447
g1440
ag1442
aasg2
F0.0
ssI125
(dp1448
g1
F1.0
sg7
(lp1449
(lp1450
S'small'
p1451
aa(lp1452
S'smaller'
p1453
aasg13
(dp1454
(g1453
g1451
tp1455
F-1.0
s(g1451
g1453
tp1456
F1.0
ssg3
F1.0
sg17
(lp1457
(lp1458
S'small'
p1459
aa(lp1460
S'smaller'
p1461
aasg2
F1.0
ssI126
(dp1462
g1
F0.0
sg7
(lp1463
(lp1464
S'fat'
p1465
aa(lp1466
S'fatter'
p1467
aasg13
(dp1468
(g1467
g1465
tp1469
F0.0
s(g1465
g1467
tp1470
F0.0
ssg3
F0.0
sg17
(lp1471
(lp1472
g1465
ag1467
aasg2
F0.0
ssI127
(dp1473
g1
F0.0
sg7
(lp1474
(lp1475
S'free'
p1476
aa(lp1477
S'freer'
p1478
aasg13
(dp1479
(g1476
g1478
tp1480
F0.0
s(g1478
g1476
tp1481
F0.0
ssg3
F0.0
sg17
(lp1482
(lp1483
g1476
ag1478
aasg2
F0.0
ssI128
(dp1484
g1
F0.0
sg7
(lp1485
(lp1486
S'dry'
p1487
aa(lp1488
S'drier'
p1489
aasg13
(dp1490
(g1489
g1487
tp1491
F0.0
s(g1487
g1489
tp1492
F0.0
ssg3
F0.0
sg17
(lp1493
(lp1494
g1487
ag1489
aasg2
F0.0
ssI129
(dp1495
g1
F0.0
sg7
(lp1496
(lp1497
S'cute'
p1498
aa(lp1499
S'cuter'
p1500
aasg13
(dp1501
(g1500
g1498
tp1502
F0.0
s(g1498
g1500
tp1503
F0.0
ssg3
F0.0
sg17
(lp1504
(lp1505
g1498
ag1500
aasg2
F0.0
ssI130
(dp1506
g1
F0.0
sg7
(lp1507
(lp1508
S'clever'
p1509
aa(lp1510
S'cleverer'
p1511
aasg13
(dp1512
(g1509
g1511
tp1513
F0.0
s(g1511
g1509
tp1514
F0.0
ssg3
F0.0
sg17
(lp1515
(lp1516
g1509
ag1511
aasg2
F0.0
ssI131
(dp1517
g1
F1.0
sg7
(lp1518
(lp1519
S'loud'
p1520
aa(lp1521
S'louder'
p1522
aasg13
(dp1523
(g1522
g1520
tp1524
F0.0
s(g1520
g1522
tp1525
F1.0
ssg3
F1.0
sg17
(lp1526
(lp1527
g1520
aa(lp1528
g1522
aasg2
F1.0
ssI132
(dp1529
g1
F0.0
sg7
(lp1530
(lp1531
S'clear'
p1532
aa(lp1533
S'clearest'
p1534
aasg13
(dp1535
(g1532
g1534
tp1536
F0.0
s(g1534
g1532
tp1537
F0.0
ssg3
F0.0
sg17
(lp1538
(lp1539
g1532
ag1534
aasg2
F0.0
ssI133
(dp1540
g1
F0.0
sg7
(lp1541
(lp1542
S'long'
p1543
aa(lp1544
S'longest'
p1545
aasg13
(dp1546
(g1545
g1543
tp1547
F0.0
s(g1543
g1545
tp1548
F0.0
ssg3
F0.0
sg17
(lp1549
(lp1550
g1543
ag1545
aasg2
F0.0
ssI134
(dp1551
g1
F0.0
sg7
(lp1552
(lp1553
S'fair'
p1554
aa(lp1555
S'fairest'
p1556
aasg13
(dp1557
(g1556
g1554
tp1558
F0.0
s(g1554
g1556
tp1559
F0.0
ssg3
F0.0
sg17
(lp1560
(lp1561
g1554
ag1556
aasg2
F0.0
ssI135
(dp1562
g1
F-1.0
sg7
(lp1563
(lp1564
S'great'
p1565
aa(lp1566
S'greatest'
p1567
aasg13
(dp1568
(g1565
g1567
tp1569
F1.0
s(g1567
g1565
tp1570
F0.0
ssg3
F0.0
sg17
(lp1571
(lp1572
g1567
aa(lp1573
g1565
aasg2
F1.0
ssI136
(dp1574
g1
F0.0
sg7
(lp1575
(lp1576
S'safe'
p1577
aa(lp1578
S'safest'
p1579
aasg13
(dp1580
(g1577
g1579
tp1581
F0.0
s(g1579
g1577
tp1582
F0.0
ssg3
F0.0
sg17
(lp1583
(lp1584
g1577
ag1579
aasg2
F0.0
ssI137
(dp1585
g1
F0.0
sg7
(lp1586
(lp1587
S'small'
p1588
aa(lp1589
S'smallest'
p1590
aasg13
(dp1591
(g1590
g1588
tp1592
F0.0
s(g1588
g1590
tp1593
F0.0
ssg3
F0.0
sg17
(lp1594
(lp1595
g1588
ag1590
aasg2
F0.0
ssI138
(dp1596
g1
F0.0
sg7
(lp1597
(lp1598
S'old'
p1599
aa(lp1600
S'oldest'
p1601
aasg13
(dp1602
(g1601
g1599
tp1603
F0.0
s(g1599
g1601
tp1604
F0.0
ssg3
F0.0
sg17
(lp1605
(lp1606
g1599
ag1601
aasg2
F0.0
ssI139
(dp1607
g1
F0.0
sg7
(lp1608
(lp1609
S'fine'
p1610
aa(lp1611
S'finest'
p1612
aasg13
(dp1613
(g1612
g1610
tp1614
F0.0
s(g1610
g1612
tp1615
F0.0
ssg3
F0.0
sg17
(lp1616
(lp1617
g1610
ag1612
aasg2
F0.0
ssI140
(dp1618
g1
F0.0
sg7
(lp1619
(lp1620
S'wide'
p1621
aa(lp1622
S'widest'
p1623
aasg13
(dp1624
(g1623
g1621
tp1625
F0.0
s(g1621
g1623
tp1626
F0.0
ssg3
F0.0
sg17
(lp1627
(lp1628
g1621
ag1623
aasg2
F0.0
ssI141
(dp1629
g1
F0.0
sg7
(lp1630
(lp1631
S'ill'
p1632
aa(lp1633
S'worst'
p1634
aasg13
(dp1635
(g1634
g1632
tp1636
F0.0
s(g1632
g1634
tp1637
F0.0
ssg3
F0.0
sg17
(lp1638
(lp1639
g1632
ag1634
aasg2
F0.0
ssI142
(dp1640
g1
F0.0
sg7
(lp1641
(lp1642
S'free'
p1643
aa(lp1644
S'freest'
p1645
aasg13
(dp1646
(g1645
g1643
tp1647
F0.0
s(g1643
g1645
tp1648
F0.0
ssg3
F0.0
sg17
(lp1649
(lp1650
g1643
ag1645
aasg2
F0.0
ssI143
(dp1651
g1
F0.0
sg7
(lp1652
(lp1653
S'bright'
p1654
aa(lp1655
S'brightest'
p1656
aasg13
(dp1657
(g1654
g1656
tp1658
F0.0
s(g1656
g1654
tp1659
F0.0
ssg3
F0.0
sg17
(lp1660
(lp1661
g1654
ag1656
aasg2
F0.0
ssI144
(dp1662
g1
F0.0
sg7
(lp1663
(lp1664
S'little'
p1665
aa(lp1666
S'least'
p1667
aasg13
(dp1668
(g1667
g1665
tp1669
F0.0
s(g1665
g1667
tp1670
F0.0
ssg3
F0.0
sg17
(lp1671
(lp1672
g1665
ag1667
aasg2
F0.0
ssI145
(dp1673
g1
F0.0
sg7
(lp1674
(lp1675
S'short'
p1676
aa(lp1677
S'shortest'
p1678
aasg13
(dp1679
(g1678
g1676
tp1680
F0.0
s(g1676
g1678
tp1681
F0.0
ssg3
F0.0
sg17
(lp1682
(lp1683
g1676
ag1678
aasg2
F0.0
ssI146
(dp1684
g1
F0.0
sg7
(lp1685
(lp1686
S'grave'
p1687
aa(lp1688
S'gravest'
p1689
aasg13
(dp1690
(g1689
g1687
tp1691
F0.0
s(g1687
g1689
tp1692
F0.0
ssg3
F0.0
sg17
(lp1693
(lp1694
g1687
ag1689
aasg2
F0.0
ssI147
(dp1695
g1
F0.0
sg7
(lp1696
(lp1697
S'heavy'
p1698
aa(lp1699
S'heaviest'
p1700
aasg13
(dp1701
(g1700
g1698
tp1702
F0.0
s(g1698
g1700
tp1703
F0.0
ssg3
F0.0
sg17
(lp1704
(lp1705
g1698
ag1700
aasg2
F0.0
ssI148
(dp1706
g1
F0.0
sg7
(lp1707
(lp1708
S'cheap'
p1709
aa(lp1710
S'cheapest'
p1711
aasg13
(dp1712
(g1711
g1709
tp1713
F0.0
s(g1709
g1711
tp1714
F0.0
ssg3
F0.0
sg17
(lp1715
(lp1716
g1709
ag1711
aasg2
F0.0
ssI149
(dp1717
g1
F1.0
sg7
(lp1718
(lp1719
S'much'
p1720
aa(lp1721
S'most'
p1722
aasg13
(dp1723
(g1720
g1722
tp1724
F1.0
s(g1722
g1720
tp1725
F0.0
ssg3
F1.0
sg17
(lp1726
(lp1727
g1720
aa(lp1728
g1722
aasg2
F1.0
ssI150
(dp1729
g1
F0.0
sg7
(lp1730
(lp1731
S'close'
p1732
aa(lp1733
S'closest'
p1734
aasg13
(dp1735
(g1734
g1732
tp1736
F0.0
s(g1732
g1734
tp1737
F0.0
ssg3
F0.0
sg17
(lp1738
(lp1739
g1732
ag1734
aasg2
F0.0
ssI151
(dp1740
g1
F0.0
sg7
(lp1741
(lp1742
S'dark'
p1743
aa(lp1744
S'darkest'
p1745
aasg13
(dp1746
(g1745
g1743
tp1747
F0.0
s(g1743
g1745
tp1748
F0.0
ssg3
F0.0
sg17
(lp1749
(lp1750
g1743
ag1745
aasg2
F0.0
ssI152
(dp1751
g1
F0.0
sg7
(lp1752
(lp1753
S'weak'
p1754
aa(lp1755
S'weakest'
p1756
aasg13
(dp1757
(g1756
g1754
tp1758
F0.0
s(g1754
g1756
tp1759
F0.0
ssg3
F0.0
sg17
(lp1760
(lp1761
g1754
ag1756
aasg2
F0.0
ssI153
(dp1762
g1
F0.0
sg7
(lp1763
(lp1764
S'broad'
p1765
aa(lp1766
S'broadest'
p1767
aasg13
(dp1768
(g1767
g1765
tp1769
F0.0
s(g1765
g1767
tp1770
F0.0
ssg3
F0.0
sg17
(lp1771
(lp1772
g1765
ag1767
aasg2
F0.0
ssI154
(dp1773
g1
F0.0
sg7
(lp1774
(lp1775
S'easy'
p1776
aa(lp1777
S'easiest'
p1778
aasg13
(dp1779
(g1778
g1776
tp1780
F0.0
s(g1776
g1778
tp1781
F0.0
ssg3
F0.0
sg17
(lp1782
(lp1783
g1776
ag1778
aasg2
F0.0
ssI155
(dp1784
g1
F0.0
sg7
(lp1785
(lp1786
S'brave'
p1787
aa(lp1788
S'bravest'
p1789
aasg13
(dp1790
(g1787
g1789
tp1791
F0.0
s(g1789
g1787
tp1792
F0.0
ssg3
F0.0
sg17
(lp1793
(lp1794
g1787
ag1789
aasg2
F0.0
ssI156
(dp1795
g1
F0.0
sg7
(lp1796
(lp1797
S'late'
p1798
aa(lp1799
S'latest'
p1800
aasg13
(dp1801
(g1800
g1798
tp1802
F0.0
s(g1798
g1800
tp1803
F0.0
ssg3
F0.0
sg17
(lp1804
(lp1805
g1798
ag1800
aasg2
F0.0
ssI157
(dp1806
g1
F0.0
sg7
(lp1807
(lp1808
S'quick'
p1809
aa(lp1810
S'quickest'
p1811
aasg13
(dp1812
(g1811
g1809
tp1813
F0.0
s(g1809
g1811
tp1814
F0.0
ssg3
F0.0
sg17
(lp1815
(lp1816
g1809
ag1811
aasg2
F0.0
ssI158
(dp1817
g1
F0.0
sg7
(lp1818
(lp1819
S'big'
p1820
aa(lp1821
S'biggest'
p1822
aasg13
(dp1823
(g1822
g1820
tp1824
F0.0
s(g1820
g1822
tp1825
F0.0
ssg3
F0.0
sg17
(lp1826
(lp1827
g1820
ag1822
aasg2
F0.0
ssI159
(dp1828
g1
F0.0
sg7
(lp1829
(lp1830
S'new'
p1831
aa(lp1832
S'newest'
p1833
aasg13
(dp1834
(g1833
g1831
tp1835
F0.0
s(g1831
g1833
tp1836
F0.0
ssg3
F0.0
sg17
(lp1837
(lp1838
g1831
ag1833
aasg2
F0.0
ssI160
(dp1839
g1
F0.0
sg7
(lp1840
(lp1841
S'far'
p1842
aa(lp1843
S'furthest'
p1844
aasg13
(dp1845
(g1842
g1844
tp1846
F0.0
s(g1844
g1842
tp1847
F0.0
ssg3
F0.0
sg17
(lp1848
(lp1849
g1842
ag1844
aasg2
F0.0
ssI161
(dp1850
g1
F-1.0
sg7
(lp1851
(lp1852
S'good'
p1853
aa(lp1854
S'excellent'
p1855
aasg13
(dp1856
(g1853
g1855
tp1857
F1.0
s(g1855
g1853
tp1858
F0.0
ssg3
F0.0
sg17
(lp1859
(lp1860
g1855
aa(lp1861
g1853
aasg2
F1.0
ssI162
(dp1862
g1
F0.0
sg7
(lp1863
(lp1864
S'large'
p1865
aa(lp1866
S'largest'
p1867
aasg13
(dp1868
(g1867
g1865
tp1869
F0.0
s(g1865
g1867
tp1870
F0.0
ssg3
F0.0
sg17
(lp1871
(lp1872
g1865
ag1867
aasg2
F0.0
ssI163
(dp1873
g1
F0.0
sg7
(lp1874
(lp1875
S'poor'
p1876
aa(lp1877
S'poorest'
p1878
aasg13
(dp1879
(g1878
g1876
tp1880
F0.0
s(g1876
g1878
tp1881
F0.0
ssg3
F0.0
sg17
(lp1882
(lp1883
g1876
ag1878
aasg2
F0.0
ssI164
(dp1884
g1
F0.0
sg7
(lp1885
(lp1886
S'cruel'
p1887
aa(lp1888
S'cruellest'
p1889
aasg13
(dp1890
(g1887
g1889
tp1891
F0.0
s(g1889
g1887
tp1892
F0.0
ssg3
F0.0
sg17
(lp1893
(lp1894
g1887
ag1889
aasg2
F0.0
ssI165
(dp1895
g1
F-1.0
sg7
(lp1896
(lp1897
S'many'
p1898
aa(lp1899
S'most'
p1900
aasg13
(dp1901
(g1898
g1900
tp1902
F1.0
s(g1900
g1898
tp1903
F0.0
ssg3
F0.0
sg17
(lp1904
(lp1905
g1900
aa(lp1906
g1898
aasg2
F1.0
ssI166
(dp1907
g1
F0.0
sg7
(lp1908
(lp1909
S'deep'
p1910
aa(lp1911
S'deepest'
p1912
aasg13
(dp1913
(g1912
g1910
tp1914
F0.0
s(g1910
g1912
tp1915
F0.0
ssg3
F0.0
sg17
(lp1916
(lp1917
g1910
ag1912
aasg2
F0.0
ssI167
(dp1918
g1
F0.0
sg7
(lp1919
(lp1920
S'full'
p1921
aa(lp1922
S'fullest'
p1923
aasg13
(dp1924
(g1921
g1923
tp1925
F0.0
s(g1923
g1921
tp1926
F0.0
ssg3
F0.0
sg17
(lp1927
(lp1928
g1921
ag1923
aasg2
F0.0
ssI168
(dp1929
g1
F0.0
sg7
(lp1930
(lp1931
S'smart'
p1932
aa(lp1933
S'smartest'
p1934
aasg13
(dp1935
(g1932
g1934
tp1936
F0.0
s(g1934
g1932
tp1937
F0.0
ssg3
F0.0
sg17
(lp1938
(lp1939
g1932
ag1934
aasg2
F0.0
ssI169
(dp1940
g1
F1.0
sg7
(lp1941
(lp1942
S'bad'
p1943
aa(lp1944
S'worst'
p1945
aasg13
(dp1946
(g1945
g1943
tp1947
F-1.0
s(g1943
g1945
tp1948
F1.0
ssg3
F1.0
sg17
(lp1949
(lp1950
S'bad'
p1951
aa(lp1952
S'worst'
p1953
aasg2
F1.0
ssI170
(dp1954
g1
F0.0
sg7
(lp1955
(lp1956
S'strict'
p1957
aa(lp1958
S'strictest'
p1959
aasg13
(dp1960
(g1959
g1957
tp1961
F0.0
s(g1957
g1959
tp1962
F0.0
ssg3
F0.0
sg17
(lp1963
(lp1964
g1957
ag1959
aasg2
F0.0
ssI171
(dp1965
g1
F1.0
sg7
(lp1966
(lp1967
S'good'
p1968
aa(lp1969
S'best'
p1970
aasg13
(dp1971
(g1970
g1968
tp1972
F-1.0
s(g1968
g1970
tp1973
F1.0
ssg3
F1.0
sg17
(lp1974
(lp1975
S'good'
p1976
aa(lp1977
S'best'
p1978
aasg2
F1.0
ssI172
(dp1979
g1
F0.0
sg7
(lp1980
(lp1981
S'wealthy'
p1982
aa(lp1983
S'wealthiest'
p1984
aasg13
(dp1985
(g1984
g1982
tp1986
F0.0
s(g1982
g1984
tp1987
F0.0
ssg3
F0.0
sg17
(lp1988
(lp1989
g1982
ag1984
aasg2
F0.0
ssI173
(dp1990
g1
F0.0
sg7
(lp1991
(lp1992
S'rich'
p1993
aa(lp1994
S'richest'
p1995
aasg13
(dp1996
(g1995
g1993
tp1997
F0.0
s(g1993
g1995
tp1998
F0.0
ssg3
F0.0
sg17
(lp1999
(lp2000
g1993
ag1995
aasg2
F0.0
ssI174
(dp2001
g1
F0.0
sg7
(lp2002
(lp2003
S'rare'
p2004
aa(lp2005
S'rarest'
p2006
aasg13
(dp2007
(g2006
g2004
tp2008
F0.0
s(g2004
g2006
tp2009
F0.0
ssg3
F0.0
sg17
(lp2010
(lp2011
g2004
ag2006
aasg2
F0.0
ssI175
(dp2012
g1
F1.0
sg7
(lp2013
(lp2014
S'fast'
p2015
aa(lp2016
S'fastest'
p2017
aasg13
(dp2018
(g2017
g2015
tp2019
F0.0
s(g2015
g2017
tp2020
F1.0
ssg3
F1.0
sg17
(lp2021
(lp2022
g2015
aa(lp2023
g2017
aasg2
F1.0
ssI176
(dp2024
g1
F0.0
sg7
(lp2025
(lp2026
S'low'
p2027
aa(lp2028
S'lowest'
p2029
aasg13
(dp2030
(g2029
g2027
tp2031
F0.0
s(g2027
g2029
tp2032
F0.0
ssg3
F0.0
sg17
(lp2033
(lp2034
g2027
ag2029
aasg2
F0.0
ssI177
(dp2035
g1
F0.0
sg7
(lp2036
(lp2037
S'simple'
p2038
aa(lp2039
S'simplest'
p2040
aasg13
(dp2041
(g2040
g2038
tp2042
F0.0
s(g2038
g2040
tp2043
F0.0
ssg3
F0.0
sg17
(lp2044
(lp2045
g2038
ag2040
aasg2
F0.0
ssI178
(dp2046
g1
F0.0
sg7
(lp2047
(lp2048
S'clean'
p2049
aa(lp2050
S'cleanest'
p2051
aasg13
(dp2052
(g2049
g2051
tp2053
F0.0
s(g2051
g2049
tp2054
F0.0
ssg3
F0.0
sg17
(lp2055
(lp2056
g2049
ag2051
aasg2
F0.0
ssI179
(dp2057
g1
F0.0
sg7
(lp2058
(lp2059
S'happy'
p2060
aa(lp2061
S'happiest'
p2062
aasg13
(dp2063
(g2062
g2060
tp2064
F0.0
s(g2060
g2062
tp2065
F0.0
ssg3
F0.0
sg17
(lp2066
(lp2067
g2060
ag2062
aasg2
F0.0
ssI180
(dp2068
g1
F0.0
sg7
(lp2069
(lp2070
S'hard'
p2071
aa(lp2072
S'hardest'
p2073
aasg13
(dp2074
(g2071
g2073
tp2075
F0.0
s(g2073
g2071
tp2076
F0.0
ssg3
F0.0
sg17
(lp2077
(lp2078
g2071
ag2073
aasg2
F0.0
ssI181
(dp2079
g1
F0.0
sg7
(lp2080
(lp2081
S'well'
p2082
aa(lp2083
S'best'
p2084
aasg13
(dp2085
(g2084
g2082
tp2086
F0.0
s(g2082
g2084
tp2087
F0.0
ssg3
F0.0
sg17
(lp2088
(lp2089
g2082
ag2084
aasg2
F0.0
ssI182
(dp2090
g1
F0.0
sg7
(lp2091
(lp2092
S'early'
p2093
aa(lp2094
S'earliest'
p2095
aasg13
(dp2096
(g2095
g2093
tp2097
F0.0
s(g2093
g2095
tp2098
F0.0
ssg3
F0.0
sg17
(lp2099
(lp2100
g2093
ag2095
aasg2
F0.0
ssI183
(dp2101
g1
F-1.0
sg7
(lp2102
(lp2103
S'high'
p2104
aa(lp2105
S'highest'
p2106
aasg13
(dp2107
(g2106
g2104
tp2108
F0.0
s(g2104
g2106
tp2109
F1.0
ssg3
F0.0
sg17
(lp2110
(lp2111
g2106
aa(lp2112
g2104
aasg2
F1.0
ssI184
(dp2113
g1
F0.0
sg7
(lp2114
(lp2115
S'some'
p2116
aa(lp2117
S'most'
p2118
aasg13
(dp2119
(g2116
g2118
tp2120
F0.0
s(g2118
g2116
tp2121
F0.0
ssg3
F0.0
sg17
(lp2122
(lp2123
g2116
ag2118
aasg2
F0.0
ssI185
(dp2124
g1
F0.0
sg7
(lp2125
(lp2126
S'hon'
p2127
aa(lp2128
S'honest'
p2129
aasg13
(dp2130
(g2129
g2127
tp2131
F0.0
s(g2127
g2129
tp2132
F0.0
ssg3
F0.0
sg17
(lp2133
(lp2134
g2127
ag2129
aasg2
F0.0
ssI186
(dp2135
g1
F0.0
sg7
(lp2136
(lp2137
S'warm'
p2138
aa(lp2139
S'warmest'
p2140
aasg13
(dp2141
(g2138
g2140
tp2142
F0.0
s(g2140
g2138
tp2143
F0.0
ssg3
F0.0
sg17
(lp2144
(lp2145
g2138
ag2140
aasg2
F0.0
ssI187
(dp2146
g1
F0.0
sg7
(lp2147
(lp2148
S'young'
p2149
aa(lp2150
S'youngest'
p2151
aasg13
(dp2152
(g2151
g2149
tp2153
F0.0
s(g2149
g2151
tp2154
F0.0
ssg3
F0.0
sg17
(lp2155
(lp2156
g2149
ag2151
aasg2
F0.0
ssI188
(dp2157
g1
F1.0
sg7
(lp2158
(lp2159
S'strong'
p2160
aa(lp2161
S'strongest'
p2162
aasg13
(dp2163
(g2160
g2162
tp2164
F1.0
s(g2162
g2160
tp2165
F0.0
ssg3
F1.0
sg17
(lp2166
(lp2167
g2160
aa(lp2168
g2162
aasg2
F1.0
ssI189
(dp2169
g1
F0.0
sg7
(lp2170
(lp2171
S'near'
p2172
aa(lp2173
S'nearest'
p2174
aasg13
(dp2175
(g2174
g2172
tp2176
F0.0
s(g2172
g2174
tp2177
F0.0
ssg3
F0.0
sg17
(lp2178
(lp2179
g2172
ag2174
aasg2
F0.0
ssI190
(dp2180
g1
F0.0
sg7
(lp2181
(lp2182
S'east'
p2183
aa(lp2184
S'easiest'
p2185
aasg13
(dp2186
(g2185
g2183
tp2187
F0.0
s(g2183
g2185
tp2188
F0.0
ssg3
F0.0
sg17
(lp2189
(lp2190
g2183
ag2185
aasg2
F0.0
ssI191
(dp2191
g1
F0.0
sg7
(lp2192
(lp2193
S'longer'
p2194
aa(lp2195
S'longest'
p2196
aasg13
(dp2197
(g2194
g2196
tp2198
F0.0
s(g2196
g2194
tp2199
F0.0
ssg3
F0.0
sg17
(lp2200
(lp2201
g2194
ag2196
aasg2
F0.0
ssI192
(dp2202
g1
F0.0
sg7
(lp2203
(lp2204
S'harder'
p2205
aa(lp2206
S'hardest'
p2207
aasg13
(dp2208
(g2205
g2207
tp2209
F0.0
s(g2207
g2205
tp2210
F0.0
ssg3
F0.0
sg17
(lp2211
(lp2212
g2205
ag2207
aasg2
F0.0
ssI193
(dp2213
g1
F0.0
sg7
(lp2214
(lp2215
S'broader'
p2216
aa(lp2217
S'broadest'
p2218
aasg13
(dp2219
(g2216
g2218
tp2220
F0.0
s(g2218
g2216
tp2221
F0.0
ssg3
F0.0
sg17
(lp2222
(lp2223
g2216
ag2218
aasg2
F0.0
ssI194
(dp2224
g1
F0.0
sg7
(lp2225
(lp2226
S'deeper'
p2227
aa(lp2228
S'deepest'
p2229
aasg13
(dp2230
(g2227
g2229
tp2231
F0.0
s(g2229
g2227
tp2232
F0.0
ssg3
F0.0
sg17
(lp2233
(lp2234
g2227
ag2229
aasg2
F0.0
ssI195
(dp2235
g1
F0.0
sg7
(lp2236
(lp2237
S'older'
p2238
aa(lp2239
S'oldest'
p2240
aasg13
(dp2241
(g2238
g2240
tp2242
F0.0
s(g2240
g2238
tp2243
F0.0
ssg3
F0.0
sg17
(lp2244
(lp2245
g2238
ag2240
aasg2
F0.0
ssI196
(dp2246
g1
F0.0
sg7
(lp2247
(lp2248
S'lower'
p2249
aa(lp2250
S'lowest'
p2251
aasg13
(dp2252
(g2249
g2251
tp2253
F0.0
s(g2251
g2249
tp2254
F0.0
ssg3
F0.0
sg17
(lp2255
(lp2256
g2249
ag2251
aasg2
F0.0
ssI197
(dp2257
g1
F0.0
sg7
(lp2258
(lp2259
S'weaker'
p2260
aa(lp2261
S'weakest'
p2262
aasg13
(dp2263
(g2260
g2262
tp2264
F0.0
s(g2262
g2260
tp2265
F0.0
ssg3
F0.0
sg17
(lp2266
(lp2267
g2260
ag2262
aasg2
F0.0
ssI198
(dp2268
g1
F0.0
sg7
(lp2269
(lp2270
S'smaller'
p2271
aa(lp2272
S'smallest'
p2273
aasg13
(dp2274
(g2271
g2273
tp2275
F0.0
s(g2273
g2271
tp2276
F0.0
ssg3
F0.0
sg17
(lp2277
(lp2278
g2271
ag2273
aasg2
F0.0
ssI199
(dp2279
g1
F0.0
sg7
(lp2280
(lp2281
S'further'
p2282
aa(lp2283
S'furthest'
p2284
aasg13
(dp2285
(g2282
g2284
tp2286
F0.0
s(g2284
g2282
tp2287
F0.0
ssg3
F0.0
sg17
(lp2288
(lp2289
g2282
ag2284
aasg2
F0.0
ssI200
(dp2290
g1
F0.0
sg7
(lp2291
(lp2292
S'larger'
p2293
aa(lp2294
S'largest'
p2295
aasg13
(dp2296
(g2293
g2295
tp2297
F0.0
s(g2295
g2293
tp2298
F0.0
ssg3
F0.0
sg17
(lp2299
(lp2300
g2293
ag2295
aasg2
F0.0
ssI201
(dp2301
g1
F0.0
sg7
(lp2302
(lp2303
S'fairer'
p2304
aa(lp2305
S'fairest'
p2306
aasg13
(dp2307
(g2304
g2306
tp2308
F0.0
s(g2306
g2304
tp2309
F0.0
ssg3
F0.0
sg17
(lp2310
(lp2311
g2304
ag2306
aasg2
F0.0
ssI202
(dp2312
g1
F0.0
sg7
(lp2313
(lp2314
S'greater'
p2315
aa(lp2316
S'greatest'
p2317
aasg13
(dp2318
(g2315
g2317
tp2319
F0.0
s(g2317
g2315
tp2320
F0.0
ssg3
F0.0
sg17
(lp2321
(lp2322
g2315
ag2317
aasg2
F0.0
ssI203
(dp2323
g1
F0.0
sg7
(lp2324
(lp2325
S'closer'
p2326
aa(lp2327
S'closest'
p2328
aasg13
(dp2329
(g2326
g2328
tp2330
F0.0
s(g2328
g2326
tp2331
F0.0
ssg3
F0.0
sg17
(lp2332
(lp2333
g2326
ag2328
aasg2
F0.0
ssI204
(dp2334
g1
F0.0
sg7
(lp2335
(lp2336
S'rarer'
p2337
aa(lp2338
S'rarest'
p2339
aasg13
(dp2340
(g2337
g2339
tp2341
F0.0
s(g2339
g2337
tp2342
F0.0
ssg3
F0.0
sg17
(lp2343
(lp2344
g2337
ag2339
aasg2
F0.0
ssI205
(dp2345
g1
F0.0
sg7
(lp2346
(lp2347
S'richer'
p2348
aa(lp2349
S'richest'
p2350
aasg13
(dp2351
(g2348
g2350
tp2352
F0.0
s(g2350
g2348
tp2353
F0.0
ssg3
F0.0
sg17
(lp2354
(lp2355
g2348
ag2350
aasg2
F0.0
ssI206
(dp2356
g1
F0.0
sg7
(lp2357
(lp2358
S'brighter'
p2359
aa(lp2360
S'brightest'
p2361
aasg13
(dp2362
(g2359
g2361
tp2363
F0.0
s(g2361
g2359
tp2364
F0.0
ssg3
F0.0
sg17
(lp2365
(lp2366
g2359
ag2361
aasg2
F0.0
ssI207
(dp2367
g1
F0.0
sg7
(lp2368
(lp2369
S'wider'
p2370
aa(lp2371
S'widest'
p2372
aasg13
(dp2373
(g2370
g2372
tp2374
F0.0
s(g2372
g2370
tp2375
F0.0
ssg3
F0.0
sg17
(lp2376
(lp2377
g2370
ag2372
aasg2
F0.0
ssI208
(dp2378
g1
F0.0
sg7
(lp2379
(lp2380
S'shorter'
p2381
aa(lp2382
S'shortest'
p2383
aasg13
(dp2384
(g2381
g2383
tp2385
F0.0
s(g2383
g2381
tp2386
F0.0
ssg3
F0.0
sg17
(lp2387
(lp2388
g2381
ag2383
aasg2
F0.0
ssI209
(dp2389
g1
F0.0
sg7
(lp2390
(lp2391
S'cleaner'
p2392
aa(lp2393
S'cleanest'
p2394
aasg13
(dp2395
(g2392
g2394
tp2396
F0.0
s(g2394
g2392
tp2397
F0.0
ssg3
F0.0
sg17
(lp2398
(lp2399
g2392
ag2394
aasg2
F0.0
ssI210
(dp2400
g1
F0.0
sg7
(lp2401
(lp2402
S'braver'
p2403
aa(lp2404
S'bravest'
p2405
aasg13
(dp2406
(g2405
g2403
tp2407
F0.0
s(g2403
g2405
tp2408
F0.0
ssg3
F0.0
sg17
(lp2409
(lp2410
g2403
ag2405
aasg2
F0.0
ssI211
(dp2411
g1
F0.0
sg7
(lp2412
(lp2413
S'stronger'
p2414
aa(lp2415
S'strongest'
p2416
aasg13
(dp2417
(g2414
g2416
tp2418
F0.0
s(g2416
g2414
tp2419
F0.0
ssg3
F0.0
sg17
(lp2420
(lp2421
g2414
ag2416
aasg2
F0.0
ssI212
(dp2422
g1
F0.0
sg7
(lp2423
(lp2424
S'heavier'
p2425
aa(lp2426
S'heaviest'
p2427
aasg13
(dp2428
(g2425
g2427
tp2429
F0.0
s(g2427
g2425
tp2430
F0.0
ssg3
F0.0
sg17
(lp2431
(lp2432
g2425
ag2427
aasg2
F0.0
ssI213
(dp2433
g1
F0.0
sg7
(lp2434
(lp2435
S'cheaper'
p2436
aa(lp2437
S'cheapest'
p2438
aasg13
(dp2439
(g2436
g2438
tp2440
F0.0
s(g2438
g2436
tp2441
F0.0
ssg3
F0.0
sg17
(lp2442
(lp2443
g2436
ag2438
aasg2
F0.0
ssI214
(dp2444
g1
F0.0
sg7
(lp2445
(lp2446
S'happier'
p2447
aa(lp2448
S'happiest'
p2449
aasg13
(dp2450
(g2447
g2449
tp2451
F0.0
s(g2449
g2447
tp2452
F0.0
ssg3
F0.0
sg17
(lp2453
(lp2454
g2447
ag2449
aasg2
F0.0
ssI215
(dp2455
g1
F0.0
sg7
(lp2456
(lp2457
S'later'
p2458
aa(lp2459
S'latest'
p2460
aasg13
(dp2461
(g2458
g2460
tp2462
F0.0
s(g2460
g2458
tp2463
F0.0
ssg3
F0.0
sg17
(lp2464
(lp2465
g2458
ag2460
aasg2
F0.0
ssI216
(dp2466
g1
F0.0
sg7
(lp2467
(lp2468
S'smarter'
p2469
aa(lp2470
S'smartest'
p2471
aasg13
(dp2472
(g2469
g2471
tp2473
F0.0
s(g2471
g2469
tp2474
F0.0
ssg3
F0.0
sg17
(lp2475
(lp2476
g2469
ag2471
aasg2
F0.0
ssI217
(dp2477
g1
F0.0
sg7
(lp2478
(lp2479
S'simpler'
p2480
aa(lp2481
S'simplest'
p2482
aasg13
(dp2483
(g2480
g2482
tp2484
F0.0
s(g2482
g2480
tp2485
F0.0
ssg3
F0.0
sg17
(lp2486
(lp2487
g2480
ag2482
aasg2
F0.0
ssI218
(dp2488
g1
F0.0
sg7
(lp2489
(lp2490
S'easier'
p2491
aa(lp2492
S'easiest'
p2493
aasg13
(dp2494
(g2491
g2493
tp2495
F0.0
s(g2493
g2491
tp2496
F0.0
ssg3
F0.0
sg17
(lp2497
(lp2498
g2491
ag2493
aasg2
F0.0
ssI219
(dp2499
g1
F0.0
sg7
(lp2500
(lp2501
S'less'
p2502
aa(lp2503
S'least'
p2504
aasg13
(dp2505
(g2502
g2504
tp2506
F0.0
s(g2504
g2502
tp2507
F0.0
ssg3
F0.0
sg17
(lp2508
(lp2509
g2502
ag2504
aasg2
F0.0
ssI220
(dp2510
g1
F0.0
sg7
(lp2511
(lp2512
S'higher'
p2513
aa(lp2514
S'highest'
p2515
aasg13
(dp2516
(g2513
g2515
tp2517
F0.0
s(g2515
g2513
tp2518
F0.0
ssg3
F0.0
sg17
(lp2519
(lp2520
g2513
ag2515
aasg2
F0.0
ssI221
(dp2521
g1
F0.0
sg7
(lp2522
(lp2523
S'clearer'
p2524
aa(lp2525
S'clearest'
p2526
aasg13
(dp2527
(g2524
g2526
tp2528
F0.0
s(g2526
g2524
tp2529
F0.0
ssg3
F0.0
sg17
(lp2530
(lp2531
g2524
ag2526
aasg2
F0.0
ssI222
(dp2532
g1
F0.0
sg7
(lp2533
(lp2534
S'darker'
p2535
aa(lp2536
S'darkest'
p2537
aasg13
(dp2538
(g2535
g2537
tp2539
F0.0
s(g2537
g2535
tp2540
F0.0
ssg3
F0.0
sg17
(lp2541
(lp2542
g2535
ag2537
aasg2
F0.0
ssI223
(dp2543
g1
F0.0
sg7
(lp2544
(lp2545
S'quicker'
p2546
aa(lp2547
S'quickest'
p2548
aasg13
(dp2549
(g2546
g2548
tp2550
F0.0
s(g2548
g2546
tp2551
F0.0
ssg3
F0.0
sg17
(lp2552
(lp2553
g2546
ag2548
aasg2
F0.0
ssI224
(dp2554
g1
F0.0
sg7
(lp2555
(lp2556
S'poorer'
p2557
aa(lp2558
S'poorest'
p2559
aasg13
(dp2560
(g2557
g2559
tp2561
F0.0
s(g2559
g2557
tp2562
F0.0
ssg3
F0.0
sg17
(lp2563
(lp2564
g2557
ag2559
aasg2
F0.0
ssI225
(dp2565
g1
F0.0
sg7
(lp2566
(lp2567
S'graver'
p2568
aa(lp2569
S'gravest'
p2570
aasg13
(dp2571
(g2568
g2570
tp2572
F0.0
s(g2570
g2568
tp2573
F0.0
ssg3
F0.0
sg17
(lp2574
(lp2575
g2568
ag2570
aasg2
F0.0
ssI226
(dp2576
g1
F0.0
sg7
(lp2577
(lp2578
S'bigger'
p2579
aa(lp2580
S'biggest'
p2581
aasg13
(dp2582
(g2581
g2579
tp2583
F0.0
s(g2579
g2581
tp2584
F0.0
ssg3
F0.0
sg17
(lp2585
(lp2586
g2579
ag2581
aasg2
F0.0
ssI227
(dp2587
g1
F0.0
sg7
(lp2588
(lp2589
S'safer'
p2590
aa(lp2591
S'safest'
p2592
aasg13
(dp2593
(g2590
g2592
tp2594
F0.0
s(g2592
g2590
tp2595
F0.0
ssg3
F0.0
sg17
(lp2596
(lp2597
g2590
ag2592
aasg2
F0.0
ssI228
(dp2598
g1
F1.0
sg7
(lp2599
(lp2600
S'younger'
p2601
aa(lp2602
S'youngest'
p2603
aasg13
(dp2604
(g2601
g2603
tp2605
F1.0
s(g2603
g2601
tp2606
F-1.0
ssg3
F1.0
sg17
(lp2607
(lp2608
S'younger'
p2609
aa(lp2610
S'youngest'
p2611
aasg2
F1.0
ssI229
(dp2612
g1
F0.0
sg7
(lp2613
(lp2614
S'earlier'
p2615
aa(lp2616
S'earliest'
p2617
aasg13
(dp2618
(g2615
g2617
tp2619
F0.0
s(g2617
g2615
tp2620
F0.0
ssg3
F0.0
sg17
(lp2621
(lp2622
g2615
ag2617
aasg2
F0.0
ssI230
(dp2623
g1
F0.0
sg7
(lp2624
(lp2625
S'fuller'
p2626
aa(lp2627
S'fullest'
p2628
aasg13
(dp2629
(g2626
g2628
tp2630
F0.0
s(g2628
g2626
tp2631
F0.0
ssg3
F0.0
sg17
(lp2632
(lp2633
g2626
ag2628
aasg2
F0.0
ssI231
(dp2634
g1
F0.0
sg7
(lp2635
(lp2636
S'warmer'
p2637
aa(lp2638
S'warmest'
p2639
aasg13
(dp2640
(g2637
g2639
tp2641
F0.0
s(g2639
g2637
tp2642
F0.0
ssg3
F0.0
sg17
(lp2643
(lp2644
g2637
ag2639
aasg2
F0.0
ssI232
(dp2645
g1
F0.0
sg7
(lp2646
(lp2647
S'wealthier'
p2648
aa(lp2649
S'wealthiest'
p2650
aasg13
(dp2651
(g2648
g2650
tp2652
F0.0
s(g2650
g2648
tp2653
F0.0
ssg3
F0.0
sg17
(lp2654
(lp2655
g2648
ag2650
aasg2
F0.0
ssI233
(dp2656
g1
F0.0
sg7
(lp2657
(lp2658
S'faster'
p2659
aa(lp2660
S'fastest'
p2661
aasg13
(dp2662
(g2659
g2661
tp2663
F0.0
s(g2661
g2659
tp2664
F0.0
ssg3
F0.0
sg17
(lp2665
(lp2666
g2659
ag2661
aasg2
F0.0
ssI234
(dp2667
g1
F0.0
sg7
(lp2668
(lp2669
S'freer'
p2670
aa(lp2671
S'freest'
p2672
aasg13
(dp2673
(g2670
g2672
tp2674
F0.0
s(g2672
g2670
tp2675
F0.0
ssg3
F0.0
sg17
(lp2676
(lp2677
g2670
ag2672
aasg2
F0.0
ssI235
(dp2678
g1
F0.0
sg7
(lp2679
(lp2680
S'newer'
p2681
aa(lp2682
S'newest'
p2683
aasg13
(dp2684
(g2681
g2683
tp2685
F0.0
s(g2683
g2681
tp2686
F0.0
ssg3
F0.0
sg17
(lp2687
(lp2688
g2681
ag2683
aasg2
F0.0
ssI236
(dp2689
g1
F0.0
sg7
(lp2690
(lp2691
S'finer'
p2692
aa(lp2693
S'finest'
p2694
aasg13
(dp2695
(g2692
g2694
tp2696
F0.0
s(g2694
g2692
tp2697
F0.0
ssg3
F0.0
sg17
(lp2698
(lp2699
g2692
ag2694
aasg2
F0.0
ssI237
(dp2700
g1
F0.0
sg7
(lp2701
(lp2702
S'stricter'
p2703
aa(lp2704
S'strictest'
p2705
aasg13
(dp2706
(g2705
g2703
tp2707
F0.0
s(g2703
g2705
tp2708
F0.0
ssg3
F0.0
sg17
(lp2709
(lp2710
g2703
ag2705
aasg2
F0.0
sss.