(dp0
S'tau'
p1
F0.5014439682284906
sS'|tau|'
p2
F0.5849276206588809
sS'pairwise'
p3
F0.688669950738916
sS'ranking'
p4
(dp5
I0
(dp6
g1
F1.0
sS'gold'
p7
(lp8
(lp9
S'first'
p10
aa(lp11
S'second'
p12
aa(lp13
S'third'
p14
aa(lp15
S'fourth'
p16
aa(lp17
S'fifth'
p18
aa(lp19
S'sixth'
p20
aa(lp21
S'seventh'
p22
aa(lp23
S'eighth'
p24
aasS'raw'
p25
(dp26
(g10
g12
tp27
F1.0
s(g24
g18
tp28
F0.0
s(g24
g20
tp29
F0.0
s(g24
g10
tp30
F0.0
s(g18
g24
tp31
F0.0
s(g20
g12
tp32
F0.0
s(g16
g12
tp33
F0.0
s(g12
g18
tp34
F0.0
s(g22
g20
tp35
F-66.2166992509412
s(g16
g18
tp36
F132.57485870821574
s(g14
g20
tp37
F0.0
s(g14
g12
tp38
F-44.432300925270766
s(g10
g20
tp39
F0.0
s(g14
g10
tp40
F0.0
s(g10
g16
tp41
F0.0
s(g14
g18
tp42
F1.3354879555114143
s(g12
g24
tp43
F0.0
s(g18
g10
tp44
F0.0
s(g22
g18
tp45
F0.0
s(g16
g24
tp46
F0.0
s(g14
g16
tp47
F88.04244285630361
s(g20
g18
tp48
F-14.845249361796059
s(g22
g16
tp49
F0.0
s(g24
g14
tp50
F0.0
s(g18
g22
tp51
F0.0
s(g10
g14
tp52
F0.0
s(g24
g22
tp53
F-65.27102538735159
s(g14
g24
tp54
F0.0
s(g22
g12
tp55
F0.0
s(g16
g22
tp56
F0.0
s(g22
g14
tp57
F0.0
s(g10
g22
tp58
F0.0
s(g12
g16
tp59
F0.0
s(g18
g12
tp60
F0.0
s(g16
g14
tp61
F-88.04244285630361
s(g12
g10
tp62
F-1.0
s(g16
g10
tp63
F0.0
s(g22
g24
tp64
F65.27102538735159
s(g24
g16
tp65
F0.0
s(g10
g24
tp66
F0.0
s(g24
g12
tp67
F0.0
s(g12
g22
tp68
F0.0
s(g20
g24
tp69
F0.0
s(g18
g20
tp70
F14.845249361796059
s(g22
g10
tp71
F0.0
s(g20
g16
tp72
F0.0
s(g18
g16
tp73
F-132.57485870821574
s(g16
g20
tp74
F0.0
s(g12
g14
tp75
F44.432300925270766
s(g12
g20
tp76
F0.0
s(g20
g10
tp77
F0.0
s(g14
g22
tp78
F0.0
s(g10
g18
tp79
F0.0
s(g20
g14
tp80
F0.0
s(g20
g22
tp81
F66.2166992509412
s(g18
g14
tp82
F-1.3354879555114143
ssg3
F1.0
sS'algo'
p83
(lp84
(lp85
S'first'
p86
aa(lp87
S'second'
p88
aa(lp89
S'third'
p90
aa(lp91
S'fourth'
p92
aa(lp93
S'fifth'
p94
aa(lp95
S'sixth'
p96
aa(lp97
S'seventh'
p98
aa(lp99
S'eighth'
p100
aasg2
F1.0
ssI1
(dp101
g1
F1.0
sg7
(lp102
(lp103
S'known'
p104
aa(lp105
S'famous'
p106
aa(lp107
S'legendary'
p108
aasg25
(dp109
(g108
g104
tp110
F0.0
s(g104
g106
tp111
F1.0
s(g108
g106
tp112
F-9.717372109673727
s(g106
g104
tp113
F-1.0
s(g106
g108
tp114
F9.717372109673727
s(g104
g108
tp115
F0.0
ssg3
F1.0
sg83
(lp116
(lp117
S'known'
p118
aa(lp119
S'famous'
p120
aa(lp121
S'legendary'
p122
aasg2
F1.0
ssI2
(dp123
g1
F0.3333333333333333
sg7
(lp124
(lp125
S'dim'
p126
aa(lp127
S'gloomy'
p128
aa(lp129
S'dark'
p130
aa(lp131
S'black'
p132
aasg25
(dp133
(g128
g130
tp134
F0.0
s(g126
g130
tp135
F1.0
s(g132
g126
tp136
F0.0
s(g130
g126
tp137
F-1.0
s(g126
g128
tp138
F45.69597581274876
s(g132
g128
tp139
F0.0
s(g130
g132
tp140
F7.419073114881168
s(g130
g128
tp141
F0.0
s(g128
g126
tp142
F-45.69597581274876
s(g128
g132
tp143
F0.0
s(g126
g132
tp144
F0.0
s(g132
g130
tp145
F-7.419073114881168
ssg3
F0.6666666666666666
sg83
(lp146
(lp147
S'dim'
p148
aa(lp149
S'dark'
p150
aa(lp151
S'black'
p152
aa(lp153
S'gloomy'
p154
aasg2
F0.3333333333333333
ssI3
(dp155
g1
F0.3333333333333333
sg7
(lp156
(lp157
S'close'
p158
aa(lp159
S'near'
p160
aa(lp161
S'intimate'
p162
aasg25
(dp163
(g160
g158
tp164
F0.0
s(g158
g160
tp165
F0.0
s(g162
g160
tp166
F0.0
s(g162
g158
tp167
F-1.0
s(g160
g162
tp168
F0.0
s(g158
g162
tp169
F1.0
ssg3
F0.6666666666666666
sg83
(lp170
(lp171
S'close'
p172
aa(lp173
S'intimate'
p174
aa(lp175
g160
aasg2
F0.3333333333333333
ssI4
(dp176
g1
F0.9128709291752769
sg7
(lp177
(lp178
S'nearby'
p179
aS'near'
p180
aa(lp181
S'close'
p182
aa(lp183
S'adjacent'
p184
aasg25
(dp185
(g184
g182
tp186
F-46.86649289281224
s(g180
g184
tp187
F19.87288336536312
s(g179
g180
tp188
F0.0
s(g180
g182
tp189
F0.0
s(g182
g179
tp190
F-1.0
s(g182
g180
tp191
F0.0
s(g184
g179
tp192
F0.0
s(g179
g184
tp193
F0.0
s(g184
g180
tp194
F-19.87288336536312
s(g179
g182
tp195
F1.0
s(g180
g179
tp196
F0.0
s(g182
g184
tp197
F46.86649289281224
ssg3
F0.8333333333333334
sg83
(lp198
(lp199
S'nearby'
p200
aa(lp201
S'near'
p202
aa(lp203
S'close'
p204
aa(lp205
S'adjacent'
p206
aasg2
F0.9128709291752769
ssI5
(dp207
g1
F-0.18257418583505536
sg7
(lp208
(lp209
S'sufficient'
p210
aa(lp211
S'good'
p212
aS'wide'
p213
aa(lp214
S'full'
p215
aasg25
(dp216
(g213
g212
tp217
F-3.8724639439292785
s(g212
g215
tp218
F1.0
s(g210
g212
tp219
F-79.69502616385805
s(g212
g210
tp220
F79.69502616385805
s(g212
g213
tp221
F3.8724639439292785
s(g215
g213
tp222
F0.0
s(g213
g215
tp223
F0.0
s(g210
g213
tp224
F0.0
s(g213
g210
tp225
F0.0
s(g210
g215
tp226
F0.0
s(g215
g210
tp227
F0.0
s(g215
g212
tp228
F-1.0
ssg3
F0.3333333333333333
sg83
(lp229
(lp230
S'good'
p231
aa(lp232
S'full'
p233
aa(lp234
S'sufficient'
p235
aa(lp236
S'wide'
p237
aasg2
F0.18257418583505536
ssI6
(dp238
g1
F0.3333333333333333
sg7
(lp239
(lp240
S'real'
p241
aa(lp242
S'solemn'
p243
aa(lp244
S'serious'
p245
aa(lp246
S'grave'
p247
aasg25
(dp248
(g243
g245
tp249
F-253.53972329891383
s(g245
g247
tp250
F6.430333537521718
s(g247
g241
tp251
F0.0
s(g241
g245
tp252
F1.0
s(g243
g241
tp253
F0.0
s(g247
g243
tp254
F0.0
s(g243
g247
tp255
F0.0
s(g245
g241
tp256
F-1.0
s(g241
g247
tp257
F0.0
s(g245
g243
tp258
F253.53972329891383
s(g241
g243
tp259
F0.0
s(g247
g245
tp260
F-6.430333537521718
ssg3
F0.6666666666666666
sg83
(lp261
(lp262
S'real'
p263
aa(lp264
S'serious'
p265
aa(lp266
S'grave'
p267
aa(lp268
S'solemn'
p269
aasg2
F0.3333333333333333
ssI7
(dp270
g1
F0.21483446221182986
sg7
(lp271
(lp272
S'interesting'
p273
aa(lp274
S'intriguing'
p275
aa(lp276
S'amusing'
p277
aS'entertaining'
p278
aa(lp279
S'fascinating'
p280
aS'exciting'
p281
aasg25
(dp282
(g277
g278
tp283
F-6.790273329486292
s(g277
g281
tp284
F0.0
s(g277
g273
tp285
F-7.086325634009264
s(g278
g281
tp286
F2.0180026499704957
s(g281
g273
tp287
F-2.8065632193091736
s(g275
g280
tp288
F0.0
s(g275
g273
tp289
F-1.0
s(g281
g277
tp290
F0.0
s(g273
g275
tp291
F1.0
s(g273
g277
tp292
F7.086325634009264
s(g280
g275
tp293
F0.0
s(g277
g280
tp294
F0.0
s(g273
g278
tp295
F4.540993748641206
s(g278
g277
tp296
F6.790273329486292
s(g273
g281
tp297
F2.8065632193091736
s(g277
g275
tp298
F0.0
s(g281
g278
tp299
F-2.0180026499704957
s(g278
g273
tp300
F-4.540993748641206
s(g278
g275
tp301
F0.0
s(g280
g281
tp302
F0.0
s(g281
g280
tp303
F0.0
s(g275
g281
tp304
F0.0
s(g275
g278
tp305
F0.0
s(g280
g273
tp306
F-6.197345744022504
s(g280
g278
tp307
F0.0
s(g275
g277
tp308
F0.0
s(g280
g277
tp309
F0.0
s(g281
g275
tp310
F0.0
s(g278
g280
tp311
F0.0
s(g273
g280
tp312
F6.197345744022504
ssg3
F0.5333333333333333
sg83
(lp313
(lp314
S'interesting'
p315
aa(lp316
S'entertaining'
p317
aa(lp318
S'exciting'
p319
aa(lp320
S'amusing'
p321
aa(lp322
S'fascinating'
p323
aa(lp324
S'intriguing'
p325
aasg2
F0.21483446221182986
ssI8
(dp326
g1
F0.5477225575051661
sg7
(lp327
(lp328
S'far'
p329
aa(lp330
S'further'
p331
aS'farther'
p332
aa(lp333
S'removed'
p334
aasg25
(dp335
(g329
g331
tp336
F1.0
s(g332
g331
tp337
F0.0
s(g334
g332
tp338
F0.0
s(g332
g334
tp339
F0.0
s(g334
g331
tp340
F0.0
s(g329
g332
tp341
F32.45581195459503
s(g332
g329
tp342
F-32.45581195459503
s(g331
g334
tp343
F0.0
s(g334
g329
tp344
F0.0
s(g331
g332
tp345
F0.0
s(g329
g334
tp346
F0.0
s(g331
g329
tp347
F-1.0
ssg3
F0.6666666666666666
sg83
(lp348
(lp349
S'far'
p350
aa(lp351
S'farther'
p352
aa(lp353
g334
aa(lp354
S'further'
p355
aasg2
F0.5477225575051661
ssI9
(dp356
g1
F0.23570226039551587
sg7
(lp357
(lp358
S'acceptable'
p359
aS'okay'
p360
aS'alright'
p361
aa(lp362
S'right'
p363
aasg25
(dp364
(g363
g361
tp365
F-82.80526810944652
s(g360
g359
tp366
F0.0
s(g359
g360
tp367
F0.0
s(g363
g360
tp368
F2.3659045769222726
s(g363
g359
tp369
F-1.0
s(g361
g360
tp370
F0.0
s(g359
g361
tp371
F0.0
s(g361
g363
tp372
F82.80526810944652
s(g360
g363
tp373
F-2.3659045769222726
s(g360
g361
tp374
F0.0
s(g359
g363
tp375
F1.0
s(g361
g359
tp376
F0.0
ssg3
F0.3333333333333333
sg83
(lp377
(lp378
S'alright'
p379
aa(lp380
S'acceptable'
p381
aa(lp382
S'right'
p383
aa(lp384
S'okay'
p385
aasg2
F0.23570226039551587
ssI10
(dp386
g1
F1.0
sg7
(lp387
(lp388
S'cracked'
p389
aa(lp390
S'broken'
p391
aa(lp392
S'crushed'
p393
aasg25
(dp394
(g393
g389
tp395
F0.0
s(g393
g391
tp396
F-1.0
s(g389
g391
tp397
F4.374413084544408
s(g391
g389
tp398
F-4.374413084544408
s(g391
g393
tp399
F1.0
s(g389
g393
tp400
F0.0
ssg3
F1.0
sg83
(lp401
(lp402
S'cracked'
p403
aa(lp404
S'broken'
p405
aa(lp406
S'crushed'
p407
aasg2
F1.0
ssI11
(dp408
g1
F0.0
sg7
(lp409
(lp410
S'full'
p411
aa(lp412
S'stuffed'
p413
aa(lp414
S'overloaded'
p415
aa(lp416
S'overflowing'
p417
aasg25
(dp418
(g413
g411
tp419
F-1.0
s(g411
g413
tp420
F1.0
s(g415
g411
tp421
F-4.0693597688347625
s(g417
g415
tp422
F0.0
s(g411
g415
tp423
F4.0693597688347625
s(g415
g413
tp424
F0.0
s(g411
g417
tp425
F1.1097038997259139
s(g417
g413
tp426
F0.0
s(g415
g417
tp427
F0.0
s(g413
g415
tp428
F0.0
s(g417
g411
tp429
F-1.1097038997259139
s(g413
g417
tp430
F0.0
ssg3
F0.5
sg83
(lp431
(lp432
S'full'
p433
aa(lp434
S'overflowing'
p435
aa(lp436
S'overloaded'
p437
aa(lp438
S'stuffed'
p439
aasg2
F0.0
ssI12
(dp440
g1
F0.18257418583505536
sg7
(lp441
(lp442
S'flavorful'
p443
aa(lp444
S'zesty'
p445
aa(lp446
S'hot'
p447
aS'spicy'
p448
aasg25
(dp449
(g447
g448
tp450
F-1.0
s(g447
g443
tp451
F-1.7384419068077297
s(g443
g445
tp452
F0.0
s(g445
g448
tp453
F255.2059353709782
s(g447
g445
tp454
F-6.4547734433549
s(g443
g447
tp455
F1.7384419068077297
s(g448
g447
tp456
F1.0
s(g448
g443
tp457
F0.0
s(g448
g445
tp458
F-255.2059353709782
s(g445
g443
tp459
F0.0
s(g443
g448
tp460
F0.0
s(g445
g447
tp461
F6.4547734433549
ssg3
F0.5
sg83
(lp462
(lp463
S'zesty'
p464
aa(lp465
S'spicy'
p466
aa(lp467
S'flavorful'
p468
aa(lp469
S'hot'
p470
aasg2
F0.18257418583505536
ssI13
(dp471
g1
F1.0
sg7
(lp472
(lp473
S'unstable'
p474
aa(lp475
S'crazy'
p476
aa(lp477
S'insane'
p478
aasg25
(dp479
(g478
g474
tp480
F0.0
s(g474
g476
tp481
F1.0
s(g476
g474
tp482
F-1.0
s(g474
g478
tp483
F0.0
s(g476
g478
tp484
F17.45627689048686
s(g478
g476
tp485
F-17.45627689048686
ssg3
F1.0
sg83
(lp486
(lp487
S'unstable'
p488
aa(lp489
S'crazy'
p490
aa(lp491
S'insane'
p492
aasg2
F1.0
ssI14
(dp493
g1
F0.3333333333333333
sg7
(lp494
(lp495
S'good'
p496
aa(lp497
S'real'
p498
aa(lp499
S'authentic'
p500
aasg25
(dp501
(g496
g498
tp502
F1.0
s(g500
g496
tp503
F-28.308873948265205
s(g496
g500
tp504
F28.308873948265205
s(g500
g498
tp505
F0.0
s(g498
g496
tp506
F-1.0
s(g498
g500
tp507
F0.0
ssg3
F0.6666666666666666
sg83
(lp508
(lp509
S'good'
p510
aa(lp511
S'authentic'
p512
aa(lp513
S'real'
p514
aasg2
F0.3333333333333333
ssI15
(dp515
g1
F0.8164965809277261
sg7
(lp516
(lp517
S'clean'
p518
aa(lp519
S'spotless'
p520
aS'immaculate'
p521
aasg25
(dp522
(g521
g518
tp523
F-1.0
s(g518
g520
tp524
F3.7205724039162185
s(g520
g518
tp525
F-3.7205724039162185
s(g521
g520
tp526
F0.0
s(g520
g521
tp527
F0.0
s(g518
g521
tp528
F1.0
ssg3
F0.6666666666666666
sg83
(lp529
(lp530
S'clean'
p531
aa(lp532
S'immaculate'
p533
aa(lp534
S'spotless'
p535
aasg2
F0.8164965809277261
ssI16
(dp536
g1
F-0.6666666666666666
sg7
(lp537
(lp538
S'possible'
p539
aa(lp540
S'realistic'
p541
aa(lp542
S'feasible'
p543
aa(lp544
S'practical'
p545
aasg25
(dp546
(g545
g541
tp547
F0.0
s(g543
g539
tp548
F21.626472256126778
s(g545
g539
tp549
F1.1116311748301453
s(g539
g543
tp550
F-21.626472256126778
s(g539
g545
tp551
F-1.1116311748301453
s(g539
g541
tp552
F1.0
s(g545
g543
tp553
F46.046615860722525
s(g541
g539
tp554
F-1.0
s(g541
g545
tp555
F0.0
s(g543
g541
tp556
F0.0
s(g543
g545
tp557
F-46.046615860722525
s(g541
g543
tp558
F0.0
ssg3
F0.16666666666666666
sg83
(lp559
(lp560
S'practical'
p561
aa(lp562
S'feasible'
p563
aa(lp564
S'possible'
p565
aa(lp566
S'realistic'
p567
aasg2
F0.6666666666666666
ssI17
(dp568
g1
F0.5477225575051661
sg7
(lp569
(lp570
S'sick'
p571
aS'ill'
p572
aa(lp573
S'impaired'
p574
aa(lp575
S'disabled'
p576
aasg25
(dp577
(g574
g572
tp578
F0.0
s(g576
g574
tp579
F-1.3844327050174012
s(g571
g574
tp580
F0.0
s(g572
g571
tp581
F1.0
s(g576
g572
tp582
F-2.5138891117367548
s(g572
g576
tp583
F2.5138891117367548
s(g571
g576
tp584
F0.0
s(g572
g574
tp585
F0.0
s(g576
g571
tp586
F0.0
s(g574
g576
tp587
F1.3844327050174012
s(g571
g572
tp588
F-1.0
s(g574
g571
tp589
F0.0
ssg3
F0.6666666666666666
sg83
(lp590
(lp591
S'ill'
p592
aa(lp593
S'impaired'
p594
aa(lp595
S'sick'
p596
aa(lp597
S'disabled'
p598
aasg2
F0.5477225575051661
ssI18
(dp599
g1
F0.6
sg7
(lp600
(lp601
S'uncommon'
p602
aa(lp603
S'unusual'
p604
aa(lp605
S'rare'
p606
aa(lp607
S'extraordinary'
p608
aa(lp609
S'exceptional'
p610
aasg25
(dp611
(g604
g610
tp612
F0.0
s(g610
g606
tp613
F-1.0
s(g602
g608
tp614
F0.0
s(g604
g602
tp615
F6.493049078394488
s(g606
g608
tp616
F0.0
s(g608
g610
tp617
F-1.1953471066232317
s(g602
g606
tp618
F107.04482885971579
s(g608
g602
tp619
F0.0
s(g602
g610
tp620
F0.0
s(g606
g602
tp621
F-107.04482885971579
s(g608
g604
tp622
F0.0
s(g610
g604
tp623
F0.0
s(g608
g606
tp624
F0.0
s(g610
g608
tp625
F1.1953471066232317
s(g610
g602
tp626
F0.0
s(g606
g604
tp627
F-1.0588751045345592
s(g602
g604
tp628
F-6.493049078394488
s(g606
g610
tp629
F1.0
s(g604
g606
tp630
F1.0588751045345592
s(g604
g608
tp631
F0.0
ssg3
F0.8
sg83
(lp632
(lp633
S'unusual'
p634
aa(lp635
S'uncommon'
p636
aa(lp637
S'rare'
p638
aa(lp639
S'exceptional'
p640
aa(lp641
S'extraordinary'
p642
aasg2
F0.6
ssI19
(dp643
g1
F0.3333333333333333
sg7
(lp644
(lp645
S'impractical'
p646
aa(lp647
S'unrealistic'
p648
aa(lp649
S'impossible'
p650
aasg25
(dp651
(g646
g648
tp652
F0.0
s(g650
g646
tp653
F-40.245898919839846
s(g648
g646
tp654
F0.0
s(g646
g650
tp655
F40.245898919839846
s(g648
g650
tp656
F1.0
s(g650
g648
tp657
F-1.0
ssg3
F0.6666666666666666
sg83
(lp658
(lp659
S'unrealistic'
p660
aa(lp661
S'impractical'
p662
aa(lp663
S'impossible'
p664
aasg2
F0.3333333333333333
ssI20
(dp665
g1
F1.0
sg7
(lp666
(lp667
S'transnational'
p668
aa(lp669
S'international'
p670
aa(lp671
S'global'
p672
aasg25
(dp673
(g668
g672
tp674
F1.9734879732618515
s(g668
g670
tp675
F0.0
s(g670
g668
tp676
F0.0
s(g670
g672
tp677
F1.0
s(g672
g670
tp678
F-1.0
s(g672
g668
tp679
F-1.9734879732618515
ssg3
F1.0
sg83
(lp680
(lp681
S'transnational'
p682
aa(lp683
S'international'
p684
aa(lp685
S'global'
p686
aasg2
F1.0
ssI21
(dp687
g1
F1.0
sg7
(lp688
(lp689
S'concerned'
p690
aa(lp691
S'preoccupied'
p692
aa(lp693
S'obsessed'
p694
aasg25
(dp695
(g692
g690
tp696
F-14.71421446017981
s(g690
g694
tp697
F1.0
s(g690
g692
tp698
F14.71421446017981
s(g694
g692
tp699
F-54.17983068434218
s(g694
g690
tp700
F-1.0
s(g692
g694
tp701
F54.17983068434218
ssg3
F1.0
sg83
(lp702
(lp703
S'concerned'
p704
aa(lp705
S'preoccupied'
p706
aa(lp707
S'obsessed'
p708
aasg2
F1.0
ssI22
(dp709
g1
F0.3333333333333333
sg7
(lp710
(lp711
S'interesting'
p712
aa(lp713
S'moving'
p714
aa(lp715
S'exciting'
p716
aa(lp717
S'thrilling'
p718
aasg25
(dp719
(g718
g712
tp720
F0.0
s(g712
g716
tp721
F32.90150682342415
s(g716
g714
tp722
F0.0
s(g712
g714
tp723
F1.0
s(g718
g714
tp724
F0.0
s(g716
g712
tp725
F-32.90150682342415
s(g718
g716
tp726
F-46.57080453360955
s(g714
g712
tp727
F-1.0
s(g712
g718
tp728
F0.0
s(g716
g718
tp729
F46.57080453360955
s(g714
g718
tp730
F0.0
s(g714
g716
tp731
F0.0
ssg3
F0.6666666666666666
sg83
(lp732
(lp733
S'interesting'
p734
aa(lp735
S'exciting'
p736
aa(lp737
S'thrilling'
p738
aa(lp739
S'moving'
p740
aasg2
F0.3333333333333333
ssI23
(dp741
g1
F-0.3333333333333333
sg7
(lp742
(lp743
S'low'
p744
aa(lp745
S'subdued'
p746
aa(lp747
S'quiet'
p748
aasg25
(dp749
(g746
g748
tp750
F-1.0
s(g748
g746
tp751
F1.0
s(g746
g744
tp752
F0.0
s(g744
g748
tp753
F0.0
s(g744
g746
tp754
F0.0
s(g748
g744
tp755
F0.0
ssg3
F0.3333333333333333
sg83
(lp756
(lp757
S'quiet'
p758
aa(lp759
g744
aa(lp760
S'subdued'
p761
aasg2
F0.3333333333333333
ssI24
(dp762
g1
F0.3333333333333333
sg7
(lp763
(lp764
S'sweet'
p765
aa(lp766
S'sugary'
p767
aa(lp768
S'syrupy'
p769
aasg25
(dp770
(g765
g767
tp771
F1.0
s(g765
g769
tp772
F4.187330130851291
s(g769
g767
tp773
F0.0
s(g769
g765
tp774
F-4.187330130851291
s(g767
g765
tp775
F-1.0
s(g767
g769
tp776
F0.0
ssg3
F0.6666666666666666
sg83
(lp777
(lp778
S'sweet'
p779
aa(lp780
S'syrupy'
p781
aa(lp782
S'sugary'
p783
aasg2
F0.3333333333333333
ssI25
(dp784
g1
F1.0
sg7
(lp785
(lp786
S'strong'
p787
aa(lp788
S'intense'
p789
aa(lp790
S'terrible'
p791
aa(lp792
S'overwhelming'
p793
aa(lp794
S'violent'
p795
aasg25
(dp796
(g791
g787
tp797
F0.0
s(g795
g791
tp798
F0.0
s(g789
g795
tp799
F2.3744657694943268
s(g787
g793
tp800
F13.364467650186638
s(g795
g787
tp801
F-1.0
s(g787
g795
tp802
F1.0
s(g791
g793
tp803
F0.0
s(g787
g791
tp804
F0.0
s(g793
g791
tp805
F0.0
s(g795
g789
tp806
F-2.3744657694943268
s(g791
g795
tp807
F0.0
s(g789
g791
tp808
F0.0
s(g793
g787
tp809
F-13.364467650186638
s(g789
g793
tp810
F3.787116004754052
s(g795
g793
tp811
F0.0
s(g791
g789
tp812
F0.0
s(g787
g789
tp813
F0.0
s(g793
g789
tp814
F-3.787116004754052
s(g793
g795
tp815
F0.0
s(g789
g787
tp816
F0.0
ssg3
F1.0
sg83
(lp817
(lp818
S'strong'
p819
aa(lp820
S'intense'
p821
aa(lp822
g791
aa(lp823
S'overwhelming'
p824
aa(lp825
S'violent'
p826
aasg2
F1.0
ssI26
(dp827
g1
F0.8164965809277261
sg7
(lp828
(lp829
S'bleak'
p830
aS'desperate'
p831
aa(lp832
S'hopeless'
p833
aasg25
(dp834
(g830
g833
tp835
F7.339071833899526
s(g833
g831
tp836
F-1.0
s(g830
g831
tp837
F0.0
s(g833
g830
tp838
F-7.339071833899526
s(g831
g833
tp839
F1.0
s(g831
g830
tp840
F0.0
ssg3
F0.6666666666666666
sg83
(lp841
(lp842
S'desperate'
p843
aa(lp844
S'bleak'
p845
aa(lp846
S'hopeless'
p847
aasg2
F0.8164965809277261
ssI27
(dp848
g1
F1.0
sg7
(lp849
(lp850
S'unfortunate'
p851
aa(lp852
S'disastrous'
p853
aa(lp854
S'fatal'
p855
aasg25
(dp856
(g851
g855
tp857
F1.0
s(g853
g855
tp858
F1.1782112354990582
s(g855
g853
tp859
F-1.1782112354990582
s(g851
g853
tp860
F0.0
s(g853
g851
tp861
F0.0
s(g855
g851
tp862
F-1.0
ssg3
F1.0
sg83
(lp863
(lp864
S'unfortunate'
p865
aa(lp866
S'disastrous'
p867
aa(lp868
S'fatal'
p869
aasg2
F1.0
ssI28
(dp870
g1
F1.0
sg7
(lp871
(lp872
S'negligent'
p873
aa(lp874
S'careless'
p875
aa(lp876
S'reckless'
p877
aasg25
(dp878
(g873
g877
tp879
F1.0890138607025412
s(g873
g875
tp880
F0.0
s(g875
g877
tp881
F1.0
s(g877
g873
tp882
F-1.0890138607025412
s(g877
g875
tp883
F-1.0
s(g875
g873
tp884
F0.0
ssg3
F1.0
sg83
(lp885
(lp886
S'negligent'
p887
aa(lp888
S'careless'
p889
aa(lp890
S'reckless'
p891
aasg2
F1.0
ssI29
(dp892
g1
F-0.10540925533894598
sg7
(lp893
(lp894
S'strange'
p895
aS'funny'
p896
aa(lp897
S'unusual'
p898
aa(lp899
S'weird'
p900
aa(lp901
S'eerie'
p902
aasg25
(dp903
(g896
g898
tp904
F0.0
s(g898
g902
tp905
F0.0
s(g898
g895
tp906
F-34.30372274929051
s(g902
g900
tp907
F0.0
s(g900
g896
tp908
F1.6017365448153256
s(g902
g896
tp909
F0.0
s(g896
g900
tp910
F-1.6017365448153256
s(g895
g902
tp911
F16.257253398144844
s(g895
g900
tp912
F27.829148590569588
s(g898
g896
tp913
F0.0
s(g900
g898
tp914
F0.0
s(g902
g895
tp915
F-16.257253398144844
s(g895
g898
tp916
F34.30372274929051
s(g896
g895
tp917
F-1.0
s(g896
g902
tp918
F0.0
s(g900
g902
tp919
F0.0
s(g895
g896
tp920
F1.0
s(g900
g895
tp921
F-27.829148590569588
s(g902
g898
tp922
F0.0
s(g898
g900
tp923
F0.0
ssg3
F0.4
sg83
(lp924
(lp925
S'strange'
p926
aa(lp927
S'weird'
p928
aa(lp929
S'eerie'
p930
aa(lp931
S'unusual'
p932
aa(lp933
S'funny'
p934
aasg2
F0.10540925533894598
ssI30
(dp935
g1
F-0.3333333333333333
sg7
(lp936
(lp937
S'reasonable'
p938
aa(lp939
S'valid'
p940
aa(lp941
S'sound'
p942
aasg25
(dp943
(g942
g938
tp944
F1.0
s(g942
g940
tp945
F-1.692184841269508
s(g938
g940
tp946
F0.0
s(g940
g938
tp947
F0.0
s(g940
g942
tp948
F1.692184841269508
s(g938
g942
tp949
F-1.0
ssg3
F0.3333333333333333
sg83
(lp950
(lp951
S'valid'
p952
aa(lp953
S'sound'
p954
aa(lp955
S'reasonable'
p956
aasg2
F0.3333333333333333
ssI31
(dp957
g1
F0.3333333333333333
sg7
(lp958
(lp959
S'affordable'
p960
aa(lp961
S'inexpensive'
p962
aa(lp963
S'cheap'
p964
aasg25
(dp965
(g964
g960
tp966
F-1.0
s(g960
g964
tp967
F1.0
s(g962
g960
tp968
F0.0
s(g960
g962
tp969
F0.0
s(g964
g962
tp970
F-14.505473290062406
s(g962
g964
tp971
F14.505473290062406
ssg3
F0.6666666666666666
sg83
(lp972
(lp973
S'inexpensive'
p974
aa(lp975
S'affordable'
p976
aa(lp977
S'cheap'
p978
aasg2
F0.3333333333333333
ssI32
(dp979
g1
F-0.3333333333333333
sg7
(lp980
(lp981
S'available'
p982
aa(lp983
S'accessible'
p984
aa(lp985
S'visible'
p986
aasg25
(dp987
(g984
g986
tp988
F-5.276558428328815
s(g982
g984
tp989
F1.0
s(g986
g982
tp990
F0.0
s(g982
g986
tp991
F0.0
s(g984
g982
tp992
F-1.0
s(g986
g984
tp993
F5.276558428328815
ssg3
F0.3333333333333333
sg83
(lp994
(lp995
S'visible'
p996
aa(lp997
S'available'
p998
aa(lp999
S'accessible'
p1000
aasg2
F0.3333333333333333
ssI33
(dp1001
g1
F0.7938841860374447
sg7
(lp1002
(lp1003
S'cool'
p1004
aS'refrigerated'
p1005
aS'chilly'
p1006
aa(lp1007
S'cold'
p1008
aa(lp1009
S'frigid'
p1010
aa(lp1011
S'icy'
p1012
aS'frozen'
p1013
aasg25
(dp1014
(g1008
g1010
tp1015
F3.253640966508682
s(g1004
g1013
tp1016
F1.0
s(g1013
g1005
tp1017
F-38.93400101911296
s(g1013
g1004
tp1018
F-1.0
s(g1006
g1010
tp1019
F0.0
s(g1005
g1013
tp1020
F38.93400101911296
s(g1012
g1013
tp1021
F0.0
s(g1012
g1004
tp1022
F0.0
s(g1010
g1006
tp1023
F0.0
s(g1012
g1008
tp1024
F-2.125151785096198
s(g1005
g1004
tp1025
F0.0
s(g1012
g1006
tp1026
F0.0
s(g1008
g1005
tp1027
F0.0
s(g1004
g1006
tp1028
F1.4835056686236587
s(g1008
g1004
tp1029
F-2.860553379852629
s(g1004
g1005
tp1030
F0.0
s(g1010
g1004
tp1031
F-2.8357876425234503
s(g1013
g1012
tp1032
F0.0
s(g1010
g1008
tp1033
F-3.253640966508682
s(g1010
g1012
tp1034
F0.0
s(g1013
g1008
tp1035
F-2.8161361045478746
s(g1005
g1010
tp1036
F0.0
s(g1008
g1012
tp1037
F2.125151785096198
s(g1006
g1013
tp1038
F0.0
s(g1004
g1012
tp1039
F0.0
s(g1005
g1008
tp1040
F0.0
s(g1004
g1008
tp1041
F2.860553379852629
s(g1008
g1013
tp1042
F2.8161361045478746
s(g1005
g1012
tp1043
F0.0
s(g1010
g1013
tp1044
F0.0
s(g1008
g1006
tp1045
F-1.5502708812381893
s(g1006
g1008
tp1046
F1.5502708812381893
s(g1004
g1010
tp1047
F2.8357876425234503
s(g1012
g1010
tp1048
F0.0
s(g1006
g1012
tp1049
F0.0
s(g1012
g1005
tp1050
F0.0
s(g1010
g1005
tp1051
F0.0
s(g1005
g1006
tp1052
F0.0
s(g1013
g1010
tp1053
F0.0
s(g1006
g1004
tp1054
F-1.4835056686236587
s(g1006
g1005
tp1055
F0.0
s(g1013
g1006
tp1056
F0.0
ssg3
F0.7619047619047619
sg83
(lp1057
(lp1058
S'cool'
p1059
aa(lp1060
S'chilly'
p1061
aa(lp1062
S'cold'
p1063
aa(lp1064
S'refrigerated'
p1065
aa(lp1066
S'frigid'
p1067
aa(lp1068
S'icy'
p1069
aa(lp1070
S'frozen'
p1071
aasg2
F0.7938841860374447
ssI34
(dp1072
g1
F-0.4082482904638631
sg7
(lp1073
(lp1074
S'content'
p1075
aS'satisfied'
p1076
aa(lp1077
S'pleased'
p1078
aS'happy'
p1079
aasg25
(dp1080
(g1079
g1078
tp1081
F0.0
s(g1075
g1079
tp1082
F1.0
s(g1079
g1075
tp1083
F-1.0
s(g1078
g1079
tp1084
F0.0
s(g1075
g1078
tp1085
F-39.469215050593185
s(g1076
g1075
tp1086
F0.0
s(g1079
g1076
tp1087
F1493.3755706596405
s(g1076
g1078
tp1088
F-2184.879161108106
s(g1076
g1079
tp1089
F-1493.3755706596405
s(g1075
g1076
tp1090
F0.0
s(g1078
g1075
tp1091
F39.469215050593185
s(g1078
g1076
tp1092
F2184.879161108106
ssg3
F0.16666666666666666
sg83
(lp1093
(lp1094
S'pleased'
p1095
aa(lp1096
S'content'
p1097
aa(lp1098
S'happy'
p1099
aa(lp1100
S'satisfied'
p1101
aasg2
F0.4082482904638631
ssI35
(dp1102
g1
F0.18257418583505536
sg7
(lp1103
(lp1104
S'misleading'
p1105
aa(lp1106
S'deceptive'
p1107
aS'fraudulent'
p1108
aa(lp1109
S'false'
p1110
aasg25
(dp1111
(g1105
g1108
tp1112
F1.840136876940798
s(g1110
g1107
tp1113
F0.0
s(g1110
g1105
tp1114
F-1.0
s(g1107
g1105
tp1115
F-11.10348735337905
s(g1105
g1107
tp1116
F11.10348735337905
s(g1107
g1110
tp1117
F0.0
s(g1105
g1110
tp1118
F1.0
s(g1108
g1107
tp1119
F0.0
s(g1108
g1110
tp1120
F0.0
s(g1110
g1108
tp1121
F0.0
s(g1108
g1105
tp1122
F-1.840136876940798
s(g1107
g1108
tp1123
F0.0
ssg3
F0.5
sg83
(lp1124
(lp1125
S'misleading'
p1126
aa(lp1127
S'false'
p1128
aa(lp1129
S'fraudulent'
p1130
aa(lp1131
S'deceptive'
p1132
aasg2
F0.18257418583505536
ssI36
(dp1133
g1
F0.7378647873726218
sg7
(lp1134
(lp1135
S'needed'
p1136
aa(lp1137
S'necessary'
p1138
aa(lp1139
S'required'
p1140
aS'essential'
p1141
aa(lp1142
S'indispensable'
p1143
aasg25
(dp1144
(g1138
g1141
tp1145
F11.84833709578381
s(g1138
g1143
tp1146
F50.16829634778803
s(g1140
g1143
tp1147
F0.0
s(g1140
g1136
tp1148
F-1.4174104299094286
s(g1140
g1138
tp1149
F1.3005528415635257
s(g1141
g1143
tp1150
F0.0
s(g1143
g1136
tp1151
F0.0
s(g1141
g1136
tp1152
F0.0
s(g1136
g1143
tp1153
F0.0
s(g1136
g1141
tp1154
F0.0
s(g1136
g1140
tp1155
F1.4174104299094286
s(g1138
g1136
tp1156
F-1.0
s(g1140
g1141
tp1157
F2.5703908681623813
s(g1136
g1138
tp1158
F1.0
s(g1143
g1140
tp1159
F0.0
s(g1141
g1138
tp1160
F-11.84833709578381
s(g1141
g1140
tp1161
F-2.5703908681623813
s(g1143
g1141
tp1162
F0.0
s(g1138
g1140
tp1163
F-1.3005528415635257
s(g1143
g1138
tp1164
F-50.16829634778803
ssg3
F0.8
sg83
(lp1165
(lp1166
S'needed'
p1167
aa(lp1168
S'required'
p1169
aa(lp1170
S'necessary'
p1171
aa(lp1172
S'essential'
p1173
aa(lp1174
S'indispensable'
p1175
aasg2
F0.7378647873726218
ssI37
(dp1176
g1
F0.0
sg7
(lp1177
(lp1178
S'some'
p1179
aa(lp1180
S'many'
p1181
aa(lp1182
S'numerous'
p1183
aa(lp1184
S'galore'
p1185
aasg25
(dp1186
(g1185
g1183
tp1187
F0.0
s(g1183
g1179
tp1188
F0.0
s(g1181
g1185
tp1189
F0.0
s(g1179
g1185
tp1190
F0.0
s(g1183
g1181
tp1191
F0.0
s(g1181
g1183
tp1192
F0.0
s(g1185
g1179
tp1193
F0.0
s(g1183
g1185
tp1194
F0.0
s(g1185
g1181
tp1195
F0.0
s(g1179
g1183
tp1196
F0.0
s(g1179
g1181
tp1197
F1.0
s(g1181
g1179
tp1198
F-1.0
ssg3
F0.5
sg83
(lp1199
(lp1200
S'some'
p1201
aa(lp1202
g1185
aa(lp1203
g1183
aa(lp1204
S'many'
p1205
aasg2
F0.0
ssI38
(dp1206
g1
F0.18257418583505536
sg7
(lp1207
(lp1208
S'quiet'
p1209
aa(lp1210
S'inaudible'
p1211
aS'imperceptible'
p1212
aa(lp1213
S'silent'
p1214
aasg25
(dp1215
(g1211
g1214
tp1216
F0.0
s(g1212
g1214
tp1217
F0.0
s(g1214
g1212
tp1218
F0.0
s(g1211
g1212
tp1219
F0.0
s(g1212
g1209
tp1220
F-14.286489483321043
s(g1209
g1214
tp1221
F1.0
s(g1214
g1209
tp1222
F-1.0
s(g1209
g1211
tp1223
F3.343941647890469
s(g1211
g1209
tp1224
F-3.343941647890469
s(g1214
g1211
tp1225
F0.0
s(g1209
g1212
tp1226
F14.286489483321043
s(g1212
g1211
tp1227
F0.0
ssg3
F0.5
sg83
(lp1228
(lp1229
S'quiet'
p1230
aa(lp1231
S'silent'
p1232
aa(lp1233
S'inaudible'
p1234
aa(lp1235
S'imperceptible'
p1236
aasg2
F0.18257418583505536
ssI39
(dp1237
g1
F0.6666666666666666
sg7
(lp1238
(lp1239
S'wrong'
p1240
aa(lp1241
S'immoral'
p1242
aa(lp1243
S'sinful'
p1244
aa(lp1245
S'evil'
p1246
aasg25
(dp1247
(g1242
g1240
tp1248
F-4.325755359662408
s(g1246
g1240
tp1249
F-1.0
s(g1244
g1246
tp1250
F0.0
s(g1246
g1242
tp1251
F-12.760984015226986
s(g1240
g1246
tp1252
F1.0
s(g1242
g1244
tp1253
F0.0
s(g1244
g1242
tp1254
F0.0
s(g1240
g1242
tp1255
F4.325755359662408
s(g1240
g1244
tp1256
F14.11727378735733
s(g1244
g1240
tp1257
F-14.11727378735733
s(g1246
g1244
tp1258
F0.0
s(g1242
g1246
tp1259
F12.760984015226986
ssg3
F0.8333333333333334
sg83
(lp1260
(lp1261
S'wrong'
p1262
aa(lp1263
S'immoral'
p1264
aa(lp1265
S'evil'
p1266
aa(lp1267
S'sinful'
p1268
aasg2
F0.6666666666666666
ssI40
(dp1269
g1
F0.6190476190476191
sg7
(lp1270
(lp1271
S'lean'
p1272
aa(lp1273
S'slim'
p1274
aa(lp1275
S'thin'
p1276
aa(lp1277
S'skinny'
p1278
aa(lp1279
S'gaunt'
p1280
aa(lp1281
S'emaciated'
p1282
aa(lp1283
S'skeletal'
p1284
aasg25
(dp1285
(g1272
g1276
tp1286
F0.0
s(g1276
g1280
tp1287
F21.645459775132007
s(g1278
g1276
tp1288
F-3.6844653439480815
s(g1272
g1280
tp1289
F0.0
s(g1282
g1284
tp1290
F0.0
s(g1278
g1284
tp1291
F0.0
s(g1276
g1284
tp1292
F1.0
s(g1284
g1274
tp1293
F0.0
s(g1284
g1280
tp1294
F0.0
s(g1282
g1272
tp1295
F0.0
s(g1278
g1282
tp1296
F0.0
s(g1284
g1282
tp1297
F0.0
s(g1274
g1282
tp1298
F0.0
s(g1282
g1280
tp1299
F0.0
s(g1272
g1278
tp1300
F2.9101132280809883
s(g1274
g1284
tp1301
F0.0
s(g1272
g1282
tp1302
F0.0
s(g1274
g1278
tp1303
F9.598429678480583
s(g1280
g1276
tp1304
F-21.645459775132007
s(g1274
g1276
tp1305
F0.0
s(g1278
g1272
tp1306
F-2.9101132280809883
s(g1284
g1272
tp1307
F0.0
s(g1280
g1274
tp1308
F0.0
s(g1278
g1280
tp1309
F0.0
s(g1276
g1278
tp1310
F3.6844653439480815
s(g1272
g1274
tp1311
F0.0
s(g1276
g1274
tp1312
F0.0
s(g1280
g1282
tp1313
F0.0
s(g1280
g1278
tp1314
F0.0
s(g1282
g1276
tp1315
F-25.340360498762458
s(g1276
g1282
tp1316
F25.340360498762458
s(g1280
g1284
tp1317
F0.0
s(g1282
g1278
tp1318
F0.0
s(g1272
g1284
tp1319
F0.0
s(g1284
g1278
tp1320
F0.0
s(g1282
g1274
tp1321
F0.0
s(g1280
g1272
tp1322
F0.0
s(g1278
g1274
tp1323
F-9.598429678480583
s(g1274
g1280
tp1324
F0.0
s(g1284
g1276
tp1325
F-1.0
s(g1276
g1272
tp1326
F0.0
s(g1274
g1272
tp1327
F0.0
ssg3
F0.8095238095238095
sg83
(lp1328
(lp1329
S'thin'
p1330
aa(lp1331
S'slim'
p1332
aa(lp1333
S'lean'
p1334
aa(lp1335
S'skinny'
p1336
aa(lp1337
S'gaunt'
p1338
aa(lp1339
S'skeletal'
p1340
aa(lp1341
S'emaciated'
p1342
aasg2
F0.6190476190476191
ssI41
(dp1343
g1
F1.0
sg7
(lp1344
(lp1345
S'statewide'
p1346
aa(lp1347
S'nationwide'
p1348
aa(lp1349
S'worldwide'
p1350
aasg25
(dp1351
(g1348
g1346
tp1352
F-1.0
s(g1346
g1348
tp1353
F1.0
s(g1348
g1350
tp1354
F4.28883128991468
s(g1350
g1346
tp1355
F0.0
s(g1350
g1348
tp1356
F-4.28883128991468
s(g1346
g1350
tp1357
F0.0
ssg3
F1.0
sg83
(lp1358
(lp1359
S'statewide'
p1360
aa(lp1361
S'nationwide'
p1362
aa(lp1363
S'worldwide'
p1364
aasg2
F1.0
ssI42
(dp1365
g1
F0.31622776601683794
sg7
(lp1366
(lp1367
S'warm'
p1368
aa(lp1369
S'hot'
p1370
aa(lp1371
S'overheated'
p1372
aa(lp1373
S'stifling'
p1374
aS'sultry'
p1375
aasg25
(dp1376
(g1375
g1368
tp1377
F-1.5729380827443076
s(g1368
g1370
tp1378
F1.0
s(g1374
g1368
tp1379
F-1.5461331620265044
s(g1374
g1375
tp1380
F0.0
s(g1374
g1370
tp1381
F0.0
s(g1372
g1374
tp1382
F0.0
s(g1368
g1375
tp1383
F1.5729380827443076
s(g1370
g1374
tp1384
F0.0
s(g1372
g1368
tp1385
F-8.81172904535477
s(g1370
g1372
tp1386
F0.0
s(g1374
g1372
tp1387
F0.0
s(g1368
g1374
tp1388
F1.5461331620265044
s(g1370
g1375
tp1389
F0.0
s(g1370
g1368
tp1390
F-1.0
s(g1372
g1375
tp1391
F0.0
s(g1375
g1370
tp1392
F0.0
s(g1368
g1372
tp1393
F8.81172904535477
s(g1372
g1370
tp1394
F0.0
s(g1375
g1374
tp1395
F0.0
s(g1375
g1372
tp1396
F0.0
ssg3
F0.6
sg83
(lp1397
(lp1398
S'warm'
p1399
aa(lp1400
S'sultry'
p1401
aa(lp1402
S'overheated'
p1403
aa(lp1404
S'hot'
p1405
aa(lp1406
S'stifling'
p1407
aasg2
F0.31622776601683794
ssI43
(dp1408
g1
F0.5976143046671968
sg7
(lp1409
(lp1410
S'easy'
p1411
aS'simple'
p1412
aS'smooth'
p1413
aa(lp1414
S'painless'
p1415
aa(lp1416
S'effortless'
p1417
aasg25
(dp1418
(g1417
g1413
tp1419
F-8.562287989848395
s(g1411
g1417
tp1420
F2.469394331306939
s(g1412
g1417
tp1421
F0.0
s(g1412
g1413
tp1422
F0.0
s(g1415
g1412
tp1423
F-1.0
s(g1411
g1413
tp1424
F0.0
s(g1412
g1415
tp1425
F1.0
s(g1417
g1412
tp1426
F0.0
s(g1415
g1411
tp1427
F-1.9590628478375371
s(g1417
g1415
tp1428
F0.0
s(g1415
g1417
tp1429
F0.0
s(g1411
g1412
tp1430
F-1.5843576837977245
s(g1413
g1415
tp1431
F0.0
s(g1412
g1411
tp1432
F1.5843576837977245
s(g1411
g1415
tp1433
F1.9590628478375371
s(g1413
g1417
tp1434
F8.562287989848395
s(g1417
g1411
tp1435
F-2.469394331306939
s(g1415
g1413
tp1436
F0.0
s(g1413
g1411
tp1437
F0.0
s(g1413
g1412
tp1438
F0.0
ssg3
F0.6
sg83
(lp1439
(lp1440
S'simple'
p1441
aa(lp1442
S'smooth'
p1443
aa(lp1444
S'easy'
p1445
aa(lp1446
S'effortless'
p1447
aa(lp1448
S'painless'
p1449
aasg2
F0.5976143046671968
ssI44
(dp1450
g1
F1.0
sg7
(lp1451
(lp1452
S'plain'
p1453
aa(lp1454
S'unattractive'
p1455
aa(lp1456
S'ugly'
p1457
aasg25
(dp1458
(g1457
g1453
tp1459
F-1.0606195783940524
s(g1455
g1457
tp1460
F0.0
s(g1453
g1455
tp1461
F1.0
s(g1455
g1453
tp1462
F-1.0
s(g1457
g1455
tp1463
F0.0
s(g1453
g1457
tp1464
F1.0606195783940524
ssg3
F1.0
sg83
(lp1465
(lp1466
S'plain'
p1467
aa(lp1468
S'unattractive'
p1469
aa(lp1470
S'ugly'
p1471
aasg2
F1.0
ssI45
(dp1472
g1
F1.0
sg7
(lp1473
(lp1474
S'like'
p1475
aa(lp1476
S'equal'
p1477
aa(lp1478
S'same'
p1479
aasg25
(dp1480
(g1479
g1475
tp1481
F-1.0
s(g1477
g1479
tp1482
F9.17370446545794
s(g1475
g1477
tp1483
F0.0
s(g1479
g1477
tp1484
F-9.17370446545794
s(g1477
g1475
tp1485
F0.0
s(g1475
g1479
tp1486
F1.0
ssg3
F1.0
sg83
(lp1487
(lp1488
S'like'
p1489
aa(lp1490
S'equal'
p1491
aa(lp1492
S'same'
p1493
aasg2
F1.0
ssI46
(dp1494
g1
F0.5477225575051661
sg7
(lp1495
(lp1496
S'broad'
p1497
aS'widespread'
p1498
aa(lp1499
S'general'
p1500
aa(lp1501
S'universal'
p1502
aasg25
(dp1503
(g1497
g1498
tp1504
F0.0
s(g1498
g1500
tp1505
F0.0
s(g1497
g1500
tp1506
F0.0
s(g1500
g1497
tp1507
F0.0
s(g1498
g1497
tp1508
F0.0
s(g1497
g1502
tp1509
F1.0
s(g1502
g1497
tp1510
F-1.0
s(g1500
g1502
tp1511
F1.2699824873643144
s(g1498
g1502
tp1512
F36.917091275522
s(g1502
g1500
tp1513
F-1.2699824873643144
s(g1502
g1498
tp1514
F-36.917091275522
s(g1500
g1498
tp1515
F0.0
ssg3
F0.6666666666666666
sg83
(lp1516
(lp1517
S'widespread'
p1518
aa(lp1519
S'general'
p1520
aa(lp1521
S'broad'
p1522
aa(lp1523
S'universal'
p1524
aasg2
F0.5477225575051661
ssI47
(dp1525
g1
F0.5477225575051661
sg7
(lp1526
(lp1527
S'cheap'
p1528
aS'mediocre'
p1529
aa(lp1530
S'bad'
p1531
aa(lp1532
S'worst'
p1533
aasg25
(dp1534
(g1533
g1529
tp1535
F0.0
s(g1528
g1533
tp1536
F0.0
s(g1529
g1533
tp1537
F0.0
s(g1528
g1529
tp1538
F0.0
s(g1531
g1529
tp1539
F44.00114542956059
s(g1531
g1528
tp1540
F-1.0
s(g1528
g1531
tp1541
F1.0
s(g1531
g1533
tp1542
F2.828453462131107
s(g1533
g1528
tp1543
F0.0
s(g1533
g1531
tp1544
F-2.828453462131107
s(g1529
g1528
tp1545
F0.0
s(g1529
g1531
tp1546
F-44.00114542956059
ssg3
F0.6666666666666666
sg83
(lp1547
(lp1548
S'cheap'
p1549
aa(lp1550
S'bad'
p1551
aa(lp1552
S'mediocre'
p1553
aa(lp1554
S'worst'
p1555
aasg2
F0.5477225575051661
ssI48
(dp1556
g1
F-0.08606629658238704
sg7
(lp1557
(lp1558
S'handsome'
p1559
aS'lovely'
p1560
aS'gorgeous'
p1561
aa(lp1562
S'beautiful'
p1563
aS'pretty'
p1564
aS'attractive'
p1565
aasg25
(dp1566
(g1560
g1563
tp1567
F0.0
s(g1560
g1561
tp1568
F5.153526384093426
s(g1563
g1565
tp1569
F-1.9647209796858602
s(g1561
g1564
tp1570
F-1.2686952003074128
s(g1559
g1560
tp1571
F0.0
s(g1565
g1559
tp1572
F0.0
s(g1561
g1563
tp1573
F0.0
s(g1564
g1561
tp1574
F1.2686952003074128
s(g1560
g1564
tp1575
F0.0
s(g1563
g1564
tp1576
F-1.390503987917865
s(g1565
g1560
tp1577
F0.0
s(g1564
g1560
tp1578
F0.0
s(g1561
g1565
tp1579
F0.0
s(g1559
g1561
tp1580
F0.0
s(g1563
g1559
tp1581
F0.0
s(g1560
g1559
tp1582
F0.0
s(g1563
g1561
tp1583
F0.0
s(g1560
g1565
tp1584
F0.0
s(g1565
g1561
tp1585
F0.0
s(g1559
g1564
tp1586
F-1.0
s(g1563
g1560
tp1587
F0.0
s(g1561
g1559
tp1588
F0.0
s(g1565
g1563
tp1589
F1.9647209796858602
s(g1565
g1564
tp1590
F0.0
s(g1559
g1563
tp1591
F0.0
s(g1564
g1565
tp1592
F0.0
s(g1561
g1560
tp1593
F-5.153526384093426
s(g1559
g1565
tp1594
F0.0
s(g1564
g1559
tp1595
F1.0
s(g1564
g1563
tp1596
F1.390503987917865
ssg3
F0.26666666666666666
sg83
(lp1597
(lp1598
S'pretty'
p1599
aa(lp1600
S'lovely'
p1601
aa(lp1602
S'attractive'
p1603
aa(lp1604
S'handsome'
p1605
aa(lp1606
S'gorgeous'
p1607
aa(lp1608
S'beautiful'
p1609
aasg2
F0.08606629658238704
ssI49
(dp1610
g1
F1.0
sg7
(lp1611
(lp1612
S'thick'
p1613
aa(lp1614
S'dense'
p1615
aa(lp1616
S'impenetrable'
p1617
aasg25
(dp1618
(g1617
g1615
tp1619
F-7.703793346574309
s(g1617
g1613
tp1620
F-1.0
s(g1615
g1617
tp1621
F7.703793346574309
s(g1615
g1613
tp1622
F0.0
s(g1613
g1615
tp1623
F0.0
s(g1613
g1617
tp1624
F1.0
ssg3
F1.0
sg83
(lp1625
(lp1626
S'thick'
p1627
aa(lp1628
S'dense'
p1629
aa(lp1630
S'impenetrable'
p1631
aasg2
F1.0
ssI50
(dp1632
g1
F0.3333333333333333
sg7
(lp1633
(lp1634
S'soft'
p1635
aa(lp1636
S'quiet'
p1637
aa(lp1638
S'inaudible'
p1639
aa(lp1640
S'silent'
p1641
aasg25
(dp1642
(g1635
g1641
tp1643
F0.0
s(g1639
g1641
tp1644
F0.0
s(g1639
g1635
tp1645
F-2.685925676648229
s(g1635
g1639
tp1646
F2.685925676648229
s(g1641
g1637
tp1647
F-1.0
s(g1637
g1639
tp1648
F3.343941647890469
s(g1637
g1641
tp1649
F1.0
s(g1639
g1637
tp1650
F-3.343941647890469
s(g1637
g1635
tp1651
F0.0
s(g1635
g1637
tp1652
F0.0
s(g1641
g1635
tp1653
F0.0
s(g1641
g1639
tp1654
F0.0
ssg3
F0.6666666666666666
sg83
(lp1655
(lp1656
S'quiet'
p1657
aa(lp1658
S'soft'
p1659
aa(lp1660
S'silent'
p1661
aa(lp1662
S'inaudible'
p1663
aasg2
F0.3333333333333333
ssI51
(dp1664
g1
F-0.18257418583505536
sg7
(lp1665
(lp1666
S'cool'
p1667
aS'chilly'
p1668
aa(lp1669
S'unfriendly'
p1670
aa(lp1671
S'hostile'
p1672
aasg25
(dp1673
(g1668
g1670
tp1674
F0.0
s(g1668
g1672
tp1675
F0.0
s(g1672
g1667
tp1676
F-1.0
s(g1667
g1670
tp1677
F0.0
s(g1672
g1668
tp1678
F0.0
s(g1670
g1672
tp1679
F132.14465313154818
s(g1667
g1672
tp1680
F1.0
s(g1672
g1670
tp1681
F-132.14465313154818
s(g1670
g1668
tp1682
F0.0
s(g1668
g1667
tp1683
F-7.197574642653663
s(g1670
g1667
tp1684
F0.0
s(g1667
g1668
tp1685
F7.197574642653663
ssg3
F0.3333333333333333
sg83
(lp1686
(lp1687
S'unfriendly'
p1688
aa(lp1689
S'cool'
p1690
aa(lp1691
S'hostile'
p1692
aa(lp1693
S'chilly'
p1694
aasg2
F0.18257418583505536
ssI52
(dp1695
g1
F0.9486832980505138
sg7
(lp1696
(lp1697
S'sizeable'
p1698
aa(lp1699
S'big'
p1700
aS'large'
p1701
aa(lp1702
S'huge'
p1703
aa(lp1704
S'colossal'
p1705
aasg25
(dp1706
(g1701
g1703
tp1707
F1.0
s(g1705
g1698
tp1708
F0.0
s(g1698
g1703
tp1709
F20.277284192631846
s(g1700
g1703
tp1710
F1.9697661216553053
s(g1703
g1701
tp1711
F-1.0
s(g1701
g1700
tp1712
F0.0
s(g1700
g1705
tp1713
F0.0
s(g1700
g1698
tp1714
F0.0
s(g1705
g1700
tp1715
F0.0
s(g1703
g1705
tp1716
F20.177201738386493
s(g1698
g1705
tp1717
F0.0
s(g1705
g1703
tp1718
F-20.177201738386493
s(g1700
g1701
tp1719
F0.0
s(g1698
g1700
tp1720
F0.0
s(g1703
g1700
tp1721
F-1.9697661216553053
s(g1698
g1701
tp1722
F0.0
s(g1703
g1698
tp1723
F-20.277284192631846
s(g1701
g1705
tp1724
F0.0
s(g1705
g1701
tp1725
F0.0
s(g1701
g1698
tp1726
F0.0
ssg3
F0.9
sg83
(lp1727
(lp1728
S'sizeable'
p1729
aa(lp1730
S'large'
p1731
aa(lp1732
S'big'
p1733
aa(lp1734
S'huge'
p1735
aa(lp1736
S'colossal'
p1737
aasg2
F0.9486832980505138
ssI53
(dp1738
g1
F0.8563488385776753
sg7
(lp1739
(lp1740
S'dual'
p1741
aS'double'
p1742
aS'doubled'
p1743
aa(lp1744
S'triple'
p1745
aS'treble'
p1746
aa(lp1747
S'quadruple'
p1748
aasg25
(dp1749
(g1742
g1746
tp1750
F9.891410639402206
s(g1742
g1748
tp1751
F74.56408885211334
s(g1746
g1745
tp1752
F0.0
s(g1742
g1741
tp1753
F0.0
s(g1745
g1743
tp1754
F-2.15746035129084
s(g1746
g1742
tp1755
F-9.891410639402206
s(g1748
g1745
tp1756
F-1292.5861729117114
s(g1748
g1742
tp1757
F-74.56408885211334
s(g1746
g1743
tp1758
F0.0
s(g1741
g1742
tp1759
F0.0
s(g1741
g1746
tp1760
F0.0
s(g1748
g1746
tp1761
F-68.89581191700388
s(g1743
g1748
tp1762
F0.0
s(g1748
g1741
tp1763
F0.0
s(g1746
g1741
tp1764
F0.0
s(g1742
g1743
tp1765
F0.0
s(g1748
g1743
tp1766
F0.0
s(g1741
g1748
tp1767
F0.0
s(g1743
g1742
tp1768
F0.0
s(g1745
g1748
tp1769
F1292.5861729117114
s(g1745
g1746
tp1770
F0.0
s(g1741
g1745
tp1771
F1.0
s(g1746
g1748
tp1772
F68.89581191700388
s(g1745
g1741
tp1773
F-1.0
s(g1742
g1745
tp1774
F38.846029798753136
s(g1745
g1742
tp1775
F-38.846029798753136
s(g1743
g1746
tp1776
F0.0
s(g1741
g1743
tp1777
F0.0
s(g1743
g1741
tp1778
F0.0
s(g1743
g1745
tp1779
F2.15746035129084
ssg3
F0.7333333333333333
sg83
(lp1780
(lp1781
S'dual'
p1782
aa(lp1783
S'doubled'
p1784
aa(lp1785
S'double'
p1786
aa(lp1787
S'triple'
p1788
aa(lp1789
S'treble'
p1790
aa(lp1791
S'quadruple'
p1792
aasg2
F0.8563488385776753
ssI54
(dp1793
g1
F0.9486832980505138
sg7
(lp1794
(lp1795
S'creepy'
p1796
aa(lp1797
S'scary'
p1798
aS'frightening'
p1799
aa(lp1800
S'terrifying'
p1801
aa(lp1802
S'sinister'
p1803
aasg25
(dp1804
(g1796
g1803
tp1805
F0.0
s(g1796
g1799
tp1806
F0.0
s(g1796
g1801
tp1807
F0.0
s(g1799
g1803
tp1808
F0.0
s(g1798
g1801
tp1809
F0.0
s(g1803
g1801
tp1810
F0.0
s(g1801
g1798
tp1811
F0.0
s(g1801
g1799
tp1812
F-5.51052947162953
s(g1803
g1799
tp1813
F0.0
s(g1798
g1796
tp1814
F-1.1507469251445794
s(g1799
g1801
tp1815
F5.51052947162953
s(g1803
g1796
tp1816
F0.0
s(g1796
g1798
tp1817
F1.1507469251445794
s(g1803
g1798
tp1818
F-2.6863714294728345
s(g1799
g1798
tp1819
F-1.0
s(g1799
g1796
tp1820
F0.0
s(g1798
g1799
tp1821
F1.0
s(g1801
g1803
tp1822
F0.0
s(g1798
g1803
tp1823
F2.6863714294728345
s(g1801
g1796
tp1824
F0.0
ssg3
F0.9
sg83
(lp1825
(lp1826
S'creepy'
p1827
aa(lp1828
S'scary'
p1829
aa(lp1830
S'frightening'
p1831
aa(lp1832
S'terrifying'
p1833
aa(lp1834
S'sinister'
p1835
aasg2
F0.9486832980505138
ssI55
(dp1836
g1
F-0.3333333333333333
sg7
(lp1837
(lp1838
S'some'
p1839
aa(lp1840
S'few'
p1841
aa(lp1842
S'fewer'
p1843
aasg25
(dp1844
(g1843
g1841
tp1845
F-7.337959373896068
s(g1839
g1843
tp1846
F0.0
s(g1843
g1839
tp1847
F0.0
s(g1839
g1841
tp1848
F-1.0
s(g1841
g1839
tp1849
F1.0
s(g1841
g1843
tp1850
F7.337959373896068
ssg3
F0.3333333333333333
sg83
(lp1851
(lp1852
S'few'
p1853
aa(lp1854
S'fewer'
p1855
aa(lp1856
S'some'
p1857
aasg2
F0.3333333333333333
ssI56
(dp1858
g1
F0.18257418583505536
sg7
(lp1859
(lp1860
S'neglected'
p1861
aa(lp1862
S'ignored'
p1863
aS'overlooked'
p1864
aa(lp1865
S'forgotten'
p1866
aasg25
(dp1867
(g1861
g1863
tp1868
F1.0
s(g1866
g1864
tp1869
F-3.2863132590683173
s(g1863
g1861
tp1870
F-1.0
s(g1863
g1866
tp1871
F0.0
s(g1864
g1861
tp1872
F0.0
s(g1864
g1866
tp1873
F3.2863132590683173
s(g1866
g1861
tp1874
F-3.7117792444298927
s(g1864
g1863
tp1875
F3.6789739008724203
s(g1866
g1863
tp1876
F0.0
s(g1863
g1864
tp1877
F-3.6789739008724203
s(g1861
g1864
tp1878
F0.0
s(g1861
g1866
tp1879
F3.7117792444298927
ssg3
F0.5
sg83
(lp1880
(lp1881
S'overlooked'
p1882
aa(lp1883
S'neglected'
p1884
aa(lp1885
S'forgotten'
p1886
aa(lp1887
S'ignored'
p1888
aasg2
F0.18257418583505536
ssI57
(dp1889
g1
F0.8164965809277261
sg7
(lp1890
(lp1891
S'old'
p1892
aa(lp1893
S'obsolete'
p1894
aS'outdated'
p1895
aasg25
(dp1896
(g1895
g1892
tp1897
F-4.1038676382942505
s(g1894
g1892
tp1898
F-1.0
s(g1892
g1894
tp1899
F1.0
s(g1894
g1895
tp1900
F0.0
s(g1892
g1895
tp1901
F4.1038676382942505
s(g1895
g1894
tp1902
F0.0
ssg3
F0.6666666666666666
sg83
(lp1903
(lp1904
S'old'
p1905
aa(lp1906
S'obsolete'
p1907
aa(lp1908
S'outdated'
p1909
aasg2
F0.8164965809277261
ssI58
(dp1910
g1
F0.6666666666666666
sg7
(lp1911
(lp1912
S'necessary'
p1913
aa(lp1914
S'vital'
p1915
aa(lp1916
S'indispensable'
p1917
aa(lp1918
S'critical'
p1919
aasg25
(dp1920
(g1919
g1915
tp1921
F0.0
s(g1913
g1917
tp1922
F60.51396113313182
s(g1913
g1915
tp1923
F18.9167324091182
s(g1913
g1919
tp1924
F1.0
s(g1917
g1915
tp1925
F0.0
s(g1915
g1913
tp1926
F-18.9167324091182
s(g1919
g1917
tp1927
F0.0
s(g1919
g1913
tp1928
F-1.0
s(g1915
g1917
tp1929
F0.0
s(g1917
g1913
tp1930
F-60.51396113313182
s(g1917
g1919
tp1931
F0.0
s(g1915
g1919
tp1932
F0.0
ssg3
F0.8333333333333334
sg83
(lp1933
(lp1934
S'necessary'
p1935
aa(lp1936
S'vital'
p1937
aa(lp1938
S'critical'
p1939
aa(lp1940
S'indispensable'
p1941
aasg2
F0.6666666666666666
ssI59
(dp1942
g1
F0.9128709291752769
sg7
(lp1943
(lp1944
S'attractive'
p1945
aa(lp1946
S'beautiful'
p1947
aa(lp1948
S'mesmerizing'
p1949
aS'seductive'
p1950
aasg25
(dp1951
(g1950
g1947
tp1952
F0.0
s(g1947
g1950
tp1953
F0.0
s(g1947
g1945
tp1954
F-1.0
s(g1945
g1947
tp1955
F1.0
s(g1945
g1950
tp1956
F9.075507502348328
s(g1950
g1945
tp1957
F-9.075507502348328
s(g1950
g1949
tp1958
F0.0
s(g1947
g1949
tp1959
F13.85547670483845
s(g1945
g1949
tp1960
F0.0
s(g1949
g1947
tp1961
F-13.85547670483845
s(g1949
g1950
tp1962
F0.0
s(g1949
g1945
tp1963
F0.0
ssg3
F0.8333333333333334
sg83
(lp1964
(lp1965
S'attractive'
p1966
aa(lp1967
S'beautiful'
p1968
aa(lp1969
S'mesmerizing'
p1970
aa(lp1971
S'seductive'
p1972
aasg2
F0.9128709291752769
ssI60
(dp1973
g1
F0.3333333333333333
sg7
(lp1974
(lp1975
S'closed'
p1976
aa(lp1977
S'shut'
p1978
aa(lp1979
S'sealed'
p1980
aasg25
(dp1981
(g1980
g1978
tp1982
F0.0
s(g1980
g1976
tp1983
F-7.395170090457673
s(g1976
g1980
tp1984
F7.395170090457673
s(g1978
g1980
tp1985
F0.0
s(g1976
g1978
tp1986
F1.0
s(g1978
g1976
tp1987
F-1.0
ssg3
F0.6666666666666666
sg83
(lp1988
(lp1989
S'closed'
p1990
aa(lp1991
S'sealed'
p1992
aa(lp1993
S'shut'
p1994
aasg2
F0.3333333333333333
ssI61
(dp1995
g1
F0.8164965809277261
sg7
(lp1996
(lp1997
S'unexpected'
p1998
aa(lp1999
S'astonishing'
p2000
aS'stunning'
p2001
aasg25
(dp2002
(g2001
g1998
tp2003
F-1.0
s(g2000
g1998
tp2004
F-15.764915439122522
s(g2001
g2000
tp2005
F0.0
s(g1998
g2001
tp2006
F1.0
s(g1998
g2000
tp2007
F15.764915439122522
s(g2000
g2001
tp2008
F0.0
ssg3
F0.6666666666666666
sg83
(lp2009
(lp2010
S'unexpected'
p2011
aa(lp2012
S'stunning'
p2013
aa(lp2014
S'astonishing'
p2015
aasg2
F0.8164965809277261
ssI62
(dp2016
g1
F1.0
sg7
(lp2017
(lp2018
S'indecent'
p2019
aa(lp2020
S'profane'
p2021
aa(lp2022
S'obscene'
p2023
aasg25
(dp2024
(g2023
g2019
tp2025
F-14.81582849073841
s(g2023
g2021
tp2026
F0.0
s(g2019
g2021
tp2027
F1.0
s(g2019
g2023
tp2028
F14.81582849073841
s(g2021
g2023
tp2029
F0.0
s(g2021
g2019
tp2030
F-1.0
ssg3
F1.0
sg83
(lp2031
(lp2032
S'indecent'
p2033
aa(lp2034
S'profane'
p2035
aa(lp2036
S'obscene'
p2037
aasg2
F1.0
ssI63
(dp2038
g1
F0.3333333333333333
sg7
(lp2039
(lp2040
S'attractive'
p2041
aa(lp2042
S'sexy'
p2043
aa(lp2044
S'seductive'
p2045
aasg25
(dp2046
(g2041
g2043
tp2047
F1.0
s(g2041
g2045
tp2048
F47.4824260009554
s(g2045
g2041
tp2049
F-47.4824260009554
s(g2045
g2043
tp2050
F0.0
s(g2043
g2045
tp2051
F0.0
s(g2043
g2041
tp2052
F-1.0
ssg3
F0.6666666666666666
sg83
(lp2053
(lp2054
S'attractive'
p2055
aa(lp2056
S'seductive'
p2057
aa(lp2058
S'sexy'
p2059
aasg2
F0.3333333333333333
ssI64
(dp2060
g1
F0.3333333333333333
sg7
(lp2061
(lp2062
S'humbled'
p2063
aa(lp2064
S'humiliated'
p2065
aa(lp2066
S'crushed'
p2067
aasg25
(dp2068
(g2067
g2065
tp2069
F1.0
s(g2065
g2067
tp2070
F-1.0
s(g2067
g2063
tp2071
F0.0
s(g2063
g2067
tp2072
F0.0
s(g2063
g2065
tp2073
F11.276559558941996
s(g2065
g2063
tp2074
F-11.276559558941996
ssg3
F0.6666666666666666
sg83
(lp2075
(lp2076
S'humbled'
p2077
aa(lp2078
S'crushed'
p2079
aa(lp2080
S'humiliated'
p2081
aasg2
F0.3333333333333333
ssI65
(dp2082
g1
F0.6324555320336759
sg7
(lp2083
(lp2084
S'bright'
p2085
aS'intelligent'
p2086
aS'smart'
p2087
aS'clever'
p2088
aa(lp2089
S'brilliant'
p2090
aasg25
(dp2091
(g2086
g2085
tp2092
F0.0
s(g2090
g2088
tp2093
F-1.6377912002579256
s(g2087
g2085
tp2094
F0.0
s(g2085
g2088
tp2095
F-2.2232975587712844
s(g2086
g2087
tp2096
F0.0
s(g2090
g2087
tp2097
F-1.0
s(g2087
g2088
tp2098
F0.0
s(g2088
g2087
tp2099
F0.0
s(g2087
g2090
tp2100
F1.0
s(g2086
g2088
tp2101
F0.0
s(g2086
g2090
tp2102
F1.039952241665784
s(g2088
g2090
tp2103
F1.6377912002579256
s(g2087
g2086
tp2104
F0.0
s(g2088
g2085
tp2105
F2.2232975587712844
s(g2088
g2086
tp2106
F0.0
s(g2085
g2086
tp2107
F0.0
s(g2090
g2086
tp2108
F-1.039952241665784
s(g2085
g2090
tp2109
F0.0
s(g2085
g2087
tp2110
F0.0
s(g2090
g2085
tp2111
F0.0
ssg3
F0.4
sg83
(lp2112
(lp2113
S'clever'
p2114
aa(lp2115
S'smart'
p2116
aa(lp2117
S'intelligent'
p2118
aa(lp2119
S'bright'
p2120
aa(lp2121
S'brilliant'
p2122
aasg2
F0.6324555320336759
ssI66
(dp2123
g1
F0.8164965809277261
sg7
(lp2124
(lp2125
S'violent'
p2126
aa(lp2127
S'homicidal'
p2128
aS'murderous'
p2129
aasg25
(dp2130
(g2126
g2129
tp2131
F1.0
s(g2129
g2126
tp2132
F-1.0
s(g2128
g2126
tp2133
F-2.9748627612200687
s(g2128
g2129
tp2134
F0.0
s(g2129
g2128
tp2135
F0.0
s(g2126
g2128
tp2136
F2.9748627612200687
ssg3
F0.6666666666666666
sg83
(lp2137
(lp2138
S'violent'
p2139
aa(lp2140
S'murderous'
p2141
aa(lp2142
S'homicidal'
p2143
aasg2
F0.8164965809277261
ssI67
(dp2144
g1
F1.0
sg7
(lp2145
(lp2146
S'personal'
p2147
aa(lp2148
S'private'
p2149
aa(lp2150
S'secret'
p2151
aasg25
(dp2152
(g2147
g2149
tp2153
F1.0
s(g2149
g2151
tp2154
F1.0089250513467884
s(g2151
g2149
tp2155
F-1.0089250513467884
s(g2147
g2151
tp2156
F0.0
s(g2151
g2147
tp2157
F0.0
s(g2149
g2147
tp2158
F-1.0
ssg3
F1.0
sg83
(lp2159
(lp2160
S'personal'
p2161
aa(lp2162
S'private'
p2163
aa(lp2164
S'secret'
p2165
aasg2
F1.0
ssI68
(dp2166
g1
F-0.3333333333333333
sg7
(lp2167
(lp2168
S'high'
p2169
aa(lp2170
S'higher'
p2171
aa(lp2172
S'soaring'
p2173
aasg25
(dp2174
(g2169
g2171
tp2175
F1.0
s(g2171
g2173
tp2176
F-19.961881679560943
s(g2171
g2169
tp2177
F-1.0
s(g2173
g2169
tp2178
F0.0
s(g2173
g2171
tp2179
F19.961881679560943
s(g2169
g2173
tp2180
F0.0
ssg3
F0.3333333333333333
sg83
(lp2181
(lp2182
S'soaring'
p2183
aa(lp2184
S'high'
p2185
aa(lp2186
S'higher'
p2187
aasg2
F0.3333333333333333
ssI69
(dp2188
g1
F1.0
sg7
(lp2189
(lp2190
S'harmful'
p2191
aa(lp2192
S'toxic'
p2193
aa(lp2194
S'deadly'
p2195
aasg25
(dp2196
(g2193
g2195
tp2197
F1.111334993445574
s(g2191
g2195
tp2198
F19.315730319612754
s(g2193
g2191
tp2199
F-1.0
s(g2195
g2191
tp2200
F-19.315730319612754
s(g2195
g2193
tp2201
F-1.111334993445574
s(g2191
g2193
tp2202
F1.0
ssg3
F1.0
sg83
(lp2203
(lp2204
S'harmful'
p2205
aa(lp2206
S'toxic'
p2207
aa(lp2208
S'deadly'
p2209
aasg2
F1.0
ssI70
(dp2210
g1
F0.3706246583305506
sg7
(lp2211
(lp2212
S'small'
p2213
aa(lp2214
S'smaller'
p2215
aa(lp2216
S'midget'
p2217
aa(lp2218
S'minute'
p2219
aa(lp2220
S'tiny'
p2221
aS'minuscule'
p2222
aa(lp2223
S'micro'
p2224
aS'microscopic'
p2225
aasg25
(dp2226
(g2219
g2215
tp2227
F0.0
s(g2221
g2224
tp2228
F0.0
s(g2225
g2217
tp2229
F0.0
s(g2222
g2224
tp2230
F0.0
s(g2224
g2222
tp2231
F0.0
s(g2217
g2213
tp2232
F0.0
s(g2215
g2225
tp2233
F0.0
s(g2225
g2219
tp2234
F0.0
s(g2215
g2219
tp2235
F0.0
s(g2222
g2217
tp2236
F0.0
s(g2215
g2222
tp2237
F0.0
s(g2221
g2215
tp2238
F0.0
s(g2221
g2225
tp2239
F205.2323380556131
s(g2219
g2213
tp2240
F-4.902873232091535
s(g2213
g2219
tp2241
F4.902873232091535
s(g2225
g2215
tp2242
F0.0
s(g2213
g2222
tp2243
F52.396007002661044
s(g2224
g2219
tp2244
F0.0
s(g2225
g2222
tp2245
F0.0
s(g2217
g2219
tp2246
F0.0
s(g2224
g2217
tp2247
F0.0
s(g2213
g2221
tp2248
F8.466773021043199
s(g2217
g2222
tp2249
F0.0
s(g2222
g2221
tp2250
F0.0
s(g2221
g2217
tp2251
F0.0
s(g2215
g2224
tp2252
F0.0
s(g2217
g2224
tp2253
F0.0
s(g2217
g2221
tp2254
F0.0
s(g2215
g2213
tp2255
F-3.223852843386798
s(g2217
g2215
tp2256
F70.54707514833895
s(g2213
g2224
tp2257
F1.0
s(g2219
g2217
tp2258
F0.0
s(g2221
g2213
tp2259
F-8.466773021043199
s(g2222
g2215
tp2260
F0.0
s(g2213
g2215
tp2261
F3.223852843386798
s(g2222
g2225
tp2262
F0.0
s(g2225
g2213
tp2263
F-9.61194150334873
s(g2224
g2221
tp2264
F0.0
s(g2225
g2224
tp2265
F0.0
s(g2225
g2221
tp2266
F-205.2323380556131
s(g2213
g2225
tp2267
F9.61194150334873
s(g2221
g2222
tp2268
F0.0
s(g2224
g2225
tp2269
F0.0
s(g2222
g2219
tp2270
F0.0
s(g2219
g2221
tp2271
F0.0
s(g2219
g2225
tp2272
F0.0
s(g2217
g2225
tp2273
F0.0
s(g2215
g2217
tp2274
F-70.54707514833895
s(g2219
g2224
tp2275
F0.0
s(g2221
g2219
tp2276
F0.0
s(g2219
g2222
tp2277
F0.0
s(g2224
g2213
tp2278
F-1.0
s(g2224
g2215
tp2279
F0.0
s(g2222
g2213
tp2280
F-52.396007002661044
s(g2215
g2221
tp2281
F0.0
s(g2213
g2217
tp2282
F0.0
ssg3
F0.6428571428571429
sg83
(lp2283
(lp2284
S'small'
p2285
aa(lp2286
S'tiny'
p2287
aa(lp2288
S'midget'
p2289
aa(lp2290
S'minute'
p2291
aa(lp2292
S'minuscule'
p2293
aa(lp2294
S'microscopic'
p2295
aa(lp2296
S'micro'
p2297
aa(lp2298
S'smaller'
p2299
aasg2
F0.3706246583305506
ssI71
(dp2300
g1
F0.10540925533894598
sg7
(lp2301
(lp2302
S'impractical'
p2303
aS'impracticable'
p2304
aa(lp2305
S'unrealistic'
p2306
aa(lp2307
S'infeasible'
p2308
aa(lp2309
S'impossible'
p2310
aasg25
(dp2311
(g2306
g2304
tp2312
F0.0
s(g2308
g2304
tp2313
F0.0
s(g2304
g2303
tp2314
F0.0
s(g2303
g2308
tp2315
F0.0
s(g2308
g2303
tp2316
F0.0
s(g2310
g2303
tp2317
F-40.245898919839846
s(g2306
g2303
tp2318
F0.0
s(g2303
g2304
tp2319
F0.0
s(g2308
g2310
tp2320
F1.2344666682142602
s(g2306
g2308
tp2321
F0.0
s(g2310
g2308
tp2322
F-1.2344666682142602
s(g2304
g2310
tp2323
F8.982405886557977
s(g2303
g2306
tp2324
F0.0
s(g2303
g2310
tp2325
F40.245898919839846
s(g2310
g2306
tp2326
F-1.0
s(g2310
g2304
tp2327
F-8.982405886557977
s(g2304
g2306
tp2328
F0.0
s(g2306
g2310
tp2329
F1.0
s(g2304
g2308
tp2330
F0.0
s(g2308
g2306
tp2331
F0.0
ssg3
F0.5
sg83
(lp2332
(lp2333
S'unrealistic'
p2334
aa(lp2335
S'infeasible'
p2336
aa(lp2337
S'impractical'
p2338
aa(lp2339
S'impracticable'
p2340
aa(lp2341
S'impossible'
p2342
aasg2
F0.10540925533894598
ssI72
(dp2343
g1
F0.3333333333333333
sg7
(lp2344
(lp2345
S'mature'
p2346
aa(lp2347
S'ripe'
p2348
aa(lp2349
S'overripe'
p2350
aasg25
(dp2351
(g2346
g2350
tp2352
F1.0
s(g2350
g2346
tp2353
F-1.0
s(g2346
g2348
tp2354
F0.0
s(g2348
g2350
tp2355
F26.37513048362182
s(g2350
g2348
tp2356
F-26.37513048362182
s(g2348
g2346
tp2357
F0.0
ssg3
F0.6666666666666666
sg83
(lp2358
(lp2359
S'ripe'
p2360
aa(lp2361
S'mature'
p2362
aa(lp2363
S'overripe'
p2364
aasg2
F0.3333333333333333
ssI73
(dp2365
g1
F0.6666666666666666
sg7
(lp2366
(lp2367
S'overweight'
p2368
aa(lp2369
S'chubby'
p2370
aa(lp2371
S'fat'
p2372
aa(lp2373
S'obese'
p2374
aasg25
(dp2375
(g2368
g2374
tp2376
F1471.4606447658402
s(g2368
g2372
tp2377
F0.0
s(g2374
g2368
tp2378
F-1471.4606447658402
s(g2374
g2372
tp2379
F-2.3133833618359683
s(g2372
g2370
tp2380
F-1.0
s(g2368
g2370
tp2381
F0.0
s(g2370
g2368
tp2382
F0.0
s(g2372
g2368
tp2383
F0.0
s(g2372
g2374
tp2384
F2.3133833618359683
s(g2370
g2372
tp2385
F1.0
s(g2370
g2374
tp2386
F0.0
s(g2374
g2370
tp2387
F0.0
ssg3
F0.8333333333333334
sg83
(lp2388
(lp2389
S'chubby'
p2390
aa(lp2391
S'overweight'
p2392
aa(lp2393
S'fat'
p2394
aa(lp2395
S'obese'
p2396
aasg2
F0.6666666666666666
ssI74
(dp2397
g1
F0.3333333333333333
sg7
(lp2398
(lp2399
S'uncomfortable'
p2400
aa(lp2401
S'uneasy'
p2402
aa(lp2403
S'painful'
p2404
aasg25
(dp2405
(g2400
g2402
tp2406
F0.0
s(g2402
g2404
tp2407
F1.0
s(g2404
g2400
tp2408
F-29.31202728242997
s(g2404
g2402
tp2409
F-1.0
s(g2402
g2400
tp2410
F0.0
s(g2400
g2404
tp2411
F29.31202728242997
ssg3
F0.6666666666666666
sg83
(lp2412
(lp2413
S'uneasy'
p2414
aa(lp2415
S'uncomfortable'
p2416
aa(lp2417
S'painful'
p2418
aasg2
F0.3333333333333333
ssI75
(dp2419
g1
F0.5477225575051661
sg7
(lp2420
(lp2421
S'friendly'
p2422
aS'cordial'
p2423
aa(lp2424
S'warm'
p2425
aa(lp2426
S'intimate'
p2427
aasg25
(dp2428
(g2427
g2423
tp2429
F0.0
s(g2422
g2427
tp2430
F1.0
s(g2427
g2425
tp2431
F-2.70199928077936
s(g2422
g2425
tp2432
F0.0
s(g2425
g2427
tp2433
F2.70199928077936
s(g2425
g2422
tp2434
F0.0
s(g2422
g2423
tp2435
F-12.219378980923759
s(g2423
g2425
tp2436
F0.0
s(g2423
g2427
tp2437
F0.0
s(g2423
g2422
tp2438
F12.219378980923759
s(g2425
g2423
tp2439
F0.0
s(g2427
g2422
tp2440
F-1.0
ssg3
F0.6666666666666666
sg83
(lp2441
(lp2442
S'cordial'
p2443
aa(lp2444
S'warm'
p2445
aa(lp2446
S'friendly'
p2447
aa(lp2448
S'intimate'
p2449
aasg2
F0.5477225575051661
ssI76
(dp2450
g1
F0.9486832980505138
sg7
(lp2451
(lp2452
S'cool'
p2453
aa(lp2454
S'cold'
p2455
aa(lp2456
S'frigid'
p2457
aa(lp2458
S'icy'
p2459
aS'frozen'
p2460
aasg25
(dp2461
(g2455
g2457
tp2462
F3.253640966508682
s(g2453
g2460
tp2463
F1.0
s(g2453
g2459
tp2464
F0.0
s(g2460
g2459
tp2465
F0.0
s(g2460
g2457
tp2466
F0.0
s(g2453
g2455
tp2467
F2.860553379852629
s(g2459
g2455
tp2468
F-2.125151785096198
s(g2455
g2453
tp2469
F-2.860553379852629
s(g2455
g2460
tp2470
F2.8161361045478746
s(g2457
g2453
tp2471
F-2.8357876425234503
s(g2457
g2460
tp2472
F0.0
s(g2459
g2460
tp2473
F0.0
s(g2459
g2453
tp2474
F0.0
s(g2457
g2455
tp2475
F-3.253640966508682
s(g2459
g2457
tp2476
F0.0
s(g2453
g2457
tp2477
F2.8357876425234503
s(g2457
g2459
tp2478
F0.0
s(g2460
g2455
tp2479
F-2.8161361045478746
s(g2460
g2453
tp2480
F-1.0
s(g2455
g2459
tp2481
F2.125151785096198
ssg3
F0.9
sg83
(lp2482
(lp2483
S'cool'
p2484
aa(lp2485
S'cold'
p2486
aa(lp2487
S'frigid'
p2488
aa(lp2489
S'icy'
p2490
aa(lp2491
S'frozen'
p2492
aasg2
F0.9486832980505138
ssI77
(dp2493
g1
F0.3333333333333333
sg7
(lp2494
(lp2495
S'disappointed'
p2496
aa(lp2497
S'frustrated'
p2498
aa(lp2499
S'defeated'
p2500
aasg25
(dp2501
(g2500
g2498
tp2502
F0.0
s(g2498
g2496
tp2503
F-1.0
s(g2500
g2496
tp2504
F-3.672528966366186
s(g2496
g2498
tp2505
F1.0
s(g2496
g2500
tp2506
F3.672528966366186
s(g2498
g2500
tp2507
F0.0
ssg3
F0.6666666666666666
sg83
(lp2508
(lp2509
S'disappointed'
p2510
aa(lp2511
S'defeated'
p2512
aa(lp2513
S'frustrated'
p2514
aasg2
F0.3333333333333333
ssI78
(dp2515
g1
F-0.3333333333333333
sg7
(lp2516
(lp2517
S'close'
p2518
aa(lp2519
S'tight'
p2520
aa(lp2521
S'snug'
p2522
aasg25
(dp2523
(g2518
g2522
tp2524
F0.0
s(g2518
g2520
tp2525
F1.0
s(g2522
g2520
tp2526
F10067.433712638209
s(g2522
g2518
tp2527
F0.0
s(g2520
g2522
tp2528
F-10067.433712638209
s(g2520
g2518
tp2529
F-1.0
ssg3
F0.3333333333333333
sg83
(lp2530
(lp2531
S'snug'
p2532
aa(lp2533
S'close'
p2534
aa(lp2535
S'tight'
p2536
aasg2
F0.3333333333333333
ssI79
(dp2537
g1
F0.5270462766947299
sg7
(lp2538
(lp2539
S'general'
p2540
aa(lp2541
S'extensive'
p2542
aa(lp2543
S'complete'
p2544
aS'comprehensive'
p2545
aa(lp2546
S'universal'
p2547
aasg25
(dp2548
(g2542
g2540
tp2549
F0.0
s(g2544
g2545
tp2550
F-1.0
s(g2547
g2544
tp2551
F0.0
s(g2544
g2547
tp2552
F0.0
s(g2545
g2540
tp2553
F0.0
s(g2545
g2542
tp2554
F-1.6339169099465247
s(g2542
g2547
tp2555
F2.7691234936236957
s(g2547
g2545
tp2556
F0.0
s(g2540
g2547
tp2557
F11.220931816647989
s(g2547
g2542
tp2558
F-2.7691234936236957
s(g2545
g2547
tp2559
F0.0
s(g2547
g2540
tp2560
F-11.220931816647989
s(g2542
g2544
tp2561
F2.9411016264718826
s(g2544
g2540
tp2562
F0.0
s(g2544
g2542
tp2563
F-2.9411016264718826
s(g2542
g2545
tp2564
F1.6339169099465247
s(g2540
g2545
tp2565
F0.0
s(g2545
g2544
tp2566
F1.0
s(g2540
g2544
tp2567
F0.0
s(g2540
g2542
tp2568
F0.0
ssg3
F0.7
sg83
(lp2569
(lp2570
S'extensive'
p2571
aa(lp2572
S'comprehensive'
p2573
aa(lp2574
S'general'
p2575
aa(lp2576
S'complete'
p2577
aa(lp2578
S'universal'
p2579
aasg2
F0.5270462766947299
ssI80
(dp2580
g1
F0.5477225575051661
sg7
(lp2581
(lp2582
S'alive'
p2583
aa(lp2584
S'awake'
p2585
aa(lp2586
S'aware'
p2587
aS'conscious'
p2588
aasg25
(dp2589
(g2588
g2585
tp2590
F-10.537974631465474
s(g2588
g2583
tp2591
F-1.6145816530567
s(g2588
g2587
tp2592
F2.9298462448587945
s(g2587
g2583
tp2593
F-1.0
s(g2587
g2585
tp2594
F-11.696171283431294
s(g2583
g2588
tp2595
F1.6145816530567
s(g2585
g2588
tp2596
F10.537974631465474
s(g2583
g2587
tp2597
F1.0
s(g2587
g2588
tp2598
F-2.9298462448587945
s(g2583
g2585
tp2599
F-7.978281070697938
s(g2585
g2587
tp2600
F11.696171283431294
s(g2585
g2583
tp2601
F7.978281070697938
ssg3
F0.6666666666666666
sg83
(lp2602
(lp2603
S'awake'
p2604
aa(lp2605
S'alive'
p2606
aa(lp2607
S'conscious'
p2608
aa(lp2609
S'aware'
p2610
aasg2
F0.5477225575051661
ssI81
(dp2611
g1
F1.0
sg7
(lp2612
(lp2613
S'interested'
p2614
aa(lp2615
S'concerned'
p2616
aa(lp2617
S'involved'
p2618
aasg25
(dp2619
(g2614
g2618
tp2620
F1.0
s(g2616
g2614
tp2621
F0.0
s(g2618
g2616
tp2622
F-3.5072066764531824
s(g2614
g2616
tp2623
F0.0
s(g2618
g2614
tp2624
F-1.0
s(g2616
g2618
tp2625
F3.5072066764531824
ssg3
F1.0
sg83
(lp2626
(lp2627
S'interested'
p2628
aa(lp2629
S'concerned'
p2630
aa(lp2631
S'involved'
p2632
aasg2
F1.0
ssI82
(dp2633
g1
F0.3333333333333333
sg7
(lp2634
(lp2635
S'critical'
p2636
aa(lp2637
S'negative'
p2638
aa(lp2639
S'hostile'
p2640
aasg25
(dp2641
(g2636
g2638
tp2642
F0.0
s(g2640
g2638
tp2643
F-2.099426658279823
s(g2636
g2640
tp2644
F1.0
s(g2638
g2636
tp2645
F0.0
s(g2638
g2640
tp2646
F2.099426658279823
s(g2640
g2636
tp2647
F-1.0
ssg3
F0.6666666666666666
sg83
(lp2648
(lp2649
S'negative'
p2650
aa(lp2651
S'critical'
p2652
aa(lp2653
S'hostile'
p2654
aasg2
F0.3333333333333333
ssI83
(dp2655
g1
F1.0
sg7
(lp2656
(lp2657
S'hard'
p2658
aa(lp2659
S'painful'
p2660
aa(lp2661
S'hopeless'
p2662
aasg25
(dp2663
(g2662
g2660
tp2664
F0.0
s(g2658
g2660
tp2665
F1.0
s(g2660
g2662
tp2666
F0.0
s(g2658
g2662
tp2667
F20.102860344160355
s(g2660
g2658
tp2668
F-1.0
s(g2662
g2658
tp2669
F-20.102860344160355
ssg3
F1.0
sg83
(lp2670
(lp2671
S'hard'
p2672
aa(lp2673
S'painful'
p2674
aa(lp2675
S'hopeless'
p2676
aasg2
F1.0
ssI84
(dp2677
g1
F0.8164965809277261
sg7
(lp2678
(lp2679
S'happy'
p2680
aS'content'
p2681
aa(lp2682
S'euphoric'
p2683
aasg25
(dp2684
(g2681
g2680
tp2685
F1.0
s(g2680
g2681
tp2686
F-1.0
s(g2683
g2681
tp2687
F0.0
s(g2680
g2683
tp2688
F5069.642317526382
s(g2683
g2680
tp2689
F-5069.642317526382
s(g2681
g2683
tp2690
F0.0
ssg3
F0.6666666666666666
sg83
(lp2691
(lp2692
S'content'
p2693
aa(lp2694
S'happy'
p2695
aa(lp2696
S'euphoric'
p2697
aasg2
F0.8164965809277261
ssI85
(dp2698
g1
F0.8164965809277261
sg7
(lp2699
(lp2700
S'calm'
p2701
aS'cool'
p2702
aa(lp2703
S'serene'
p2704
aasg25
(dp2705
(g2704
g2702
tp2706
F0.0
s(g2704
g2701
tp2707
F-100.16636067161564
s(g2701
g2704
tp2708
F100.16636067161564
s(g2701
g2702
tp2709
F-1.0
s(g2702
g2704
tp2710
F0.0
s(g2702
g2701
tp2711
F1.0
ssg3
F0.6666666666666666
sg83
(lp2712
(lp2713
S'cool'
p2714
aa(lp2715
S'calm'
p2716
aa(lp2717
S'serene'
p2718
aasg2
F0.8164965809277261
ssI86
(dp2719
g1
F0.9128709291752769
sg7
(lp2720
(lp2721
S'unreliable'
p2722
aa(lp2723
S'dangerous'
p2724
aS'risky'
p2725
aa(lp2726
S'suicidal'
p2727
aasg25
(dp2728
(g2725
g2724
tp2729
F2.06505024146412
s(g2727
g2724
tp2730
F-7.909559042804861
s(g2722
g2727
tp2731
F0.0
s(g2722
g2725
tp2732
F0.0
s(g2725
g2727
tp2733
F0.0
s(g2725
g2722
tp2734
F0.0
s(g2722
g2724
tp2735
F1.0
s(g2727
g2722
tp2736
F0.0
s(g2724
g2727
tp2737
F7.909559042804861
s(g2724
g2725
tp2738
F-2.06505024146412
s(g2727
g2725
tp2739
F0.0
s(g2724
g2722
tp2740
F-1.0
ssg3
F0.8333333333333334
sg83
(lp2741
(lp2742
S'unreliable'
p2743
aa(lp2744
S'risky'
p2745
aa(lp2746
S'dangerous'
p2747
aa(lp2748
S'suicidal'
p2749
aasg2
F0.9128709291752769
sss.