(dp0
S'tau'
p1
F0.46237779880164
sS'|tau|'
p2
F0.5904131188899399
sS'pairwise'
p3
F0.6848312835067805
sS'ranking'
p4
(dp5
I0
(dp6
g1
F1.0
sS'gold'
p7
(lp8
(lp9
S'first'
p10
aa(lp11
S'second'
p12
aa(lp13
S'third'
p14
aa(lp15
S'fourth'
p16
aa(lp17
S'fifth'
p18
aa(lp19
S'sixth'
p20
aa(lp21
S'seventh'
p22
aa(lp23
S'eighth'
p24
aasS'raw'
p25
(dp26
(g10
g12
tp27
F1.0
s(g24
g18
tp28
F0.0
s(g24
g20
tp29
F0.0
s(g24
g10
tp30
F0.0
s(g18
g24
tp31
F0.0
s(g20
g12
tp32
F0.0
s(g16
g12
tp33
F0.0
s(g12
g18
tp34
F0.0
s(g22
g20
tp35
F-66.2166992509412
s(g16
g18
tp36
F132.57485870821574
s(g14
g20
tp37
F0.0
s(g14
g12
tp38
F-44.432300925270766
s(g10
g20
tp39
F0.0
s(g14
g10
tp40
F0.0
s(g10
g16
tp41
F0.0
s(g14
g18
tp42
F1.3354879555114143
s(g12
g24
tp43
F0.0
s(g18
g10
tp44
F0.0
s(g22
g18
tp45
F0.0
s(g16
g24
tp46
F0.0
s(g14
g16
tp47
F88.04244285630361
s(g20
g18
tp48
F-14.845249361796059
s(g22
g16
tp49
F0.0
s(g24
g14
tp50
F0.0
s(g18
g22
tp51
F0.0
s(g10
g14
tp52
F0.0
s(g24
g22
tp53
F-65.27102538735159
s(g14
g24
tp54
F0.0
s(g22
g12
tp55
F0.0
s(g16
g22
tp56
F0.0
s(g22
g14
tp57
F0.0
s(g10
g22
tp58
F0.0
s(g12
g16
tp59
F0.0
s(g18
g12
tp60
F0.0
s(g16
g14
tp61
F-88.04244285630361
s(g12
g10
tp62
F-1.0
s(g16
g10
tp63
F0.0
s(g22
g24
tp64
F65.27102538735159
s(g24
g16
tp65
F0.0
s(g10
g24
tp66
F0.0
s(g24
g12
tp67
F0.0
s(g12
g22
tp68
F0.0
s(g20
g24
tp69
F0.0
s(g18
g20
tp70
F14.845249361796059
s(g22
g10
tp71
F0.0
s(g20
g16
tp72
F0.0
s(g18
g16
tp73
F-132.57485870821574
s(g16
g20
tp74
F0.0
s(g12
g14
tp75
F44.432300925270766
s(g12
g20
tp76
F0.0
s(g20
g10
tp77
F0.0
s(g14
g22
tp78
F0.0
s(g10
g18
tp79
F0.0
s(g20
g14
tp80
F0.0
s(g20
g22
tp81
F66.2166992509412
s(g18
g14
tp82
F-1.3354879555114143
ssg3
F1.0
sS'algo'
p83
(lp84
(lp85
S'first'
p86
aa(lp87
S'second'
p88
aa(lp89
S'third'
p90
aa(lp91
S'fourth'
p92
aa(lp93
S'fifth'
p94
aa(lp95
S'sixth'
p96
aa(lp97
S'seventh'
p98
aa(lp99
S'eighth'
p100
aasg2
F1.0
ssI1
(dp101
g1
F1.0
sg7
(lp102
(lp103
S'known'
p104
aa(lp105
S'famous'
p106
aa(lp107
S'legendary'
p108
aasg25
(dp109
(g108
g104
tp110
F0.0
s(g104
g106
tp111
F1.0
s(g108
g106
tp112
F-9.717372109673727
s(g106
g104
tp113
F-1.0
s(g106
g108
tp114
F9.717372109673727
s(g104
g108
tp115
F0.0
ssg3
F1.0
sg83
(lp116
(lp117
S'known'
p118
aa(lp119
S'famous'
p120
aa(lp121
S'legendary'
p122
aasg2
F1.0
ssI2
(dp123
g1
F0.3333333333333333
sg7
(lp124
(lp125
S'dim'
p126
aa(lp127
S'gloomy'
p128
aa(lp129
S'dark'
p130
aa(lp131
S'black'
p132
aasg25
(dp133
(g128
g130
tp134
F0.0
s(g126
g130
tp135
F1.0
s(g132
g126
tp136
F0.0
s(g130
g126
tp137
F-1.0
s(g126
g128
tp138
F45.69597581274876
s(g132
g128
tp139
F0.0
s(g130
g132
tp140
F7.419073114881168
s(g130
g128
tp141
F0.0
s(g128
g126
tp142
F-45.69597581274876
s(g128
g132
tp143
F0.0
s(g126
g132
tp144
F0.0
s(g132
g130
tp145
F-7.419073114881168
ssg3
F0.6666666666666666
sg83
(lp146
(lp147
S'dim'
p148
aa(lp149
S'dark'
p150
aa(lp151
S'black'
p152
aa(lp153
S'gloomy'
p154
aasg2
F0.3333333333333333
ssI3
(dp155
g1
F0.3333333333333333
sg7
(lp156
(lp157
S'close'
p158
aa(lp159
S'near'
p160
aa(lp161
S'intimate'
p162
aasg25
(dp163
(g160
g158
tp164
F0.0
s(g158
g160
tp165
F0.0
s(g162
g160
tp166
F0.0
s(g162
g158
tp167
F-1.0
s(g160
g162
tp168
F0.0
s(g158
g162
tp169
F1.0
ssg3
F0.6666666666666666
sg83
(lp170
(lp171
S'close'
p172
aa(lp173
S'intimate'
p174
aa(lp175
g160
aasg2
F0.3333333333333333
ssI4
(dp176
g1
F1.0
sg7
(lp177
(lp178
S'nearby'
p179
aa(lp180
S'close'
p181
aa(lp182
S'adjacent'
p183
aasg25
(dp184
(g183
g181
tp185
F-46.86649289281224
s(g181
g179
tp186
F-1.0
s(g181
g183
tp187
F46.86649289281224
s(g179
g183
tp188
F0.0
s(g179
g181
tp189
F1.0
s(g183
g179
tp190
F0.0
ssg3
F1.0
sg83
(lp191
(lp192
S'nearby'
p193
aa(lp194
S'close'
p195
aa(lp196
S'adjacent'
p197
aasg2
F1.0
ssI5
(dp198
g1
F1.0
sg7
(lp199
(lp200
S'near'
p201
aa(lp202
S'close'
p203
aa(lp204
S'adjacent'
p205
aasg25
(dp206
(g205
g203
tp207
F-2.3583136896227583
s(g201
g205
tp208
F1.0
s(g201
g203
tp209
F0.0
s(g203
g201
tp210
F0.0
s(g205
g201
tp211
F-1.0
s(g203
g205
tp212
F2.3583136896227583
ssg3
F1.0
sg83
(lp213
(lp214
S'near'
p215
aa(lp216
S'close'
p217
aa(lp218
S'adjacent'
p219
aasg2
F1.0
ssI6
(dp220
g1
F-0.3333333333333333
sg7
(lp221
(lp222
S'sufficient'
p223
aa(lp224
S'good'
p225
aa(lp226
S'full'
p227
aasg25
(dp228
(g227
g225
tp229
F-1.0
s(g223
g225
tp230
F-79.69502616385805
s(g225
g223
tp231
F79.69502616385805
s(g223
g227
tp232
F0.0
s(g227
g223
tp233
F0.0
s(g225
g227
tp234
F1.0
ssg3
F0.3333333333333333
sg83
(lp235
(lp236
S'good'
p237
aa(lp238
S'full'
p239
aa(lp240
S'sufficient'
p241
aasg2
F0.3333333333333333
ssI7
(dp242
g1
F0.0
sg7
(lp243
(lp244
S'sufficient'
p245
aa(lp246
S'wide'
p247
aa(lp248
S'full'
p249
aasg25
(dp250
(g247
g249
tp251
F0.0
s(g249
g245
tp252
F0.0
s(g249
g247
tp253
F0.0
s(g245
g247
tp254
F0.0
s(g247
g245
tp255
F0.0
s(g245
g249
tp256
F0.0
ssg3
F0.0
sg83
(lp257
(lp258
g245
ag247
ag249
aasg2
F0.0
ssI8
(dp259
g1
F0.3333333333333333
sg7
(lp260
(lp261
S'real'
p262
aa(lp263
S'solemn'
p264
aa(lp265
S'serious'
p266
aa(lp267
S'grave'
p268
aasg25
(dp269
(g264
g266
tp270
F-253.53972329891383
s(g266
g268
tp271
F6.430333537521718
s(g268
g262
tp272
F0.0
s(g262
g266
tp273
F1.0
s(g264
g262
tp274
F0.0
s(g268
g264
tp275
F0.0
s(g264
g268
tp276
F0.0
s(g266
g262
tp277
F-1.0
s(g262
g268
tp278
F0.0
s(g266
g264
tp279
F253.53972329891383
s(g262
g264
tp280
F0.0
s(g268
g266
tp281
F-6.430333537521718
ssg3
F0.6666666666666666
sg83
(lp282
(lp283
S'real'
p284
aa(lp285
S'serious'
p286
aa(lp287
S'grave'
p288
aa(lp289
S'solemn'
p290
aasg2
F0.3333333333333333
ssI9
(dp291
g1
F0.0
sg7
(lp292
(lp293
S'interesting'
p294
aa(lp295
S'intriguing'
p296
aa(lp297
S'amusing'
p298
aa(lp299
S'fascinating'
p300
aasg25
(dp301
(g300
g294
tp302
F-6.197345744022504
s(g296
g300
tp303
F0.0
s(g296
g294
tp304
F-1.0
s(g294
g296
tp305
F1.0
s(g294
g298
tp306
F7.086325634009264
s(g296
g298
tp307
F0.0
s(g298
g296
tp308
F0.0
s(g300
g298
tp309
F0.0
s(g298
g294
tp310
F-7.086325634009264
s(g300
g296
tp311
F0.0
s(g298
g300
tp312
F0.0
s(g294
g300
tp313
F6.197345744022504
ssg3
F0.5
sg83
(lp314
(lp315
S'interesting'
p316
aa(lp317
S'fascinating'
p318
aa(lp319
S'amusing'
p320
aa(lp321
S'intriguing'
p322
aasg2
F0.0
ssI10
(dp323
g1
F0.6666666666666666
sg7
(lp324
(lp325
S'interesting'
p326
aa(lp327
S'intriguing'
p328
aa(lp329
S'entertaining'
p330
aa(lp331
S'exciting'
p332
aasg25
(dp333
(g326
g330
tp334
F4.540993748641206
s(g332
g330
tp335
F-2.0180026499704957
s(g326
g332
tp336
F2.8065632193091736
s(g330
g332
tp337
F2.0180026499704957
s(g328
g326
tp338
F-1.0
s(g326
g328
tp339
F1.0
s(g330
g326
tp340
F-4.540993748641206
s(g330
g328
tp341
F0.0
s(g332
g328
tp342
F0.0
s(g332
g326
tp343
F-2.8065632193091736
s(g328
g332
tp344
F0.0
s(g328
g330
tp345
F0.0
ssg3
F0.8333333333333334
sg83
(lp346
(lp347
S'interesting'
p348
aa(lp349
S'entertaining'
p350
aa(lp351
S'intriguing'
p352
aa(lp353
S'exciting'
p354
aasg2
F0.6666666666666666
ssI11
(dp355
g1
F0.0
sg7
(lp356
(lp357
S'interesting'
p358
aa(lp359
S'intriguing'
p360
aa(lp361
S'amusing'
p362
aa(lp363
S'fascinating'
p364
aasg25
(dp365
(g364
g358
tp366
F-6.197345744022504
s(g360
g364
tp367
F0.0
s(g360
g358
tp368
F-1.0
s(g358
g360
tp369
F1.0
s(g358
g362
tp370
F7.086325634009264
s(g360
g362
tp371
F0.0
s(g362
g360
tp372
F0.0
s(g364
g362
tp373
F0.0
s(g362
g358
tp374
F-7.086325634009264
s(g364
g360
tp375
F0.0
s(g362
g364
tp376
F0.0
s(g358
g364
tp377
F6.197345744022504
ssg3
F0.5
sg83
(lp378
(lp379
S'interesting'
p380
aa(lp381
S'fascinating'
p382
aa(lp383
S'amusing'
p384
aa(lp385
S'intriguing'
p386
aasg2
F0.0
ssI12
(dp387
g1
F0.6666666666666666
sg7
(lp388
(lp389
S'interesting'
p390
aa(lp391
S'intriguing'
p392
aa(lp393
S'entertaining'
p394
aa(lp395
S'exciting'
p396
aasg25
(dp397
(g390
g394
tp398
F4.540993748641206
s(g396
g394
tp399
F-2.0180026499704957
s(g390
g396
tp400
F2.8065632193091736
s(g394
g396
tp401
F2.0180026499704957
s(g392
g390
tp402
F-1.0
s(g390
g392
tp403
F1.0
s(g394
g390
tp404
F-4.540993748641206
s(g394
g392
tp405
F0.0
s(g396
g392
tp406
F0.0
s(g396
g390
tp407
F-2.8065632193091736
s(g392
g396
tp408
F0.0
s(g392
g394
tp409
F0.0
ssg3
F0.8333333333333334
sg83
(lp410
(lp411
S'interesting'
p412
aa(lp413
S'entertaining'
p414
aa(lp415
S'intriguing'
p416
aa(lp417
S'exciting'
p418
aasg2
F0.6666666666666666
ssI13
(dp419
g1
F0.3333333333333333
sg7
(lp420
(lp421
S'far'
p422
aa(lp423
S'further'
p424
aa(lp425
S'removed'
p426
aasg25
(dp427
(g422
g424
tp428
F1.0
s(g426
g424
tp429
F0.0
s(g424
g426
tp430
F0.0
s(g426
g422
tp431
F0.0
s(g422
g426
tp432
F0.0
s(g424
g422
tp433
F-1.0
ssg3
F0.6666666666666666
sg83
(lp434
(lp435
S'far'
p436
aa(lp437
g426
aa(lp438
S'further'
p439
aasg2
F0.3333333333333333
ssI14
(dp440
g1
F1.0
sg7
(lp441
(lp442
S'far'
p443
aa(lp444
S'farther'
p445
aa(lp446
S'removed'
p447
aasg25
(dp448
(g447
g445
tp449
F0.0
s(g445
g447
tp450
F0.0
s(g443
g445
tp451
F1.0
s(g445
g443
tp452
F-1.0
s(g447
g443
tp453
F0.0
s(g443
g447
tp454
F0.0
ssg3
F1.0
sg83
(lp455
(lp456
S'far'
p457
aa(lp458
S'farther'
p459
aa(lp460
g447
aasg2
F1.0
ssI15
(dp461
g1
F1.0
sg7
(lp462
(lp463
S'acceptable'
p464
aa(lp465
S'right'
p466
aasg25
(dp467
(g466
g464
tp468
F-1.0
s(g464
g466
tp469
F1.0
ssg3
F1.0
sg83
(lp470
(lp471
S'acceptable'
p472
aa(lp473
S'right'
p474
aasg2
F1.0
ssI16
(dp475
g1
F-1.0
sg7
(lp476
(lp477
S'okay'
p478
aa(lp479
S'right'
p480
aasg25
(dp481
(g480
g478
tp482
F1.0
s(g478
g480
tp483
F-1.0
ssg3
F0.0
sg83
(lp484
(lp485
S'right'
p486
aa(lp487
S'okay'
p488
aasg2
F1.0
ssI17
(dp489
g1
F1.0
sg7
(lp490
(lp491
S'alright'
p492
aa(lp493
S'right'
p494
aasg25
(dp495
(g494
g492
tp496
F-1.0
s(g492
g494
tp497
F1.0
ssg3
F1.0
sg83
(lp498
(lp499
S'alright'
p500
aa(lp501
S'right'
p502
aasg2
F1.0
ssI18
(dp503
g1
F1.0
sg7
(lp504
(lp505
S'cracked'
p506
aa(lp507
S'broken'
p508
aa(lp509
S'crushed'
p510
aasg25
(dp511
(g510
g506
tp512
F0.0
s(g510
g508
tp513
F-1.0
s(g506
g508
tp514
F4.374413084544408
s(g508
g506
tp515
F-4.374413084544408
s(g508
g510
tp516
F1.0
s(g506
g510
tp517
F0.0
ssg3
F1.0
sg83
(lp518
(lp519
S'cracked'
p520
aa(lp521
S'broken'
p522
aa(lp523
S'crushed'
p524
aasg2
F1.0
ssI19
(dp525
g1
F0.0
sg7
(lp526
(lp527
S'full'
p528
aa(lp529
S'stuffed'
p530
aa(lp531
S'overloaded'
p532
aa(lp533
S'overflowing'
p534
aasg25
(dp535
(g530
g528
tp536
F-1.0
s(g528
g530
tp537
F1.0
s(g532
g528
tp538
F-4.0693597688347625
s(g534
g532
tp539
F0.0
s(g528
g532
tp540
F4.0693597688347625
s(g532
g530
tp541
F0.0
s(g528
g534
tp542
F1.1097038997259139
s(g534
g530
tp543
F0.0
s(g532
g534
tp544
F0.0
s(g530
g532
tp545
F0.0
s(g534
g528
tp546
F-1.1097038997259139
s(g530
g534
tp547
F0.0
ssg3
F0.5
sg83
(lp548
(lp549
S'full'
p550
aa(lp551
S'overflowing'
p552
aa(lp553
S'overloaded'
p554
aa(lp555
S'stuffed'
p556
aasg2
F0.0
ssI20
(dp557
g1
F0.3333333333333333
sg7
(lp558
(lp559
S'flavorful'
p560
aa(lp561
S'zesty'
p562
aa(lp563
S'hot'
p564
aasg25
(dp565
(g564
g560
tp566
F-1.0
s(g560
g562
tp567
F0.0
s(g564
g562
tp568
F-3.7129647059692013
s(g560
g564
tp569
F1.0
s(g562
g560
tp570
F0.0
s(g562
g564
tp571
F3.7129647059692013
ssg3
F0.6666666666666666
sg83
(lp572
(lp573
S'zesty'
p574
aa(lp575
S'flavorful'
p576
aa(lp577
S'hot'
p578
aasg2
F0.3333333333333333
ssI21
(dp579
g1
F0.3333333333333333
sg7
(lp580
(lp581
S'flavorful'
p582
aa(lp583
S'zesty'
p584
aa(lp585
S'spicy'
p586
aasg25
(dp587
(g586
g582
tp588
F0.0
s(g582
g584
tp589
F0.0
s(g584
g586
tp590
F1.0
s(g586
g584
tp591
F-1.0
s(g584
g582
tp592
F0.0
s(g582
g586
tp593
F0.0
ssg3
F0.6666666666666666
sg83
(lp594
(lp595
S'zesty'
p596
aa(lp597
g582
aa(lp598
S'spicy'
p599
aasg2
F0.3333333333333333
ssI22
(dp600
g1
F1.0
sg7
(lp601
(lp602
S'unstable'
p603
aa(lp604
S'crazy'
p605
aa(lp606
S'insane'
p607
aasg25
(dp608
(g607
g603
tp609
F0.0
s(g603
g605
tp610
F1.0
s(g605
g603
tp611
F-1.0
s(g603
g607
tp612
F0.0
s(g605
g607
tp613
F17.45627689048686
s(g607
g605
tp614
F-17.45627689048686
ssg3
F1.0
sg83
(lp615
(lp616
S'unstable'
p617
aa(lp618
S'crazy'
p619
aa(lp620
S'insane'
p621
aasg2
F1.0
ssI23
(dp622
g1
F0.3333333333333333
sg7
(lp623
(lp624
S'good'
p625
aa(lp626
S'real'
p627
aa(lp628
S'authentic'
p629
aasg25
(dp630
(g625
g627
tp631
F1.0
s(g629
g625
tp632
F-28.308873948265205
s(g625
g629
tp633
F28.308873948265205
s(g629
g627
tp634
F0.0
s(g627
g625
tp635
F-1.0
s(g627
g629
tp636
F0.0
ssg3
F0.6666666666666666
sg83
(lp637
(lp638
S'good'
p639
aa(lp640
S'authentic'
p641
aa(lp642
S'real'
p643
aasg2
F0.3333333333333333
ssI24
(dp644
g1
F1.0
sg7
(lp645
(lp646
S'clean'
p647
aa(lp648
S'spotless'
p649
aasg25
(dp650
(g647
g649
tp651
F1.0
s(g649
g647
tp652
F-1.0
ssg3
F1.0
sg83
(lp653
(lp654
S'clean'
p655
aa(lp656
S'spotless'
p657
aasg2
F1.0
ssI25
(dp658
g1
F1.0
sg7
(lp659
(lp660
S'clean'
p661
aa(lp662
S'immaculate'
p663
aasg25
(dp664
(g663
g661
tp665
F-1.0
s(g661
g663
tp666
F1.0
ssg3
F1.0
sg83
(lp667
(lp668
S'clean'
p669
aa(lp670
S'immaculate'
p671
aasg2
F1.0
ssI26
(dp672
g1
F-0.6666666666666666
sg7
(lp673
(lp674
S'possible'
p675
aa(lp676
S'realistic'
p677
aa(lp678
S'feasible'
p679
aa(lp680
S'practical'
p681
aasg25
(dp682
(g681
g677
tp683
F0.0
s(g679
g675
tp684
F21.626472256126778
s(g681
g675
tp685
F1.1116311748301453
s(g675
g679
tp686
F-21.626472256126778
s(g675
g681
tp687
F-1.1116311748301453
s(g675
g677
tp688
F1.0
s(g681
g679
tp689
F46.046615860722525
s(g677
g675
tp690
F-1.0
s(g677
g681
tp691
F0.0
s(g679
g677
tp692
F0.0
s(g679
g681
tp693
F-46.046615860722525
s(g677
g679
tp694
F0.0
ssg3
F0.16666666666666666
sg83
(lp695
(lp696
S'practical'
p697
aa(lp698
S'feasible'
p699
aa(lp700
S'possible'
p701
aa(lp702
S'realistic'
p703
aasg2
F0.6666666666666666
ssI27
(dp704
g1
F0.3333333333333333
sg7
(lp705
(lp706
S'sick'
p707
aa(lp708
S'impaired'
p709
aa(lp710
S'disabled'
p711
aasg25
(dp712
(g709
g711
tp713
F1.0
s(g707
g709
tp714
F0.0
s(g707
g711
tp715
F0.0
s(g711
g707
tp716
F0.0
s(g711
g709
tp717
F-1.0
s(g709
g707
tp718
F0.0
ssg3
F0.6666666666666666
sg83
(lp719
(lp720
S'impaired'
p721
aa(lp722
g707
aa(lp723
S'disabled'
p724
aasg2
F0.3333333333333333
ssI28
(dp725
g1
F0.3333333333333333
sg7
(lp726
(lp727
S'ill'
p728
aa(lp729
S'impaired'
p730
aa(lp731
S'disabled'
p732
aasg25
(dp733
(g730
g728
tp734
F0.0
s(g730
g732
tp735
F1.0
s(g732
g728
tp736
F-1.8158261522037338
s(g728
g732
tp737
F1.8158261522037338
s(g728
g730
tp738
F0.0
s(g732
g730
tp739
F-1.0
ssg3
F0.6666666666666666
sg83
(lp740
(lp741
S'impaired'
p742
aa(lp743
S'ill'
p744
aa(lp745
S'disabled'
p746
aasg2
F0.3333333333333333
ssI29
(dp747
g1
F0.6
sg7
(lp748
(lp749
S'uncommon'
p750
aa(lp751
S'unusual'
p752
aa(lp753
S'rare'
p754
aa(lp755
S'extraordinary'
p756
aa(lp757
S'exceptional'
p758
aasg25
(dp759
(g752
g758
tp760
F0.0
s(g758
g754
tp761
F-1.0
s(g750
g756
tp762
F0.0
s(g752
g750
tp763
F6.493049078394488
s(g754
g756
tp764
F0.0
s(g756
g758
tp765
F-1.1953471066232317
s(g750
g754
tp766
F107.04482885971579
s(g756
g750
tp767
F0.0
s(g750
g758
tp768
F0.0
s(g754
g750
tp769
F-107.04482885971579
s(g756
g752
tp770
F0.0
s(g758
g752
tp771
F0.0
s(g756
g754
tp772
F0.0
s(g758
g756
tp773
F1.1953471066232317
s(g758
g750
tp774
F0.0
s(g754
g752
tp775
F-1.0588751045345592
s(g750
g752
tp776
F-6.493049078394488
s(g754
g758
tp777
F1.0
s(g752
g754
tp778
F1.0588751045345592
s(g752
g756
tp779
F0.0
ssg3
F0.8
sg83
(lp780
(lp781
S'unusual'
p782
aa(lp783
S'uncommon'
p784
aa(lp785
S'rare'
p786
aa(lp787
S'exceptional'
p788
aa(lp789
S'extraordinary'
p790
aasg2
F0.6
ssI30
(dp791
g1
F0.3333333333333333
sg7
(lp792
(lp793
S'impractical'
p794
aa(lp795
S'unrealistic'
p796
aa(lp797
S'impossible'
p798
aasg25
(dp799
(g794
g796
tp800
F0.0
s(g798
g794
tp801
F-40.245898919839846
s(g796
g794
tp802
F0.0
s(g794
g798
tp803
F40.245898919839846
s(g796
g798
tp804
F1.0
s(g798
g796
tp805
F-1.0
ssg3
F0.6666666666666666
sg83
(lp806
(lp807
S'unrealistic'
p808
aa(lp809
S'impractical'
p810
aa(lp811
S'impossible'
p812
aasg2
F0.3333333333333333
ssI31
(dp813
g1
F1.0
sg7
(lp814
(lp815
S'transnational'
p816
aa(lp817
S'international'
p818
aa(lp819
S'global'
p820
aasg25
(dp821
(g816
g820
tp822
F1.9734879732618515
s(g816
g818
tp823
F0.0
s(g818
g816
tp824
F0.0
s(g818
g820
tp825
F1.0
s(g820
g818
tp826
F-1.0
s(g820
g816
tp827
F-1.9734879732618515
ssg3
F1.0
sg83
(lp828
(lp829
S'transnational'
p830
aa(lp831
S'international'
p832
aa(lp833
S'global'
p834
aasg2
F1.0
ssI32
(dp835
g1
F1.0
sg7
(lp836
(lp837
S'concerned'
p838
aa(lp839
S'preoccupied'
p840
aa(lp841
S'obsessed'
p842
aasg25
(dp843
(g840
g838
tp844
F-14.71421446017981
s(g838
g842
tp845
F1.0
s(g838
g840
tp846
F14.71421446017981
s(g842
g840
tp847
F-54.17983068434218
s(g842
g838
tp848
F-1.0
s(g840
g842
tp849
F54.17983068434218
ssg3
F1.0
sg83
(lp850
(lp851
S'concerned'
p852
aa(lp853
S'preoccupied'
p854
aa(lp855
S'obsessed'
p856
aasg2
F1.0
ssI33
(dp857
g1
F0.3333333333333333
sg7
(lp858
(lp859
S'interesting'
p860
aa(lp861
S'moving'
p862
aa(lp863
S'exciting'
p864
aa(lp865
S'thrilling'
p866
aasg25
(dp867
(g866
g860
tp868
F0.0
s(g860
g864
tp869
F32.90150682342415
s(g864
g862
tp870
F0.0
s(g860
g862
tp871
F1.0
s(g866
g862
tp872
F0.0
s(g864
g860
tp873
F-32.90150682342415
s(g866
g864
tp874
F-46.57080453360955
s(g862
g860
tp875
F-1.0
s(g860
g866
tp876
F0.0
s(g864
g866
tp877
F46.57080453360955
s(g862
g866
tp878
F0.0
s(g862
g864
tp879
F0.0
ssg3
F0.6666666666666666
sg83
(lp880
(lp881
S'interesting'
p882
aa(lp883
S'exciting'
p884
aa(lp885
S'thrilling'
p886
aa(lp887
S'moving'
p888
aasg2
F0.3333333333333333
ssI34
(dp889
g1
F-0.3333333333333333
sg7
(lp890
(lp891
S'low'
p892
aa(lp893
S'subdued'
p894
aa(lp895
S'quiet'
p896
aasg25
(dp897
(g894
g896
tp898
F-1.0
s(g896
g894
tp899
F1.0
s(g894
g892
tp900
F0.0
s(g892
g896
tp901
F0.0
s(g892
g894
tp902
F0.0
s(g896
g892
tp903
F0.0
ssg3
F0.3333333333333333
sg83
(lp904
(lp905
S'quiet'
p906
aa(lp907
g892
aa(lp908
S'subdued'
p909
aasg2
F0.3333333333333333
ssI35
(dp910
g1
F0.3333333333333333
sg7
(lp911
(lp912
S'sweet'
p913
aa(lp914
S'sugary'
p915
aa(lp916
S'syrupy'
p917
aasg25
(dp918
(g913
g915
tp919
F1.0
s(g913
g917
tp920
F4.187330130851291
s(g917
g915
tp921
F0.0
s(g917
g913
tp922
F-4.187330130851291
s(g915
g913
tp923
F-1.0
s(g915
g917
tp924
F0.0
ssg3
F0.6666666666666666
sg83
(lp925
(lp926
S'sweet'
p927
aa(lp928
S'syrupy'
p929
aa(lp930
S'sugary'
p931
aasg2
F0.3333333333333333
ssI36
(dp932
g1
F1.0
sg7
(lp933
(lp934
S'strong'
p935
aa(lp936
S'intense'
p937
aa(lp938
S'terrible'
p939
aa(lp940
S'overwhelming'
p941
aa(lp942
S'violent'
p943
aasg25
(dp944
(g939
g935
tp945
F0.0
s(g943
g939
tp946
F0.0
s(g937
g943
tp947
F2.3744657694943268
s(g935
g941
tp948
F13.364467650186638
s(g943
g935
tp949
F-1.0
s(g935
g943
tp950
F1.0
s(g939
g941
tp951
F0.0
s(g935
g939
tp952
F0.0
s(g941
g939
tp953
F0.0
s(g943
g937
tp954
F-2.3744657694943268
s(g939
g943
tp955
F0.0
s(g937
g939
tp956
F0.0
s(g941
g935
tp957
F-13.364467650186638
s(g937
g941
tp958
F3.787116004754052
s(g943
g941
tp959
F0.0
s(g939
g937
tp960
F0.0
s(g935
g937
tp961
F0.0
s(g941
g937
tp962
F-3.787116004754052
s(g941
g943
tp963
F0.0
s(g937
g935
tp964
F0.0
ssg3
F1.0
sg83
(lp965
(lp966
S'strong'
p967
aa(lp968
S'intense'
p969
aa(lp970
g939
aa(lp971
S'overwhelming'
p972
aa(lp973
S'violent'
p974
aasg2
F1.0
ssI37
(dp975
g1
F1.0
sg7
(lp976
(lp977
S'bleak'
p978
aa(lp979
S'hopeless'
p980
aasg25
(dp981
(g980
g978
tp982
F-1.0
s(g978
g980
tp983
F1.0
ssg3
F1.0
sg83
(lp984
(lp985
S'bleak'
p986
aa(lp987
S'hopeless'
p988
aasg2
F1.0
ssI38
(dp989
g1
F1.0
sg7
(lp990
(lp991
S'desperate'
p992
aa(lp993
S'hopeless'
p994
aasg25
(dp995
(g994
g992
tp996
F-1.0
s(g992
g994
tp997
F1.0
ssg3
F1.0
sg83
(lp998
(lp999
S'desperate'
p1000
aa(lp1001
S'hopeless'
p1002
aasg2
F1.0
ssI39
(dp1003
g1
F1.0
sg7
(lp1004
(lp1005
S'unfortunate'
p1006
aa(lp1007
S'disastrous'
p1008
aa(lp1009
S'fatal'
p1010
aasg25
(dp1011
(g1006
g1010
tp1012
F1.0
s(g1008
g1010
tp1013
F1.1782112354990582
s(g1010
g1008
tp1014
F-1.1782112354990582
s(g1006
g1008
tp1015
F0.0
s(g1008
g1006
tp1016
F0.0
s(g1010
g1006
tp1017
F-1.0
ssg3
F1.0
sg83
(lp1018
(lp1019
S'unfortunate'
p1020
aa(lp1021
S'disastrous'
p1022
aa(lp1023
S'fatal'
p1024
aasg2
F1.0
ssI40
(dp1025
g1
F1.0
sg7
(lp1026
(lp1027
S'negligent'
p1028
aa(lp1029
S'careless'
p1030
aa(lp1031
S'reckless'
p1032
aasg25
(dp1033
(g1028
g1032
tp1034
F1.0890138607025412
s(g1028
g1030
tp1035
F0.0
s(g1030
g1032
tp1036
F1.0
s(g1032
g1028
tp1037
F-1.0890138607025412
s(g1032
g1030
tp1038
F-1.0
s(g1030
g1028
tp1039
F0.0
ssg3
F1.0
sg83
(lp1040
(lp1041
S'negligent'
p1042
aa(lp1043
S'careless'
p1044
aa(lp1045
S'reckless'
p1046
aasg2
F1.0
ssI41
(dp1047
g1
F0.0
sg7
(lp1048
(lp1049
S'strange'
p1050
aa(lp1051
S'unusual'
p1052
aa(lp1053
S'weird'
p1054
aa(lp1055
S'eerie'
p1056
aasg25
(dp1057
(g1052
g1056
tp1058
F0.0
s(g1052
g1050
tp1059
F-2.1100564719748416
s(g1056
g1054
tp1060
F0.0
s(g1050
g1056
tp1061
F1.0
s(g1050
g1054
tp1062
F1.7117989065573183
s(g1054
g1052
tp1063
F0.0
s(g1056
g1050
tp1064
F-1.0
s(g1050
g1052
tp1065
F2.1100564719748416
s(g1054
g1056
tp1066
F0.0
s(g1054
g1050
tp1067
F-1.7117989065573183
s(g1056
g1052
tp1068
F0.0
s(g1052
g1054
tp1069
F0.0
ssg3
F0.5
sg83
(lp1070
(lp1071
S'strange'
p1072
aa(lp1073
S'eerie'
p1074
aa(lp1075
S'weird'
p1076
aa(lp1077
S'unusual'
p1078
aasg2
F0.0
ssI42
(dp1079
g1
F-0.6666666666666666
sg7
(lp1080
(lp1081
S'funny'
p1082
aa(lp1083
S'unusual'
p1084
aa(lp1085
S'weird'
p1086
aa(lp1087
S'eerie'
p1088
aasg25
(dp1089
(g1082
g1084
tp1090
F0.0
s(g1084
g1088
tp1091
F0.0
s(g1088
g1086
tp1092
F0.0
s(g1086
g1082
tp1093
F1.0
s(g1088
g1082
tp1094
F0.0
s(g1082
g1086
tp1095
F-1.0
s(g1084
g1082
tp1096
F0.0
s(g1086
g1084
tp1097
F0.0
s(g1082
g1088
tp1098
F0.0
s(g1086
g1088
tp1099
F0.0
s(g1088
g1084
tp1100
F0.0
s(g1084
g1086
tp1101
F0.0
ssg3
F0.16666666666666666
sg83
(lp1102
(lp1103
S'weird'
p1104
aa(lp1105
g1088
aa(lp1106
g1084
aa(lp1107
S'funny'
p1108
aasg2
F0.6666666666666666
ssI43
(dp1109
g1
F-0.3333333333333333
sg7
(lp1110
(lp1111
S'reasonable'
p1112
aa(lp1113
S'valid'
p1114
aa(lp1115
S'sound'
p1116
aasg25
(dp1117
(g1116
g1112
tp1118
F1.0
s(g1116
g1114
tp1119
F-1.692184841269508
s(g1112
g1114
tp1120
F0.0
s(g1114
g1112
tp1121
F0.0
s(g1114
g1116
tp1122
F1.692184841269508
s(g1112
g1116
tp1123
F-1.0
ssg3
F0.3333333333333333
sg83
(lp1124
(lp1125
S'valid'
p1126
aa(lp1127
S'sound'
p1128
aa(lp1129
S'reasonable'
p1130
aasg2
F0.3333333333333333
ssI44
(dp1131
g1
F0.3333333333333333
sg7
(lp1132
(lp1133
S'affordable'
p1134
aa(lp1135
S'inexpensive'
p1136
aa(lp1137
S'cheap'
p1138
aasg25
(dp1139
(g1138
g1134
tp1140
F-1.0
s(g1134
g1138
tp1141
F1.0
s(g1136
g1134
tp1142
F0.0
s(g1134
g1136
tp1143
F0.0
s(g1138
g1136
tp1144
F-14.505473290062406
s(g1136
g1138
tp1145
F14.505473290062406
ssg3
F0.6666666666666666
sg83
(lp1146
(lp1147
S'inexpensive'
p1148
aa(lp1149
S'affordable'
p1150
aa(lp1151
S'cheap'
p1152
aasg2
F0.3333333333333333
ssI45
(dp1153
g1
F-0.3333333333333333
sg7
(lp1154
(lp1155
S'available'
p1156
aa(lp1157
S'accessible'
p1158
aa(lp1159
S'visible'
p1160
aasg25
(dp1161
(g1158
g1160
tp1162
F-5.276558428328815
s(g1156
g1158
tp1163
F1.0
s(g1160
g1156
tp1164
F0.0
s(g1156
g1160
tp1165
F0.0
s(g1158
g1156
tp1166
F-1.0
s(g1160
g1158
tp1167
F5.276558428328815
ssg3
F0.3333333333333333
sg83
(lp1168
(lp1169
S'visible'
p1170
aa(lp1171
S'available'
p1172
aa(lp1173
S'accessible'
p1174
aasg2
F0.3333333333333333
ssI46
(dp1175
g1
F1.0
sg7
(lp1176
(lp1177
S'cool'
p1178
aa(lp1179
S'cold'
p1180
aa(lp1181
S'frigid'
p1182
aa(lp1183
S'icy'
p1184
aasg25
(dp1185
(g1180
g1182
tp1186
F1.5310158028836518
s(g1182
g1180
tp1187
F-1.5310158028836518
s(g1178
g1184
tp1188
F0.0
s(g1178
g1180
tp1189
F1.3460466211937616
s(g1184
g1180
tp1190
F-1.0
s(g1180
g1178
tp1191
F-1.3460466211937616
s(g1182
g1178
tp1192
F-1.3343929889671782
s(g1184
g1178
tp1193
F0.0
s(g1184
g1182
tp1194
F0.0
s(g1178
g1182
tp1195
F1.3343929889671782
s(g1182
g1184
tp1196
F0.0
s(g1180
g1184
tp1197
F1.0
ssg3
F1.0
sg83
(lp1198
(lp1199
S'cool'
p1200
aa(lp1201
S'cold'
p1202
aa(lp1203
S'frigid'
p1204
aa(lp1205
S'icy'
p1206
aasg2
F1.0
ssI47
(dp1207
g1
F0.6666666666666666
sg7
(lp1208
(lp1209
S'refrigerated'
p1210
aa(lp1211
S'cold'
p1212
aa(lp1213
S'frigid'
p1214
aa(lp1215
S'frozen'
p1216
aasg25
(dp1217
(g1212
g1214
tp1218
F1.1553564336802704
s(g1210
g1212
tp1219
F0.0
s(g1214
g1212
tp1220
F-1.1553564336802704
s(g1214
g1210
tp1221
F0.0
s(g1216
g1210
tp1222
F-13.825326466372529
s(g1212
g1210
tp1223
F0.0
s(g1216
g1214
tp1224
F0.0
s(g1214
g1216
tp1225
F0.0
s(g1212
g1216
tp1226
F1.0
s(g1210
g1216
tp1227
F13.825326466372529
s(g1216
g1212
tp1228
F-1.0
s(g1210
g1214
tp1229
F0.0
ssg3
F0.8333333333333334
sg83
(lp1230
(lp1231
S'cold'
p1232
aa(lp1233
S'refrigerated'
p1234
aa(lp1235
S'frigid'
p1236
aa(lp1237
S'frozen'
p1238
aasg2
F0.6666666666666666
ssI48
(dp1239
g1
F0.6666666666666666
sg7
(lp1240
(lp1241
S'chilly'
p1242
aa(lp1243
S'cold'
p1244
aa(lp1245
S'frigid'
p1246
aa(lp1247
S'icy'
p1248
aasg25
(dp1249
(g1242
g1248
tp1250
F0.0
s(g1244
g1246
tp1251
F2.0987564211423644
s(g1246
g1244
tp1252
F-2.0987564211423644
s(g1248
g1242
tp1253
F0.0
s(g1248
g1244
tp1254
F-1.3708260993710053
s(g1242
g1246
tp1255
F0.0
s(g1244
g1242
tp1256
F-1.0
s(g1242
g1244
tp1257
F1.0
s(g1246
g1242
tp1258
F0.0
s(g1248
g1246
tp1259
F0.0
s(g1246
g1248
tp1260
F0.0
s(g1244
g1248
tp1261
F1.3708260993710053
ssg3
F0.8333333333333334
sg83
(lp1262
(lp1263
S'chilly'
p1264
aa(lp1265
S'cold'
p1266
aa(lp1267
S'icy'
p1268
aa(lp1269
S'frigid'
p1270
aasg2
F0.6666666666666666
ssI49
(dp1271
g1
F1.0
sg7
(lp1272
(lp1273
S'cool'
p1274
aa(lp1275
S'cold'
p1276
aa(lp1277
S'frigid'
p1278
aa(lp1279
S'frozen'
p1280
aasg25
(dp1281
(g1276
g1278
tp1282
F3.253640966508682
s(g1274
g1280
tp1283
F1.0
s(g1280
g1278
tp1284
F0.0
s(g1274
g1276
tp1285
F2.860553379852629
s(g1276
g1274
tp1286
F-2.860553379852629
s(g1276
g1280
tp1287
F2.8161361045478746
s(g1278
g1274
tp1288
F-2.8357876425234503
s(g1278
g1280
tp1289
F0.0
s(g1278
g1276
tp1290
F-3.253640966508682
s(g1280
g1274
tp1291
F-1.0
s(g1274
g1278
tp1292
F2.8357876425234503
s(g1280
g1276
tp1293
F-2.8161361045478746
ssg3
F1.0
sg83
(lp1294
(lp1295
S'cool'
p1296
aa(lp1297
S'cold'
p1298
aa(lp1299
S'frigid'
p1300
aa(lp1301
S'frozen'
p1302
aasg2
F1.0
ssI50
(dp1303
g1
F0.3333333333333333
sg7
(lp1304
(lp1305
S'refrigerated'
p1306
aa(lp1307
S'cold'
p1308
aa(lp1309
S'frigid'
p1310
aa(lp1311
S'icy'
p1312
aasg25
(dp1313
(g1308
g1310
tp1314
F1.5310158028836518
s(g1306
g1308
tp1315
F0.0
s(g1310
g1308
tp1316
F-1.5310158028836518
s(g1312
g1306
tp1317
F0.0
s(g1310
g1306
tp1318
F0.0
s(g1308
g1306
tp1319
F0.0
s(g1312
g1308
tp1320
F-1.0
s(g1306
g1312
tp1321
F0.0
s(g1312
g1310
tp1322
F0.0
s(g1310
g1312
tp1323
F0.0
s(g1306
g1310
tp1324
F0.0
s(g1308
g1312
tp1325
F1.0
ssg3
F0.6666666666666666
sg83
(lp1326
(lp1327
S'cold'
p1328
aa(lp1329
S'frigid'
p1330
aa(lp1331
g1306
aa(lp1332
S'icy'
p1333
aasg2
F0.3333333333333333
ssI51
(dp1334
g1
F1.0
sg7
(lp1335
(lp1336
S'chilly'
p1337
aa(lp1338
S'cold'
p1339
aa(lp1340
S'frigid'
p1341
aa(lp1342
S'frozen'
p1343
aasg25
(dp1344
(g1337
g1343
tp1345
F0.0
s(g1341
g1339
tp1346
F-2.0987564211423644
s(g1339
g1343
tp1347
F1.8165445398152924
s(g1343
g1337
tp1348
F0.0
s(g1343
g1341
tp1349
F0.0
s(g1339
g1341
tp1350
F2.0987564211423644
s(g1341
g1343
tp1351
F0.0
s(g1337
g1341
tp1352
F0.0
s(g1339
g1337
tp1353
F-1.0
s(g1337
g1339
tp1354
F1.0
s(g1341
g1337
tp1355
F0.0
s(g1343
g1339
tp1356
F-1.8165445398152924
ssg3
F1.0
sg83
(lp1357
(lp1358
S'chilly'
p1359
aa(lp1360
S'cold'
p1361
aa(lp1362
S'frigid'
p1363
aa(lp1364
S'frozen'
p1365
aasg2
F1.0
ssI52
(dp1366
g1
F-1.0
sg7
(lp1367
(lp1368
S'content'
p1369
aa(lp1370
S'pleased'
p1371
aasg25
(dp1372
(g1369
g1371
tp1373
F-1.0
s(g1371
g1369
tp1374
F1.0
ssg3
F0.0
sg83
(lp1375
(lp1376
S'pleased'
p1377
aa(lp1378
S'content'
p1379
aasg2
F1.0
ssI53
(dp1380
g1
F-1.0
sg7
(lp1381
(lp1382
S'satisfied'
p1383
aa(lp1384
S'happy'
p1385
aasg25
(dp1386
(g1385
g1383
tp1387
F1.0
s(g1383
g1385
tp1388
F-1.0
ssg3
F0.0
sg83
(lp1389
(lp1390
S'happy'
p1391
aa(lp1392
S'satisfied'
p1393
aasg2
F1.0
ssI54
(dp1394
g1
F-1.0
sg7
(lp1395
(lp1396
S'content'
p1397
aa(lp1398
S'pleased'
p1399
aasg25
(dp1400
(g1397
g1399
tp1401
F-1.0
s(g1399
g1397
tp1402
F1.0
ssg3
F0.0
sg83
(lp1403
(lp1404
S'pleased'
p1405
aa(lp1406
S'content'
p1407
aasg2
F1.0
ssI55
(dp1408
g1
F-1.0
sg7
(lp1409
(lp1410
S'satisfied'
p1411
aa(lp1412
S'happy'
p1413
aasg25
(dp1414
(g1413
g1411
tp1415
F1.0
s(g1411
g1413
tp1416
F-1.0
ssg3
F0.0
sg83
(lp1417
(lp1418
S'happy'
p1419
aa(lp1420
S'satisfied'
p1421
aasg2
F1.0
ssI56
(dp1422
g1
F0.3333333333333333
sg7
(lp1423
(lp1424
S'misleading'
p1425
aa(lp1426
S'deceptive'
p1427
aa(lp1428
S'false'
p1429
aasg25
(dp1430
(g1429
g1427
tp1431
F0.0
s(g1427
g1425
tp1432
F-11.10348735337905
s(g1429
g1425
tp1433
F-1.0
s(g1425
g1427
tp1434
F11.10348735337905
s(g1427
g1429
tp1435
F0.0
s(g1425
g1429
tp1436
F1.0
ssg3
F0.6666666666666666
sg83
(lp1437
(lp1438
S'misleading'
p1439
aa(lp1440
S'false'
p1441
aa(lp1442
S'deceptive'
p1443
aasg2
F0.3333333333333333
ssI57
(dp1444
g1
F0.3333333333333333
sg7
(lp1445
(lp1446
S'misleading'
p1447
aa(lp1448
S'fraudulent'
p1449
aa(lp1450
S'false'
p1451
aasg25
(dp1452
(g1447
g1449
tp1453
F1.840136876940798
s(g1451
g1447
tp1454
F-1.0
s(g1451
g1449
tp1455
F0.0
s(g1447
g1451
tp1456
F1.0
s(g1449
g1451
tp1457
F0.0
s(g1449
g1447
tp1458
F-1.840136876940798
ssg3
F0.6666666666666666
sg83
(lp1459
(lp1460
S'misleading'
p1461
aa(lp1462
S'false'
p1463
aa(lp1464
S'fraudulent'
p1465
aasg2
F0.3333333333333333
ssI58
(dp1466
g1
F0.6666666666666666
sg7
(lp1467
(lp1468
S'needed'
p1469
aa(lp1470
S'necessary'
p1471
aa(lp1472
S'required'
p1473
aa(lp1474
S'indispensable'
p1475
aasg25
(dp1476
(g1471
g1475
tp1477
F50.16829634778803
s(g1473
g1475
tp1478
F0.0
s(g1473
g1469
tp1479
F-1.4174104299094286
s(g1473
g1471
tp1480
F1.3005528415635257
s(g1475
g1471
tp1481
F-50.16829634778803
s(g1475
g1469
tp1482
F0.0
s(g1469
g1475
tp1483
F0.0
s(g1469
g1473
tp1484
F1.4174104299094286
s(g1471
g1469
tp1485
F-1.0
s(g1469
g1471
tp1486
F1.0
s(g1475
g1473
tp1487
F0.0
s(g1471
g1473
tp1488
F-1.3005528415635257
ssg3
F0.8333333333333334
sg83
(lp1489
(lp1490
S'needed'
p1491
aa(lp1492
S'required'
p1493
aa(lp1494
S'necessary'
p1495
aa(lp1496
S'indispensable'
p1497
aasg2
F0.6666666666666666
ssI59
(dp1498
g1
F1.0
sg7
(lp1499
(lp1500
S'needed'
p1501
aa(lp1502
S'necessary'
p1503
aa(lp1504
S'essential'
p1505
aa(lp1506
S'indispensable'
p1507
aasg25
(dp1508
(g1503
g1505
tp1509
F11.84833709578381
s(g1503
g1507
tp1510
F50.16829634778803
s(g1505
g1507
tp1511
F0.0
s(g1507
g1501
tp1512
F0.0
s(g1505
g1501
tp1513
F0.0
s(g1501
g1507
tp1514
F0.0
s(g1501
g1505
tp1515
F0.0
s(g1503
g1501
tp1516
F-1.0
s(g1505
g1503
tp1517
F-11.84833709578381
s(g1507
g1505
tp1518
F0.0
s(g1501
g1503
tp1519
F1.0
s(g1507
g1503
tp1520
F-50.16829634778803
ssg3
F1.0
sg83
(lp1521
(lp1522
S'needed'
p1523
aa(lp1524
S'necessary'
p1525
aa(lp1526
S'essential'
p1527
aa(lp1528
S'indispensable'
p1529
aasg2
F1.0
ssI60
(dp1530
g1
F0.0
sg7
(lp1531
(lp1532
S'some'
p1533
aa(lp1534
S'many'
p1535
aa(lp1536
S'numerous'
p1537
aa(lp1538
S'galore'
p1539
aasg25
(dp1540
(g1539
g1537
tp1541
F0.0
s(g1537
g1533
tp1542
F0.0
s(g1535
g1539
tp1543
F0.0
s(g1533
g1539
tp1544
F0.0
s(g1537
g1535
tp1545
F0.0
s(g1535
g1537
tp1546
F0.0
s(g1539
g1533
tp1547
F0.0
s(g1537
g1539
tp1548
F0.0
s(g1539
g1535
tp1549
F0.0
s(g1533
g1537
tp1550
F0.0
s(g1533
g1535
tp1551
F1.0
s(g1535
g1533
tp1552
F-1.0
ssg3
F0.5
sg83
(lp1553
(lp1554
S'some'
p1555
aa(lp1556
g1539
aa(lp1557
g1537
aa(lp1558
S'many'
p1559
aasg2
F0.0
ssI61
(dp1560
g1
F0.3333333333333333
sg7
(lp1561
(lp1562
S'quiet'
p1563
aa(lp1564
S'inaudible'
p1565
aa(lp1566
S'silent'
p1567
aasg25
(dp1568
(g1565
g1567
tp1569
F0.0
s(g1563
g1567
tp1570
F1.0
s(g1567
g1563
tp1571
F-1.0
s(g1563
g1565
tp1572
F3.343941647890469
s(g1565
g1563
tp1573
F-3.343941647890469
s(g1567
g1565
tp1574
F0.0
ssg3
F0.6666666666666666
sg83
(lp1575
(lp1576
S'quiet'
p1577
aa(lp1578
S'silent'
p1579
aa(lp1580
S'inaudible'
p1581
aasg2
F0.3333333333333333
ssI62
(dp1582
g1
F0.3333333333333333
sg7
(lp1583
(lp1584
S'quiet'
p1585
aa(lp1586
S'imperceptible'
p1587
aa(lp1588
S'silent'
p1589
aasg25
(dp1590
(g1587
g1589
tp1591
F0.0
s(g1589
g1587
tp1592
F0.0
s(g1587
g1585
tp1593
F-14.286489483321043
s(g1589
g1585
tp1594
F-1.0
s(g1585
g1589
tp1595
F1.0
s(g1585
g1587
tp1596
F14.286489483321043
ssg3
F0.6666666666666666
sg83
(lp1597
(lp1598
S'quiet'
p1599
aa(lp1600
S'silent'
p1601
aa(lp1602
S'imperceptible'
p1603
aasg2
F0.3333333333333333
ssI63
(dp1604
g1
F0.6666666666666666
sg7
(lp1605
(lp1606
S'wrong'
p1607
aa(lp1608
S'immoral'
p1609
aa(lp1610
S'sinful'
p1611
aa(lp1612
S'evil'
p1613
aasg25
(dp1614
(g1609
g1607
tp1615
F-4.325755359662408
s(g1613
g1607
tp1616
F-1.0
s(g1611
g1613
tp1617
F0.0
s(g1613
g1609
tp1618
F-12.760984015226986
s(g1607
g1613
tp1619
F1.0
s(g1609
g1611
tp1620
F0.0
s(g1611
g1609
tp1621
F0.0
s(g1607
g1609
tp1622
F4.325755359662408
s(g1607
g1611
tp1623
F14.11727378735733
s(g1611
g1607
tp1624
F-14.11727378735733
s(g1613
g1611
tp1625
F0.0
s(g1609
g1613
tp1626
F12.760984015226986
ssg3
F0.8333333333333334
sg83
(lp1627
(lp1628
S'wrong'
p1629
aa(lp1630
S'immoral'
p1631
aa(lp1632
S'evil'
p1633
aa(lp1634
S'sinful'
p1635
aasg2
F0.6666666666666666
ssI64
(dp1636
g1
F0.6190476190476191
sg7
(lp1637
(lp1638
S'lean'
p1639
aa(lp1640
S'slim'
p1641
aa(lp1642
S'thin'
p1643
aa(lp1644
S'skinny'
p1645
aa(lp1646
S'gaunt'
p1647
aa(lp1648
S'emaciated'
p1649
aa(lp1650
S'skeletal'
p1651
aasg25
(dp1652
(g1639
g1643
tp1653
F0.0
s(g1643
g1647
tp1654
F21.645459775132007
s(g1645
g1643
tp1655
F-3.6844653439480815
s(g1639
g1647
tp1656
F0.0
s(g1649
g1651
tp1657
F0.0
s(g1645
g1651
tp1658
F0.0
s(g1643
g1651
tp1659
F1.0
s(g1651
g1641
tp1660
F0.0
s(g1651
g1647
tp1661
F0.0
s(g1649
g1639
tp1662
F0.0
s(g1645
g1649
tp1663
F0.0
s(g1651
g1649
tp1664
F0.0
s(g1641
g1649
tp1665
F0.0
s(g1649
g1647
tp1666
F0.0
s(g1639
g1645
tp1667
F2.9101132280809883
s(g1641
g1651
tp1668
F0.0
s(g1639
g1649
tp1669
F0.0
s(g1641
g1645
tp1670
F9.598429678480583
s(g1647
g1643
tp1671
F-21.645459775132007
s(g1641
g1643
tp1672
F0.0
s(g1645
g1639
tp1673
F-2.9101132280809883
s(g1651
g1639
tp1674
F0.0
s(g1647
g1641
tp1675
F0.0
s(g1645
g1647
tp1676
F0.0
s(g1643
g1645
tp1677
F3.6844653439480815
s(g1639
g1641
tp1678
F0.0
s(g1643
g1641
tp1679
F0.0
s(g1647
g1649
tp1680
F0.0
s(g1647
g1645
tp1681
F0.0
s(g1649
g1643
tp1682
F-25.340360498762458
s(g1643
g1649
tp1683
F25.340360498762458
s(g1647
g1651
tp1684
F0.0
s(g1649
g1645
tp1685
F0.0
s(g1639
g1651
tp1686
F0.0
s(g1651
g1645
tp1687
F0.0
s(g1649
g1641
tp1688
F0.0
s(g1647
g1639
tp1689
F0.0
s(g1645
g1641
tp1690
F-9.598429678480583
s(g1641
g1647
tp1691
F0.0
s(g1651
g1643
tp1692
F-1.0
s(g1643
g1639
tp1693
F0.0
s(g1641
g1639
tp1694
F0.0
ssg3
F0.8095238095238095
sg83
(lp1695
(lp1696
S'thin'
p1697
aa(lp1698
S'slim'
p1699
aa(lp1700
S'lean'
p1701
aa(lp1702
S'skinny'
p1703
aa(lp1704
S'gaunt'
p1705
aa(lp1706
S'skeletal'
p1707
aa(lp1708
S'emaciated'
p1709
aasg2
F0.6190476190476191
ssI65
(dp1710
g1
F1.0
sg7
(lp1711
(lp1712
S'statewide'
p1713
aa(lp1714
S'nationwide'
p1715
aa(lp1716
S'worldwide'
p1717
aasg25
(dp1718
(g1715
g1713
tp1719
F-1.0
s(g1713
g1715
tp1720
F1.0
s(g1715
g1717
tp1721
F4.28883128991468
s(g1717
g1713
tp1722
F0.0
s(g1717
g1715
tp1723
F-4.28883128991468
s(g1713
g1717
tp1724
F0.0
ssg3
F1.0
sg83
(lp1725
(lp1726
S'statewide'
p1727
aa(lp1728
S'nationwide'
p1729
aa(lp1730
S'worldwide'
p1731
aasg2
F1.0
ssI66
(dp1732
g1
F0.6666666666666666
sg7
(lp1733
(lp1734
S'warm'
p1735
aa(lp1736
S'hot'
p1737
aa(lp1738
S'overheated'
p1739
aa(lp1740
S'stifling'
p1741
aasg25
(dp1742
(g1735
g1737
tp1743
F1.0
s(g1741
g1735
tp1744
F-1.5461331620265044
s(g1741
g1737
tp1745
F0.0
s(g1739
g1741
tp1746
F0.0
s(g1737
g1741
tp1747
F0.0
s(g1739
g1735
tp1748
F-8.81172904535477
s(g1737
g1739
tp1749
F0.0
s(g1741
g1739
tp1750
F0.0
s(g1735
g1741
tp1751
F1.5461331620265044
s(g1737
g1735
tp1752
F-1.0
s(g1735
g1739
tp1753
F8.81172904535477
s(g1739
g1737
tp1754
F0.0
ssg3
F0.8333333333333334
sg83
(lp1755
(lp1756
S'warm'
p1757
aa(lp1758
S'overheated'
p1759
aa(lp1760
S'hot'
p1761
aa(lp1762
S'stifling'
p1763
aasg2
F0.6666666666666666
ssI67
(dp1764
g1
F0.0
sg7
(lp1765
(lp1766
S'warm'
p1767
aa(lp1768
S'hot'
p1769
aa(lp1770
S'overheated'
p1771
aa(lp1772
S'sultry'
p1773
aasg25
(dp1774
(g1773
g1767
tp1775
F-1.5729380827443076
s(g1767
g1769
tp1776
F1.0
s(g1773
g1769
tp1777
F0.0
s(g1767
g1773
tp1778
F1.5729380827443076
s(g1771
g1767
tp1779
F-8.81172904535477
s(g1769
g1771
tp1780
F0.0
s(g1769
g1773
tp1781
F0.0
s(g1769
g1767
tp1782
F-1.0
s(g1771
g1773
tp1783
F0.0
s(g1767
g1771
tp1784
F8.81172904535477
s(g1771
g1769
tp1785
F0.0
s(g1773
g1771
tp1786
F0.0
ssg3
F0.5
sg83
(lp1787
(lp1788
S'warm'
p1789
aa(lp1790
S'sultry'
p1791
aa(lp1792
S'overheated'
p1793
aa(lp1794
S'hot'
p1795
aasg2
F0.0
ssI68
(dp1796
g1
F0.3333333333333333
sg7
(lp1797
(lp1798
S'easy'
p1799
aa(lp1800
S'painless'
p1801
aa(lp1802
S'effortless'
p1803
aasg25
(dp1804
(g1799
g1803
tp1805
F1.2604977599532954
s(g1803
g1801
tp1806
F0.0
s(g1803
g1799
tp1807
F-1.2604977599532954
s(g1801
g1799
tp1808
F-1.0
s(g1801
g1803
tp1809
F0.0
s(g1799
g1801
tp1810
F1.0
ssg3
F0.6666666666666666
sg83
(lp1811
(lp1812
S'easy'
p1813
aa(lp1814
S'effortless'
p1815
aa(lp1816
S'painless'
p1817
aasg2
F0.3333333333333333
ssI69
(dp1818
g1
F0.3333333333333333
sg7
(lp1819
(lp1820
S'simple'
p1821
aa(lp1822
S'painless'
p1823
aa(lp1824
S'effortless'
p1825
aasg25
(dp1826
(g1821
g1825
tp1827
F0.0
s(g1823
g1821
tp1828
F-1.0
s(g1825
g1823
tp1829
F0.0
s(g1821
g1823
tp1830
F1.0
s(g1825
g1821
tp1831
F0.0
s(g1823
g1825
tp1832
F0.0
ssg3
F0.6666666666666666
sg83
(lp1833
(lp1834
S'simple'
p1835
aa(lp1836
g1825
aa(lp1837
S'painless'
p1838
aasg2
F0.3333333333333333
ssI70
(dp1839
g1
F0.3333333333333333
sg7
(lp1840
(lp1841
S'smooth'
p1842
aa(lp1843
S'painless'
p1844
aa(lp1845
S'effortless'
p1846
aasg25
(dp1847
(g1846
g1844
tp1848
F0.0
s(g1844
g1846
tp1849
F0.0
s(g1842
g1844
tp1850
F0.0
s(g1846
g1842
tp1851
F-1.0
s(g1842
g1846
tp1852
F1.0
s(g1844
g1842
tp1853
F0.0
ssg3
F0.6666666666666666
sg83
(lp1854
(lp1855
S'smooth'
p1856
aa(lp1857
S'effortless'
p1858
aa(lp1859
g1844
aasg2
F0.3333333333333333
ssI71
(dp1860
g1
F1.0
sg7
(lp1861
(lp1862
S'plain'
p1863
aa(lp1864
S'unattractive'
p1865
aa(lp1866
S'ugly'
p1867
aasg25
(dp1868
(g1867
g1863
tp1869
F-1.0606195783940524
s(g1865
g1867
tp1870
F0.0
s(g1863
g1865
tp1871
F1.0
s(g1865
g1863
tp1872
F-1.0
s(g1867
g1865
tp1873
F0.0
s(g1863
g1867
tp1874
F1.0606195783940524
ssg3
F1.0
sg83
(lp1875
(lp1876
S'plain'
p1877
aa(lp1878
S'unattractive'
p1879
aa(lp1880
S'ugly'
p1881
aasg2
F1.0
ssI72
(dp1882
g1
F1.0
sg7
(lp1883
(lp1884
S'like'
p1885
aa(lp1886
S'equal'
p1887
aa(lp1888
S'same'
p1889
aasg25
(dp1890
(g1889
g1885
tp1891
F-1.0
s(g1887
g1889
tp1892
F9.17370446545794
s(g1885
g1887
tp1893
F0.0
s(g1889
g1887
tp1894
F-9.17370446545794
s(g1887
g1885
tp1895
F0.0
s(g1885
g1889
tp1896
F1.0
ssg3
F1.0
sg83
(lp1897
(lp1898
S'like'
p1899
aa(lp1900
S'equal'
p1901
aa(lp1902
S'same'
p1903
aasg2
F1.0
ssI73
(dp1904
g1
F0.3333333333333333
sg7
(lp1905
(lp1906
S'broad'
p1907
aa(lp1908
S'general'
p1909
aa(lp1910
S'universal'
p1911
aasg25
(dp1912
(g1911
g1909
tp1913
F-1.2699824873643144
s(g1907
g1909
tp1914
F0.0
s(g1909
g1911
tp1915
F1.2699824873643144
s(g1907
g1911
tp1916
F1.0
s(g1909
g1907
tp1917
F0.0
s(g1911
g1907
tp1918
F-1.0
ssg3
F0.6666666666666666
sg83
(lp1919
(lp1920
S'general'
p1921
aa(lp1922
S'broad'
p1923
aa(lp1924
S'universal'
p1925
aasg2
F0.3333333333333333
ssI74
(dp1926
g1
F1.0
sg7
(lp1927
(lp1928
S'widespread'
p1929
aa(lp1930
S'general'
p1931
aa(lp1932
S'universal'
p1933
aasg25
(dp1934
(g1929
g1931
tp1935
F0.0
s(g1929
g1933
tp1936
F29.06897665348022
s(g1931
g1933
tp1937
F1.0
s(g1933
g1931
tp1938
F-1.0
s(g1933
g1929
tp1939
F-29.06897665348022
s(g1931
g1929
tp1940
F0.0
ssg3
F1.0
sg83
(lp1941
(lp1942
S'widespread'
p1943
aa(lp1944
S'general'
p1945
aa(lp1946
S'universal'
p1947
aasg2
F1.0
ssI75
(dp1948
g1
F1.0
sg7
(lp1949
(lp1950
S'cheap'
p1951
aa(lp1952
S'bad'
p1953
aa(lp1954
S'worst'
p1955
aasg25
(dp1956
(g1955
g1951
tp1957
F0.0
s(g1953
g1951
tp1958
F-1.0
s(g1951
g1953
tp1959
F1.0
s(g1951
g1955
tp1960
F0.0
s(g1955
g1953
tp1961
F-2.828453462131107
s(g1953
g1955
tp1962
F2.828453462131107
ssg3
F1.0
sg83
(lp1963
(lp1964
S'cheap'
p1965
aa(lp1966
S'bad'
p1967
aa(lp1968
S'worst'
p1969
aasg2
F1.0
ssI76
(dp1970
g1
F-0.3333333333333333
sg7
(lp1971
(lp1972
S'mediocre'
p1973
aa(lp1974
S'bad'
p1975
aa(lp1976
S'worst'
p1977
aasg25
(dp1978
(g1977
g1973
tp1979
F0.0
s(g1973
g1977
tp1980
F0.0
s(g1975
g1973
tp1981
F15.556609298569752
s(g1977
g1975
tp1982
F-1.0
s(g1975
g1977
tp1983
F1.0
s(g1973
g1975
tp1984
F-15.556609298569752
ssg3
F0.3333333333333333
sg83
(lp1985
(lp1986
S'bad'
p1987
aa(lp1988
S'worst'
p1989
aa(lp1990
S'mediocre'
p1991
aasg2
F0.3333333333333333
ssI77
(dp1992
g1
F0.0
sg7
(lp1993
(lp1994
S'handsome'
p1995
aa(lp1996
S'beautiful'
p1997
aasg25
(dp1998
(g1995
g1997
tp1999
F0.0
s(g1997
g1995
tp2000
F0.0
ssg3
F0.0
sg83
(lp2001
(lp2002
g1995
ag1997
aasg2
F0.0
ssI78
(dp2003
g1
F0.0
sg7
(lp2004
(lp2005
S'lovely'
p2006
aa(lp2007
S'pretty'
p2008
aasg25
(dp2009
(g2008
g2006
tp2010
F0.0
s(g2006
g2008
tp2011
F0.0
ssg3
F0.0
sg83
(lp2012
(lp2013
g2006
ag2008
aasg2
F0.0
ssI79
(dp2014
g1
F0.0
sg7
(lp2015
(lp2016
S'gorgeous'
p2017
aa(lp2018
S'attractive'
p2019
aasg25
(dp2020
(g2017
g2019
tp2021
F0.0
s(g2019
g2017
tp2022
F0.0
ssg3
F0.0
sg83
(lp2023
(lp2024
g2017
ag2019
aasg2
F0.0
ssI80
(dp2025
g1
F0.0
sg7
(lp2026
(lp2027
S'handsome'
p2028
aa(lp2029
S'beautiful'
p2030
aasg25
(dp2031
(g2028
g2030
tp2032
F0.0
s(g2030
g2028
tp2033
F0.0
ssg3
F0.0
sg83
(lp2034
(lp2035
g2028
ag2030
aasg2
F0.0
ssI81
(dp2036
g1
F0.0
sg7
(lp2037
(lp2038
S'lovely'
p2039
aa(lp2040
S'pretty'
p2041
aasg25
(dp2042
(g2041
g2039
tp2043
F0.0
s(g2039
g2041
tp2044
F0.0
ssg3
F0.0
sg83
(lp2045
(lp2046
g2039
ag2041
aasg2
F0.0
ssI82
(dp2047
g1
F0.0
sg7
(lp2048
(lp2049
S'gorgeous'
p2050
aa(lp2051
S'attractive'
p2052
aasg25
(dp2053
(g2050
g2052
tp2054
F0.0
s(g2052
g2050
tp2055
F0.0
ssg3
F0.0
sg83
(lp2056
(lp2057
g2050
ag2052
aasg2
F0.0
ssI83
(dp2058
g1
F0.0
sg7
(lp2059
(lp2060
S'handsome'
p2061
aa(lp2062
S'beautiful'
p2063
aasg25
(dp2064
(g2061
g2063
tp2065
F0.0
s(g2063
g2061
tp2066
F0.0
ssg3
F0.0
sg83
(lp2067
(lp2068
g2061
ag2063
aasg2
F0.0
ssI84
(dp2069
g1
F0.0
sg7
(lp2070
(lp2071
S'lovely'
p2072
aa(lp2073
S'pretty'
p2074
aasg25
(dp2075
(g2074
g2072
tp2076
F0.0
s(g2072
g2074
tp2077
F0.0
ssg3
F0.0
sg83
(lp2078
(lp2079
g2072
ag2074
aasg2
F0.0
ssI85
(dp2080
g1
F0.0
sg7
(lp2081
(lp2082
S'gorgeous'
p2083
aa(lp2084
S'attractive'
p2085
aasg25
(dp2086
(g2083
g2085
tp2087
F0.0
s(g2085
g2083
tp2088
F0.0
ssg3
F0.0
sg83
(lp2089
(lp2090
g2083
ag2085
aasg2
F0.0
ssI86
(dp2091
g1
F1.0
sg7
(lp2092
(lp2093
S'thick'
p2094
aa(lp2095
S'dense'
p2096
aa(lp2097
S'impenetrable'
p2098
aasg25
(dp2099
(g2098
g2096
tp2100
F-7.703793346574309
s(g2098
g2094
tp2101
F-1.0
s(g2096
g2098
tp2102
F7.703793346574309
s(g2096
g2094
tp2103
F0.0
s(g2094
g2096
tp2104
F0.0
s(g2094
g2098
tp2105
F1.0
ssg3
F1.0
sg83
(lp2106
(lp2107
S'thick'
p2108
aa(lp2109
S'dense'
p2110
aa(lp2111
S'impenetrable'
p2112
aasg2
F1.0
ssI87
(dp2113
g1
F0.3333333333333333
sg7
(lp2114
(lp2115
S'soft'
p2116
aa(lp2117
S'quiet'
p2118
aa(lp2119
S'inaudible'
p2120
aa(lp2121
S'silent'
p2122
aasg25
(dp2123
(g2116
g2122
tp2124
F0.0
s(g2120
g2122
tp2125
F0.0
s(g2120
g2116
tp2126
F-2.685925676648229
s(g2116
g2120
tp2127
F2.685925676648229
s(g2122
g2118
tp2128
F-1.0
s(g2118
g2120
tp2129
F3.343941647890469
s(g2118
g2122
tp2130
F1.0
s(g2120
g2118
tp2131
F-3.343941647890469
s(g2118
g2116
tp2132
F0.0
s(g2116
g2118
tp2133
F0.0
s(g2122
g2116
tp2134
F0.0
s(g2122
g2120
tp2135
F0.0
ssg3
F0.6666666666666666
sg83
(lp2136
(lp2137
S'quiet'
p2138
aa(lp2139
S'soft'
p2140
aa(lp2141
S'silent'
p2142
aa(lp2143
S'inaudible'
p2144
aasg2
F0.3333333333333333
ssI88
(dp2145
g1
F0.3333333333333333
sg7
(lp2146
(lp2147
S'cool'
p2148
aa(lp2149
S'unfriendly'
p2150
aa(lp2151
S'hostile'
p2152
aasg25
(dp2153
(g2152
g2148
tp2154
F-1.0
s(g2148
g2150
tp2155
F0.0
s(g2150
g2152
tp2156
F132.14465313154818
s(g2148
g2152
tp2157
F1.0
s(g2152
g2150
tp2158
F-132.14465313154818
s(g2150
g2148
tp2159
F0.0
ssg3
F0.6666666666666666
sg83
(lp2160
(lp2161
S'unfriendly'
p2162
aa(lp2163
S'cool'
p2164
aa(lp2165
S'hostile'
p2166
aasg2
F0.3333333333333333
ssI89
(dp2167
g1
F-0.3333333333333333
sg7
(lp2168
(lp2169
S'chilly'
p2170
aa(lp2171
S'unfriendly'
p2172
aa(lp2173
S'hostile'
p2174
aasg25
(dp2175
(g2170
g2172
tp2176
F0.0
s(g2170
g2174
tp2177
F0.0
s(g2174
g2170
tp2178
F0.0
s(g2172
g2174
tp2179
F1.0
s(g2174
g2172
tp2180
F-1.0
s(g2172
g2170
tp2181
F0.0
ssg3
F0.3333333333333333
sg83
(lp2182
(lp2183
S'unfriendly'
p2184
aa(lp2185
S'hostile'
p2186
aa(lp2187
g2170
aasg2
F0.3333333333333333
ssI90
(dp2188
g1
F1.0
sg7
(lp2189
(lp2190
S'sizeable'
p2191
aa(lp2192
S'big'
p2193
aa(lp2194
S'huge'
p2195
aa(lp2196
S'colossal'
p2197
aasg25
(dp2198
(g2197
g2193
tp2199
F0.0
s(g2197
g2191
tp2200
F0.0
s(g2191
g2195
tp2201
F10.294259795468358
s(g2193
g2195
tp2202
F1.0
s(g2197
g2195
tp2203
F-10.243450487122024
s(g2193
g2197
tp2204
F0.0
s(g2193
g2191
tp2205
F0.0
s(g2191
g2197
tp2206
F0.0
s(g2195
g2197
tp2207
F10.243450487122024
s(g2191
g2193
tp2208
F0.0
s(g2195
g2193
tp2209
F-1.0
s(g2195
g2191
tp2210
F-10.294259795468358
ssg3
F1.0
sg83
(lp2211
(lp2212
S'sizeable'
p2213
aa(lp2214
S'big'
p2215
aa(lp2216
S'huge'
p2217
aa(lp2218
S'colossal'
p2219
aasg2
F1.0
ssI91
(dp2220
g1
F1.0
sg7
(lp2221
(lp2222
S'sizeable'
p2223
aa(lp2224
S'large'
p2225
aa(lp2226
S'huge'
p2227
aa(lp2228
S'colossal'
p2229
aasg25
(dp2230
(g2225
g2227
tp2231
F1.0
s(g2229
g2223
tp2232
F0.0
s(g2225
g2229
tp2233
F0.0
s(g2229
g2227
tp2234
F-20.177201738386493
s(g2225
g2223
tp2235
F0.0
s(g2223
g2227
tp2236
F20.277284192631846
s(g2223
g2229
tp2237
F0.0
s(g2227
g2229
tp2238
F20.177201738386493
s(g2227
g2223
tp2239
F-20.277284192631846
s(g2223
g2225
tp2240
F0.0
s(g2229
g2225
tp2241
F0.0
s(g2227
g2225
tp2242
F-1.0
ssg3
F1.0
sg83
(lp2243
(lp2244
S'sizeable'
p2245
aa(lp2246
S'large'
p2247
aa(lp2248
S'huge'
p2249
aa(lp2250
S'colossal'
p2251
aasg2
F1.0
ssI92
(dp2252
g1
F1.0
sg7
(lp2253
(lp2254
S'dual'
p2255
aa(lp2256
S'triple'
p2257
aa(lp2258
S'quadruple'
p2259
aasg25
(dp2260
(g2257
g2255
tp2261
F-1.0
s(g2255
g2257
tp2262
F1.0
s(g2255
g2259
tp2263
F0.0
s(g2257
g2259
tp2264
F1292.5861729117114
s(g2259
g2257
tp2265
F-1292.5861729117114
s(g2259
g2255
tp2266
F0.0
ssg3
F1.0
sg83
(lp2267
(lp2268
S'dual'
p2269
aa(lp2270
S'triple'
p2271
aa(lp2272
S'quadruple'
p2273
aasg2
F1.0
ssI93
(dp2274
g1
F1.0
sg7
(lp2275
(lp2276
S'double'
p2277
aa(lp2278
S'treble'
p2279
aa(lp2280
S'quadruple'
p2281
aasg25
(dp2282
(g2277
g2279
tp2283
F1.0
s(g2277
g2281
tp2284
F7.538266438468242
s(g2279
g2281
tp2285
F6.96521602718211
s(g2281
g2279
tp2286
F-6.96521602718211
s(g2279
g2277
tp2287
F-1.0
s(g2281
g2277
tp2288
F-7.538266438468242
ssg3
F1.0
sg83
(lp2289
(lp2290
S'double'
p2291
aa(lp2292
S'treble'
p2293
aa(lp2294
S'quadruple'
p2295
aasg2
F1.0
ssI94
(dp2296
g1
F1.0
sg7
(lp2297
(lp2298
S'doubled'
p2299
aa(lp2300
S'triple'
p2301
aa(lp2302
S'quadruple'
p2303
aasg25
(dp2304
(g2303
g2299
tp2305
F0.0
s(g2301
g2299
tp2306
F-1.0
s(g2299
g2303
tp2307
F0.0
s(g2301
g2303
tp2308
F599.1239524463745
s(g2299
g2301
tp2309
F1.0
s(g2303
g2301
tp2310
F-599.1239524463745
ssg3
F1.0
sg83
(lp2311
(lp2312
S'doubled'
p2313
aa(lp2314
S'triple'
p2315
aa(lp2316
S'quadruple'
p2317
aasg2
F1.0
ssI95
(dp2318
g1
F0.3333333333333333
sg7
(lp2319
(lp2320
S'dual'
p2321
aa(lp2322
S'treble'
p2323
aa(lp2324
S'quadruple'
p2325
aasg25
(dp2326
(g2323
g2321
tp2327
F0.0
s(g2323
g2325
tp2328
F1.0
s(g2321
g2325
tp2329
F0.0
s(g2325
g2323
tp2330
F-1.0
s(g2321
g2323
tp2331
F0.0
s(g2325
g2321
tp2332
F0.0
ssg3
F0.6666666666666666
sg83
(lp2333
(lp2334
S'treble'
p2335
aa(lp2336
g2321
aa(lp2337
S'quadruple'
p2338
aasg2
F0.3333333333333333
ssI96
(dp2339
g1
F1.0
sg7
(lp2340
(lp2341
S'double'
p2342
aa(lp2343
S'triple'
p2344
aa(lp2345
S'quadruple'
p2346
aasg25
(dp2347
(g2342
g2346
tp2348
F1.9194777236799285
s(g2342
g2344
tp2349
F1.0
s(g2344
g2346
tp2350
F33.27460179606824
s(g2344
g2342
tp2351
F-1.0
s(g2346
g2342
tp2352
F-1.9194777236799285
s(g2346
g2344
tp2353
F-33.27460179606824
ssg3
F1.0
sg83
(lp2354
(lp2355
S'double'
p2356
aa(lp2357
S'triple'
p2358
aa(lp2359
S'quadruple'
p2360
aasg2
F1.0
ssI97
(dp2361
g1
F0.3333333333333333
sg7
(lp2362
(lp2363
S'doubled'
p2364
aa(lp2365
S'treble'
p2366
aa(lp2367
S'quadruple'
p2368
aasg25
(dp2369
(g2366
g2368
tp2370
F1.0
s(g2366
g2364
tp2371
F0.0
s(g2364
g2368
tp2372
F0.0
s(g2364
g2366
tp2373
F0.0
s(g2368
g2364
tp2374
F0.0
s(g2368
g2366
tp2375
F-1.0
ssg3
F0.6666666666666666
sg83
(lp2376
(lp2377
S'treble'
p2378
aa(lp2379
g2364
aa(lp2380
S'quadruple'
p2381
aasg2
F0.3333333333333333
ssI98
(dp2382
g1
F1.0
sg7
(lp2383
(lp2384
S'creepy'
p2385
aa(lp2386
S'scary'
p2387
aa(lp2388
S'terrifying'
p2389
aa(lp2390
S'sinister'
p2391
aasg25
(dp2392
(g2385
g2391
tp2393
F0.0
s(g2387
g2389
tp2394
F0.0
s(g2391
g2385
tp2395
F0.0
s(g2389
g2387
tp2396
F0.0
s(g2391
g2389
tp2397
F0.0
s(g2387
g2385
tp2398
F-1.0
s(g2389
g2385
tp2399
F0.0
s(g2385
g2387
tp2400
F1.0
s(g2391
g2387
tp2401
F-2.334458924698252
s(g2385
g2389
tp2402
F0.0
s(g2389
g2391
tp2403
F0.0
s(g2387
g2391
tp2404
F2.334458924698252
ssg3
F1.0
sg83
(lp2405
(lp2406
S'creepy'
p2407
aa(lp2408
S'scary'
p2409
aa(lp2410
g2389
aa(lp2411
S'sinister'
p2412
aasg2
F1.0
ssI99
(dp2413
g1
F0.6666666666666666
sg7
(lp2414
(lp2415
S'creepy'
p2416
aa(lp2417
S'frightening'
p2418
aa(lp2419
S'terrifying'
p2420
aa(lp2421
S'sinister'
p2422
aasg25
(dp2423
(g2416
g2422
tp2424
F0.0
s(g2416
g2418
tp2425
F0.0
s(g2422
g2416
tp2426
F0.0
s(g2418
g2422
tp2427
F0.0
s(g2420
g2418
tp2428
F-1.0
s(g2422
g2420
tp2429
F0.0
s(g2422
g2418
tp2430
F0.0
s(g2418
g2420
tp2431
F1.0
s(g2418
g2416
tp2432
F0.0
s(g2416
g2420
tp2433
F0.0
s(g2420
g2422
tp2434
F0.0
s(g2420
g2416
tp2435
F0.0
ssg3
F0.8333333333333334
sg83
(lp2436
(lp2437
S'frightening'
p2438
aa(lp2439
g2416
aa(lp2440
S'terrifying'
p2441
aa(lp2442
g2422
aasg2
F0.6666666666666666
ssI100
(dp2443
g1
F-0.3333333333333333
sg7
(lp2444
(lp2445
S'some'
p2446
aa(lp2447
S'few'
p2448
aa(lp2449
S'fewer'
p2450
aasg25
(dp2451
(g2450
g2448
tp2452
F-7.337959373896068
s(g2446
g2450
tp2453
F0.0
s(g2450
g2446
tp2454
F0.0
s(g2446
g2448
tp2455
F-1.0
s(g2448
g2446
tp2456
F1.0
s(g2448
g2450
tp2457
F7.337959373896068
ssg3
F0.3333333333333333
sg83
(lp2458
(lp2459
S'few'
p2460
aa(lp2461
S'fewer'
p2462
aa(lp2463
S'some'
p2464
aasg2
F0.3333333333333333
ssI101
(dp2465
g1
F0.3333333333333333
sg7
(lp2466
(lp2467
S'neglected'
p2468
aa(lp2469
S'ignored'
p2470
aa(lp2471
S'forgotten'
p2472
aasg25
(dp2473
(g2468
g2470
tp2474
F1.0
s(g2470
g2468
tp2475
F-1.0
s(g2470
g2472
tp2476
F0.0
s(g2472
g2470
tp2477
F0.0
s(g2472
g2468
tp2478
F-3.7117792444298927
s(g2468
g2472
tp2479
F3.7117792444298927
ssg3
F0.6666666666666666
sg83
(lp2480
(lp2481
S'neglected'
p2482
aa(lp2483
S'forgotten'
p2484
aa(lp2485
S'ignored'
p2486
aasg2
F0.3333333333333333
ssI102
(dp2487
g1
F0.3333333333333333
sg7
(lp2488
(lp2489
S'neglected'
p2490
aa(lp2491
S'overlooked'
p2492
aa(lp2493
S'forgotten'
p2494
aasg25
(dp2495
(g2494
g2492
tp2496
F-1.0
s(g2492
g2490
tp2497
F0.0
s(g2494
g2490
tp2498
F-1.1294660465454827
s(g2492
g2494
tp2499
F1.0
s(g2490
g2492
tp2500
F0.0
s(g2490
g2494
tp2501
F1.1294660465454827
ssg3
F0.6666666666666666
sg83
(lp2502
(lp2503
S'overlooked'
p2504
aa(lp2505
S'neglected'
p2506
aa(lp2507
S'forgotten'
p2508
aasg2
F0.3333333333333333
ssI103
(dp2509
g1
F1.0
sg7
(lp2510
(lp2511
S'old'
p2512
aa(lp2513
S'obsolete'
p2514
aasg25
(dp2515
(g2512
g2514
tp2516
F1.0
s(g2514
g2512
tp2517
F-1.0
ssg3
F1.0
sg83
(lp2518
(lp2519
S'old'
p2520
aa(lp2521
S'obsolete'
p2522
aasg2
F1.0
ssI104
(dp2523
g1
F1.0
sg7
(lp2524
(lp2525
S'old'
p2526
aa(lp2527
S'outdated'
p2528
aasg25
(dp2529
(g2528
g2526
tp2530
F-1.0
s(g2526
g2528
tp2531
F1.0
ssg3
F1.0
sg83
(lp2532
(lp2533
S'old'
p2534
aa(lp2535
S'outdated'
p2536
aasg2
F1.0
ssI105
(dp2537
g1
F0.6666666666666666
sg7
(lp2538
(lp2539
S'necessary'
p2540
aa(lp2541
S'vital'
p2542
aa(lp2543
S'indispensable'
p2544
aa(lp2545
S'critical'
p2546
aasg25
(dp2547
(g2546
g2542
tp2548
F0.0
s(g2540
g2544
tp2549
F60.51396113313182
s(g2540
g2542
tp2550
F18.9167324091182
s(g2540
g2546
tp2551
F1.0
s(g2544
g2542
tp2552
F0.0
s(g2542
g2540
tp2553
F-18.9167324091182
s(g2546
g2544
tp2554
F0.0
s(g2546
g2540
tp2555
F-1.0
s(g2542
g2544
tp2556
F0.0
s(g2544
g2540
tp2557
F-60.51396113313182
s(g2544
g2546
tp2558
F0.0
s(g2542
g2546
tp2559
F0.0
ssg3
F0.8333333333333334
sg83
(lp2560
(lp2561
S'necessary'
p2562
aa(lp2563
S'vital'
p2564
aa(lp2565
S'critical'
p2566
aa(lp2567
S'indispensable'
p2568
aasg2
F0.6666666666666666
ssI106
(dp2569
g1
F1.0
sg7
(lp2570
(lp2571
S'attractive'
p2572
aa(lp2573
S'beautiful'
p2574
aa(lp2575
S'mesmerizing'
p2576
aasg25
(dp2577
(g2574
g2572
tp2578
F-1.0
s(g2572
g2574
tp2579
F1.0
s(g2574
g2576
tp2580
F13.85547670483845
s(g2572
g2576
tp2581
F0.0
s(g2576
g2574
tp2582
F-13.85547670483845
s(g2576
g2572
tp2583
F0.0
ssg3
F1.0
sg83
(lp2584
(lp2585
S'attractive'
p2586
aa(lp2587
S'beautiful'
p2588
aa(lp2589
S'mesmerizing'
p2590
aasg2
F1.0
ssI107
(dp2591
g1
F0.3333333333333333
sg7
(lp2592
(lp2593
S'attractive'
p2594
aa(lp2595
S'beautiful'
p2596
aa(lp2597
S'seductive'
p2598
aasg25
(dp2599
(g2598
g2596
tp2600
F0.0
s(g2596
g2598
tp2601
F0.0
s(g2596
g2594
tp2602
F-1.0
s(g2594
g2596
tp2603
F1.0
s(g2598
g2594
tp2604
F-9.075507502348328
s(g2594
g2598
tp2605
F9.075507502348328
ssg3
F0.6666666666666666
sg83
(lp2606
(lp2607
S'attractive'
p2608
aa(lp2609
S'seductive'
p2610
aa(lp2611
S'beautiful'
p2612
aasg2
F0.3333333333333333
ssI108
(dp2613
g1
F0.3333333333333333
sg7
(lp2614
(lp2615
S'closed'
p2616
aa(lp2617
S'shut'
p2618
aa(lp2619
S'sealed'
p2620
aasg25
(dp2621
(g2620
g2618
tp2622
F0.0
s(g2620
g2616
tp2623
F-7.395170090457673
s(g2616
g2620
tp2624
F7.395170090457673
s(g2618
g2620
tp2625
F0.0
s(g2616
g2618
tp2626
F1.0
s(g2618
g2616
tp2627
F-1.0
ssg3
F0.6666666666666666
sg83
(lp2628
(lp2629
S'closed'
p2630
aa(lp2631
S'sealed'
p2632
aa(lp2633
S'shut'
p2634
aasg2
F0.3333333333333333
ssI109
(dp2635
g1
F1.0
sg7
(lp2636
(lp2637
S'unexpected'
p2638
aa(lp2639
S'astonishing'
p2640
aasg25
(dp2641
(g2638
g2640
tp2642
F1.0
s(g2640
g2638
tp2643
F-1.0
ssg3
F1.0
sg83
(lp2644
(lp2645
S'unexpected'
p2646
aa(lp2647
S'astonishing'
p2648
aasg2
F1.0
ssI110
(dp2649
g1
F1.0
sg7
(lp2650
(lp2651
S'unexpected'
p2652
aa(lp2653
S'stunning'
p2654
aasg25
(dp2655
(g2652
g2654
tp2656
F1.0
s(g2654
g2652
tp2657
F-1.0
ssg3
F1.0
sg83
(lp2658
(lp2659
S'unexpected'
p2660
aa(lp2661
S'stunning'
p2662
aasg2
F1.0
ssI111
(dp2663
g1
F1.0
sg7
(lp2664
(lp2665
S'indecent'
p2666
aa(lp2667
S'profane'
p2668
aa(lp2669
S'obscene'
p2670
aasg25
(dp2671
(g2670
g2666
tp2672
F-14.81582849073841
s(g2670
g2668
tp2673
F0.0
s(g2666
g2668
tp2674
F1.0
s(g2666
g2670
tp2675
F14.81582849073841
s(g2668
g2670
tp2676
F0.0
s(g2668
g2666
tp2677
F-1.0
ssg3
F1.0
sg83
(lp2678
(lp2679
S'indecent'
p2680
aa(lp2681
S'profane'
p2682
aa(lp2683
S'obscene'
p2684
aasg2
F1.0
ssI112
(dp2685
g1
F0.3333333333333333
sg7
(lp2686
(lp2687
S'attractive'
p2688
aa(lp2689
S'sexy'
p2690
aa(lp2691
S'seductive'
p2692
aasg25
(dp2693
(g2688
g2690
tp2694
F1.0
s(g2688
g2692
tp2695
F47.4824260009554
s(g2692
g2688
tp2696
F-47.4824260009554
s(g2692
g2690
tp2697
F0.0
s(g2690
g2692
tp2698
F0.0
s(g2690
g2688
tp2699
F-1.0
ssg3
F0.6666666666666666
sg83
(lp2700
(lp2701
S'attractive'
p2702
aa(lp2703
S'seductive'
p2704
aa(lp2705
S'sexy'
p2706
aasg2
F0.3333333333333333
ssI113
(dp2707
g1
F0.3333333333333333
sg7
(lp2708
(lp2709
S'humbled'
p2710
aa(lp2711
S'humiliated'
p2712
aa(lp2713
S'crushed'
p2714
aasg25
(dp2715
(g2714
g2712
tp2716
F1.0
s(g2712
g2714
tp2717
F-1.0
s(g2714
g2710
tp2718
F0.0
s(g2710
g2714
tp2719
F0.0
s(g2710
g2712
tp2720
F11.276559558941996
s(g2712
g2710
tp2721
F-11.276559558941996
ssg3
F0.6666666666666666
sg83
(lp2722
(lp2723
S'humbled'
p2724
aa(lp2725
S'crushed'
p2726
aa(lp2727
S'humiliated'
p2728
aasg2
F0.3333333333333333
ssI114
(dp2729
g1
F0.0
sg7
(lp2730
(lp2731
S'bright'
p2732
aa(lp2733
S'brilliant'
p2734
aasg25
(dp2735
(g2732
g2734
tp2736
F0.0
s(g2734
g2732
tp2737
F0.0
ssg3
F0.0
sg83
(lp2738
(lp2739
g2732
ag2734
aasg2
F0.0
ssI115
(dp2740
g1
F1.0
sg7
(lp2741
(lp2742
S'intelligent'
p2743
aa(lp2744
S'brilliant'
p2745
aasg25
(dp2746
(g2745
g2743
tp2747
F-1.0
s(g2743
g2745
tp2748
F1.0
ssg3
F1.0
sg83
(lp2749
(lp2750
S'intelligent'
p2751
aa(lp2752
S'brilliant'
p2753
aasg2
F1.0
ssI116
(dp2754
g1
F1.0
sg7
(lp2755
(lp2756
S'smart'
p2757
aa(lp2758
S'brilliant'
p2759
aasg25
(dp2760
(g2759
g2757
tp2761
F-1.0
s(g2757
g2759
tp2762
F1.0
ssg3
F1.0
sg83
(lp2763
(lp2764
S'smart'
p2765
aa(lp2766
S'brilliant'
p2767
aasg2
F1.0
ssI117
(dp2768
g1
F1.0
sg7
(lp2769
(lp2770
S'clever'
p2771
aa(lp2772
S'brilliant'
p2773
aasg25
(dp2774
(g2771
g2773
tp2775
F1.0
s(g2773
g2771
tp2776
F-1.0
ssg3
F1.0
sg83
(lp2777
(lp2778
S'clever'
p2779
aa(lp2780
S'brilliant'
p2781
aasg2
F1.0
ssI118
(dp2782
g1
F1.0
sg7
(lp2783
(lp2784
S'violent'
p2785
aa(lp2786
S'homicidal'
p2787
aasg25
(dp2788
(g2787
g2785
tp2789
F-1.0
s(g2785
g2787
tp2790
F1.0
ssg3
F1.0
sg83
(lp2791
(lp2792
S'violent'
p2793
aa(lp2794
S'homicidal'
p2795
aasg2
F1.0
ssI119
(dp2796
g1
F1.0
sg7
(lp2797
(lp2798
S'violent'
p2799
aa(lp2800
S'murderous'
p2801
aasg25
(dp2802
(g2799
g2801
tp2803
F1.0
s(g2801
g2799
tp2804
F-1.0
ssg3
F1.0
sg83
(lp2805
(lp2806
S'violent'
p2807
aa(lp2808
S'murderous'
p2809
aasg2
F1.0
ssI120
(dp2810
g1
F1.0
sg7
(lp2811
(lp2812
S'personal'
p2813
aa(lp2814
S'private'
p2815
aa(lp2816
S'secret'
p2817
aasg25
(dp2818
(g2813
g2815
tp2819
F1.0
s(g2815
g2817
tp2820
F1.0089250513467884
s(g2817
g2815
tp2821
F-1.0089250513467884
s(g2813
g2817
tp2822
F0.0
s(g2817
g2813
tp2823
F0.0
s(g2815
g2813
tp2824
F-1.0
ssg3
F1.0
sg83
(lp2825
(lp2826
S'personal'
p2827
aa(lp2828
S'private'
p2829
aa(lp2830
S'secret'
p2831
aasg2
F1.0
ssI121
(dp2832
g1
F-0.3333333333333333
sg7
(lp2833
(lp2834
S'high'
p2835
aa(lp2836
S'higher'
p2837
aa(lp2838
S'soaring'
p2839
aasg25
(dp2840
(g2835
g2837
tp2841
F1.0
s(g2837
g2839
tp2842
F-19.961881679560943
s(g2837
g2835
tp2843
F-1.0
s(g2839
g2835
tp2844
F0.0
s(g2839
g2837
tp2845
F19.961881679560943
s(g2835
g2839
tp2846
F0.0
ssg3
F0.3333333333333333
sg83
(lp2847
(lp2848
S'soaring'
p2849
aa(lp2850
S'high'
p2851
aa(lp2852
S'higher'
p2853
aasg2
F0.3333333333333333
ssI122
(dp2854
g1
F1.0
sg7
(lp2855
(lp2856
S'harmful'
p2857
aa(lp2858
S'toxic'
p2859
aa(lp2860
S'deadly'
p2861
aasg25
(dp2862
(g2859
g2861
tp2863
F1.111334993445574
s(g2857
g2861
tp2864
F19.315730319612754
s(g2859
g2857
tp2865
F-1.0
s(g2861
g2857
tp2866
F-19.315730319612754
s(g2861
g2859
tp2867
F-1.111334993445574
s(g2857
g2859
tp2868
F1.0
ssg3
F1.0
sg83
(lp2869
(lp2870
S'harmful'
p2871
aa(lp2872
S'toxic'
p2873
aa(lp2874
S'deadly'
p2875
aasg2
F1.0
ssI123
(dp2876
g1
F0.3333333333333333
sg7
(lp2877
(lp2878
S'small'
p2879
aa(lp2880
S'smaller'
p2881
aa(lp2882
S'midget'
p2883
aa(lp2884
S'minute'
p2885
aa(lp2886
S'tiny'
p2887
aa(lp2888
S'micro'
p2889
aasg25
(dp2890
(g2887
g2889
tp2891
F0.0
s(g2883
g2879
tp2892
F0.0
s(g2889
g2885
tp2893
F0.0
s(g2881
g2885
tp2894
F0.0
s(g2887
g2881
tp2895
F0.0
s(g2885
g2879
tp2896
F-4.902873232091535
s(g2879
g2885
tp2897
F4.902873232091535
s(g2879
g2887
tp2898
F8.466773021043199
s(g2883
g2885
tp2899
F0.0
s(g2889
g2883
tp2900
F0.0
s(g2885
g2881
tp2901
F0.0
s(g2887
g2883
tp2902
F0.0
s(g2881
g2889
tp2903
F0.0
s(g2883
g2889
tp2904
F0.0
s(g2883
g2887
tp2905
F0.0
s(g2881
g2879
tp2906
F-3.223852843386798
s(g2883
g2881
tp2907
F70.54707514833895
s(g2879
g2889
tp2908
F1.0
s(g2885
g2883
tp2909
F0.0
s(g2887
g2879
tp2910
F-8.466773021043199
s(g2879
g2881
tp2911
F3.223852843386798
s(g2885
g2887
tp2912
F0.0
s(g2889
g2887
tp2913
F0.0
s(g2887
g2885
tp2914
F0.0
s(g2881
g2883
tp2915
F-70.54707514833895
s(g2885
g2889
tp2916
F0.0
s(g2889
g2879
tp2917
F-1.0
s(g2889
g2881
tp2918
F0.0
s(g2881
g2887
tp2919
F0.0
s(g2879
g2883
tp2920
F0.0
ssg3
F0.6666666666666666
sg83
(lp2921
(lp2922
S'small'
p2923
aa(lp2924
S'midget'
p2925
aa(lp2926
S'minute'
p2927
aa(lp2928
S'micro'
p2929
aa(lp2930
S'tiny'
p2931
aa(lp2932
S'smaller'
p2933
aasg2
F0.3333333333333333
ssI124
(dp2934
g1
F0.4666666666666667
sg7
(lp2935
(lp2936
S'small'
p2937
aa(lp2938
S'smaller'
p2939
aa(lp2940
S'midget'
p2941
aa(lp2942
S'minute'
p2943
aa(lp2944
S'minuscule'
p2945
aa(lp2946
S'microscopic'
p2947
aasg25
(dp2948
(g2947
g2941
tp2949
F0.0
s(g2941
g2937
tp2950
F0.0
s(g2939
g2947
tp2951
F0.0
s(g2947
g2943
tp2952
F0.0
s(g2939
g2943
tp2953
F0.0
s(g2945
g2941
tp2954
F0.0
s(g2939
g2945
tp2955
F0.0
s(g2943
g2937
tp2956
F-1.5208117337455307
s(g2937
g2943
tp2957
F1.5208117337455307
s(g2947
g2939
tp2958
F0.0
s(g2937
g2945
tp2959
F16.25260504993049
s(g2941
g2943
tp2960
F0.0
s(g2941
g2945
tp2961
F0.0
s(g2939
g2937
tp2962
F-1.0
s(g2941
g2939
tp2963
F21.88284595342329
s(g2943
g2939
tp2964
F0.0
s(g2943
g2941
tp2965
F0.0
s(g2945
g2947
tp2966
F0.0
s(g2945
g2939
tp2967
F0.0
s(g2937
g2939
tp2968
F1.0
s(g2947
g2937
tp2969
F-2.981507522300852
s(g2937
g2947
tp2970
F2.981507522300852
s(g2945
g2943
tp2971
F0.0
s(g2943
g2947
tp2972
F0.0
s(g2941
g2947
tp2973
F0.0
s(g2939
g2941
tp2974
F-21.88284595342329
s(g2943
g2945
tp2975
F0.0
s(g2947
g2945
tp2976
F0.0
s(g2937
g2941
tp2977
F0.0
s(g2945
g2937
tp2978
F-16.25260504993049
ssg3
F0.7333333333333333
sg83
(lp2979
(lp2980
S'small'
p2981
aa(lp2982
S'midget'
p2983
aa(lp2984
S'minute'
p2985
aa(lp2986
S'minuscule'
p2987
aa(lp2988
S'microscopic'
p2989
aa(lp2990
S'smaller'
p2991
aasg2
F0.4666666666666667
ssI125
(dp2992
g1
F0.3333333333333333
sg7
(lp2993
(lp2994
S'small'
p2995
aa(lp2996
S'smaller'
p2997
aa(lp2998
S'midget'
p2999
aa(lp3000
S'minute'
p3001
aa(lp3002
S'tiny'
p3003
aa(lp3004
S'micro'
p3005
aasg25
(dp3006
(g3003
g3005
tp3007
F0.0
s(g2999
g2995
tp3008
F0.0
s(g3005
g3001
tp3009
F0.0
s(g2997
g3001
tp3010
F0.0
s(g3003
g2997
tp3011
F0.0
s(g3001
g2995
tp3012
F-4.902873232091535
s(g2995
g3001
tp3013
F4.902873232091535
s(g2995
g3003
tp3014
F8.466773021043199
s(g2999
g3001
tp3015
F0.0
s(g3005
g2999
tp3016
F0.0
s(g3001
g2997
tp3017
F0.0
s(g3003
g2999
tp3018
F0.0
s(g2997
g3005
tp3019
F0.0
s(g2999
g3005
tp3020
F0.0
s(g2999
g3003
tp3021
F0.0
s(g2997
g2995
tp3022
F-3.223852843386798
s(g2999
g2997
tp3023
F70.54707514833895
s(g2995
g3005
tp3024
F1.0
s(g3001
g2999
tp3025
F0.0
s(g3003
g2995
tp3026
F-8.466773021043199
s(g2995
g2997
tp3027
F3.223852843386798
s(g3001
g3003
tp3028
F0.0
s(g3005
g3003
tp3029
F0.0
s(g3003
g3001
tp3030
F0.0
s(g2997
g2999
tp3031
F-70.54707514833895
s(g3001
g3005
tp3032
F0.0
s(g3005
g2995
tp3033
F-1.0
s(g3005
g2997
tp3034
F0.0
s(g2997
g3003
tp3035
F0.0
s(g2995
g2999
tp3036
F0.0
ssg3
F0.6666666666666666
sg83
(lp3037
(lp3038
S'small'
p3039
aa(lp3040
S'midget'
p3041
aa(lp3042
S'minute'
p3043
aa(lp3044
S'micro'
p3045
aa(lp3046
S'tiny'
p3047
aa(lp3048
S'smaller'
p3049
aasg2
F0.3333333333333333
ssI126
(dp3050
g1
F0.4666666666666667
sg7
(lp3051
(lp3052
S'small'
p3053
aa(lp3054
S'smaller'
p3055
aa(lp3056
S'midget'
p3057
aa(lp3058
S'minute'
p3059
aa(lp3060
S'minuscule'
p3061
aa(lp3062
S'microscopic'
p3063
aasg25
(dp3064
(g3063
g3057
tp3065
F0.0
s(g3057
g3053
tp3066
F0.0
s(g3055
g3063
tp3067
F0.0
s(g3063
g3059
tp3068
F0.0
s(g3055
g3059
tp3069
F0.0
s(g3061
g3057
tp3070
F0.0
s(g3055
g3061
tp3071
F0.0
s(g3059
g3053
tp3072
F-1.5208117337455307
s(g3053
g3059
tp3073
F1.5208117337455307
s(g3063
g3055
tp3074
F0.0
s(g3053
g3061
tp3075
F16.25260504993049
s(g3057
g3059
tp3076
F0.0
s(g3057
g3061
tp3077
F0.0
s(g3055
g3053
tp3078
F-1.0
s(g3057
g3055
tp3079
F21.88284595342329
s(g3059
g3055
tp3080
F0.0
s(g3059
g3057
tp3081
F0.0
s(g3061
g3063
tp3082
F0.0
s(g3061
g3055
tp3083
F0.0
s(g3053
g3055
tp3084
F1.0
s(g3063
g3053
tp3085
F-2.981507522300852
s(g3053
g3063
tp3086
F2.981507522300852
s(g3061
g3059
tp3087
F0.0
s(g3059
g3063
tp3088
F0.0
s(g3057
g3063
tp3089
F0.0
s(g3055
g3057
tp3090
F-21.88284595342329
s(g3059
g3061
tp3091
F0.0
s(g3063
g3061
tp3092
F0.0
s(g3053
g3057
tp3093
F0.0
s(g3061
g3053
tp3094
F-16.25260504993049
ssg3
F0.7333333333333333
sg83
(lp3095
(lp3096
S'small'
p3097
aa(lp3098
S'midget'
p3099
aa(lp3100
S'minute'
p3101
aa(lp3102
S'minuscule'
p3103
aa(lp3104
S'microscopic'
p3105
aa(lp3106
S'smaller'
p3107
aasg2
F0.4666666666666667
ssI127
(dp3108
g1
F0.3333333333333333
sg7
(lp3109
(lp3110
S'impractical'
p3111
aa(lp3112
S'unrealistic'
p3113
aa(lp3114
S'infeasible'
p3115
aa(lp3116
S'impossible'
p3117
aasg25
(dp3118
(g3111
g3115
tp3119
F0.0
s(g3115
g3111
tp3120
F0.0
s(g3117
g3111
tp3121
F-40.245898919839846
s(g3113
g3111
tp3122
F0.0
s(g3115
g3117
tp3123
F1.2344666682142602
s(g3113
g3115
tp3124
F0.0
s(g3117
g3115
tp3125
F-1.2344666682142602
s(g3111
g3113
tp3126
F0.0
s(g3111
g3117
tp3127
F40.245898919839846
s(g3117
g3113
tp3128
F-1.0
s(g3113
g3117
tp3129
F1.0
s(g3115
g3113
tp3130
F0.0
ssg3
F0.6666666666666666
sg83
(lp3131
(lp3132
S'unrealistic'
p3133
aa(lp3134
S'infeasible'
p3135
aa(lp3136
S'impractical'
p3137
aa(lp3138
S'impossible'
p3139
aasg2
F0.3333333333333333
ssI128
(dp3140
g1
F0.3333333333333333
sg7
(lp3141
(lp3142
S'impracticable'
p3143
aa(lp3144
S'unrealistic'
p3145
aa(lp3146
S'infeasible'
p3147
aa(lp3148
S'impossible'
p3149
aasg25
(dp3150
(g3145
g3143
tp3151
F0.0
s(g3147
g3143
tp3152
F0.0
s(g3147
g3145
tp3153
F0.0
s(g3147
g3149
tp3154
F1.2344666682142602
s(g3145
g3147
tp3155
F0.0
s(g3143
g3149
tp3156
F8.982405886557977
s(g3149
g3147
tp3157
F-1.2344666682142602
s(g3149
g3143
tp3158
F-8.982405886557977
s(g3143
g3145
tp3159
F0.0
s(g3145
g3149
tp3160
F1.0
s(g3143
g3147
tp3161
F0.0
s(g3149
g3145
tp3162
F-1.0
ssg3
F0.6666666666666666
sg83
(lp3163
(lp3164
S'unrealistic'
p3165
aa(lp3166
S'infeasible'
p3167
aa(lp3168
S'impracticable'
p3169
aa(lp3170
S'impossible'
p3171
aasg2
F0.3333333333333333
ssI129
(dp3172
g1
F0.3333333333333333
sg7
(lp3173
(lp3174
S'mature'
p3175
aa(lp3176
S'ripe'
p3177
aa(lp3178
S'overripe'
p3179
aasg25
(dp3180
(g3175
g3179
tp3181
F1.0
s(g3179
g3175
tp3182
F-1.0
s(g3175
g3177
tp3183
F0.0
s(g3177
g3179
tp3184
F26.37513048362182
s(g3179
g3177
tp3185
F-26.37513048362182
s(g3177
g3175
tp3186
F0.0
ssg3
F0.6666666666666666
sg83
(lp3187
(lp3188
S'ripe'
p3189
aa(lp3190
S'mature'
p3191
aa(lp3192
S'overripe'
p3193
aasg2
F0.3333333333333333
ssI130
(dp3194
g1
F0.6666666666666666
sg7
(lp3195
(lp3196
S'overweight'
p3197
aa(lp3198
S'chubby'
p3199
aa(lp3200
S'fat'
p3201
aa(lp3202
S'obese'
p3203
aasg25
(dp3204
(g3197
g3203
tp3205
F1471.4606447658402
s(g3197
g3201
tp3206
F0.0
s(g3203
g3197
tp3207
F-1471.4606447658402
s(g3203
g3201
tp3208
F-2.3133833618359683
s(g3201
g3199
tp3209
F-1.0
s(g3197
g3199
tp3210
F0.0
s(g3199
g3197
tp3211
F0.0
s(g3201
g3197
tp3212
F0.0
s(g3201
g3203
tp3213
F2.3133833618359683
s(g3199
g3201
tp3214
F1.0
s(g3199
g3203
tp3215
F0.0
s(g3203
g3199
tp3216
F0.0
ssg3
F0.8333333333333334
sg83
(lp3217
(lp3218
S'chubby'
p3219
aa(lp3220
S'overweight'
p3221
aa(lp3222
S'fat'
p3223
aa(lp3224
S'obese'
p3225
aasg2
F0.6666666666666666
ssI131
(dp3226
g1
F0.3333333333333333
sg7
(lp3227
(lp3228
S'uncomfortable'
p3229
aa(lp3230
S'uneasy'
p3231
aa(lp3232
S'painful'
p3233
aasg25
(dp3234
(g3229
g3231
tp3235
F0.0
s(g3231
g3233
tp3236
F1.0
s(g3233
g3229
tp3237
F-29.31202728242997
s(g3233
g3231
tp3238
F-1.0
s(g3231
g3229
tp3239
F0.0
s(g3229
g3233
tp3240
F29.31202728242997
ssg3
F0.6666666666666666
sg83
(lp3241
(lp3242
S'uneasy'
p3243
aa(lp3244
S'uncomfortable'
p3245
aa(lp3246
S'painful'
p3247
aasg2
F0.3333333333333333
ssI132
(dp3248
g1
F0.3333333333333333
sg7
(lp3249
(lp3250
S'friendly'
p3251
aa(lp3252
S'warm'
p3253
aa(lp3254
S'intimate'
p3255
aasg25
(dp3256
(g3251
g3255
tp3257
F1.0
s(g3253
g3251
tp3258
F0.0
s(g3253
g3255
tp3259
F2.70199928077936
s(g3251
g3253
tp3260
F0.0
s(g3255
g3253
tp3261
F-2.70199928077936
s(g3255
g3251
tp3262
F-1.0
ssg3
F0.6666666666666666
sg83
(lp3263
(lp3264
S'warm'
p3265
aa(lp3266
S'friendly'
p3267
aa(lp3268
S'intimate'
p3269
aasg2
F0.3333333333333333
ssI133
(dp3270
g1
F-0.3333333333333333
sg7
(lp3271
(lp3272
S'cordial'
p3273
aa(lp3274
S'warm'
p3275
aa(lp3276
S'intimate'
p3277
aasg25
(dp3278
(g3277
g3273
tp3279
F0.0
s(g3275
g3277
tp3280
F1.0
s(g3277
g3275
tp3281
F-1.0
s(g3273
g3275
tp3282
F0.0
s(g3273
g3277
tp3283
F0.0
s(g3275
g3273
tp3284
F0.0
ssg3
F0.3333333333333333
sg83
(lp3285
(lp3286
S'warm'
p3287
aa(lp3288
S'intimate'
p3289
aa(lp3290
g3273
aasg2
F0.3333333333333333
ssI134
(dp3291
g1
F1.0
sg7
(lp3292
(lp3293
S'cool'
p3294
aa(lp3295
S'cold'
p3296
aa(lp3297
S'frigid'
p3298
aa(lp3299
S'icy'
p3300
aasg25
(dp3301
(g3296
g3298
tp3302
F1.5310158028836518
s(g3298
g3296
tp3303
F-1.5310158028836518
s(g3294
g3300
tp3304
F0.0
s(g3294
g3296
tp3305
F1.3460466211937616
s(g3300
g3296
tp3306
F-1.0
s(g3296
g3294
tp3307
F-1.3460466211937616
s(g3298
g3294
tp3308
F-1.3343929889671782
s(g3300
g3294
tp3309
F0.0
s(g3300
g3298
tp3310
F0.0
s(g3294
g3298
tp3311
F1.3343929889671782
s(g3298
g3300
tp3312
F0.0
s(g3296
g3300
tp3313
F1.0
ssg3
F1.0
sg83
(lp3314
(lp3315
S'cool'
p3316
aa(lp3317
S'cold'
p3318
aa(lp3319
S'frigid'
p3320
aa(lp3321
S'icy'
p3322
aasg2
F1.0
ssI135
(dp3323
g1
F1.0
sg7
(lp3324
(lp3325
S'cool'
p3326
aa(lp3327
S'cold'
p3328
aa(lp3329
S'frigid'
p3330
aa(lp3331
S'frozen'
p3332
aasg25
(dp3333
(g3328
g3330
tp3334
F3.253640966508682
s(g3326
g3332
tp3335
F1.0
s(g3332
g3330
tp3336
F0.0
s(g3326
g3328
tp3337
F2.860553379852629
s(g3328
g3326
tp3338
F-2.860553379852629
s(g3328
g3332
tp3339
F2.8161361045478746
s(g3330
g3326
tp3340
F-2.8357876425234503
s(g3330
g3332
tp3341
F0.0
s(g3330
g3328
tp3342
F-3.253640966508682
s(g3332
g3326
tp3343
F-1.0
s(g3326
g3330
tp3344
F2.8357876425234503
s(g3332
g3328
tp3345
F-2.8161361045478746
ssg3
F1.0
sg83
(lp3346
(lp3347
S'cool'
p3348
aa(lp3349
S'cold'
p3350
aa(lp3351
S'frigid'
p3352
aa(lp3353
S'frozen'
p3354
aasg2
F1.0
ssI136
(dp3355
g1
F0.3333333333333333
sg7
(lp3356
(lp3357
S'disappointed'
p3358
aa(lp3359
S'frustrated'
p3360
aa(lp3361
S'defeated'
p3362
aasg25
(dp3363
(g3362
g3360
tp3364
F0.0
s(g3360
g3358
tp3365
F-1.0
s(g3362
g3358
tp3366
F-3.672528966366186
s(g3358
g3360
tp3367
F1.0
s(g3358
g3362
tp3368
F3.672528966366186
s(g3360
g3362
tp3369
F0.0
ssg3
F0.6666666666666666
sg83
(lp3370
(lp3371
S'disappointed'
p3372
aa(lp3373
S'defeated'
p3374
aa(lp3375
S'frustrated'
p3376
aasg2
F0.3333333333333333
ssI137
(dp3377
g1
F-0.3333333333333333
sg7
(lp3378
(lp3379
S'close'
p3380
aa(lp3381
S'tight'
p3382
aa(lp3383
S'snug'
p3384
aasg25
(dp3385
(g3380
g3384
tp3386
F0.0
s(g3380
g3382
tp3387
F1.0
s(g3384
g3382
tp3388
F10067.433712638209
s(g3384
g3380
tp3389
F0.0
s(g3382
g3384
tp3390
F-10067.433712638209
s(g3382
g3380
tp3391
F-1.0
ssg3
F0.3333333333333333
sg83
(lp3392
(lp3393
S'snug'
p3394
aa(lp3395
S'close'
p3396
aa(lp3397
S'tight'
p3398
aasg2
F0.3333333333333333
ssI138
(dp3399
g1
F0.6666666666666666
sg7
(lp3400
(lp3401
S'general'
p3402
aa(lp3403
S'extensive'
p3404
aa(lp3405
S'complete'
p3406
aa(lp3407
S'universal'
p3408
aasg25
(dp3409
(g3404
g3402
tp3410
F0.0
s(g3408
g3406
tp3411
F0.0
s(g3406
g3408
tp3412
F0.0
s(g3408
g3404
tp3413
F-1.0
s(g3402
g3408
tp3414
F4.052160130267138
s(g3408
g3402
tp3415
F-4.052160130267138
s(g3404
g3406
tp3416
F1.0621056205128414
s(g3406
g3402
tp3417
F0.0
s(g3406
g3404
tp3418
F-1.0621056205128414
s(g3404
g3408
tp3419
F1.0
s(g3402
g3406
tp3420
F0.0
s(g3402
g3404
tp3421
F0.0
ssg3
F0.8333333333333334
sg83
(lp3422
(lp3423
S'extensive'
p3424
aa(lp3425
S'general'
p3426
aa(lp3427
S'complete'
p3428
aa(lp3429
S'universal'
p3430
aasg2
F0.6666666666666666
ssI139
(dp3431
g1
F0.6666666666666666
sg7
(lp3432
(lp3433
S'general'
p3434
aa(lp3435
S'extensive'
p3436
aa(lp3437
S'comprehensive'
p3438
aa(lp3439
S'universal'
p3440
aasg25
(dp3441
(g3436
g3434
tp3442
F0.0
s(g3438
g3436
tp3443
F-1.0
s(g3440
g3438
tp3444
F0.0
s(g3438
g3434
tp3445
F0.0
s(g3434
g3438
tp3446
F0.0
s(g3436
g3438
tp3447
F1.0
s(g3438
g3440
tp3448
F0.0
s(g3440
g3436
tp3449
F-1.6947762011437437
s(g3434
g3440
tp3450
F6.867504552000278
s(g3436
g3440
tp3451
F1.6947762011437437
s(g3440
g3434
tp3452
F-6.867504552000278
s(g3434
g3436
tp3453
F0.0
ssg3
F0.8333333333333334
sg83
(lp3454
(lp3455
S'general'
p3456
aa(lp3457
S'extensive'
p3458
aa(lp3459
S'universal'
p3460
aa(lp3461
S'comprehensive'
p3462
aasg2
F0.6666666666666666
ssI140
(dp3463
g1
F0.3333333333333333
sg7
(lp3464
(lp3465
S'alive'
p3466
aa(lp3467
S'awake'
p3468
aa(lp3469
S'aware'
p3470
aasg25
(dp3471
(g3470
g3468
tp3472
F-11.696171283431294
s(g3470
g3466
tp3473
F-1.0
s(g3466
g3470
tp3474
F1.0
s(g3466
g3468
tp3475
F-7.978281070697938
s(g3468
g3470
tp3476
F11.696171283431294
s(g3468
g3466
tp3477
F7.978281070697938
ssg3
F0.6666666666666666
sg83
(lp3478
(lp3479
S'awake'
p3480
aa(lp3481
S'alive'
p3482
aa(lp3483
S'aware'
p3484
aasg2
F0.3333333333333333
ssI141
(dp3485
g1
F0.3333333333333333
sg7
(lp3486
(lp3487
S'alive'
p3488
aa(lp3489
S'awake'
p3490
aa(lp3491
S'conscious'
p3492
aasg25
(dp3493
(g3492
g3490
tp3494
F-6.526752370507338
s(g3492
g3488
tp3495
F-1.0
s(g3488
g3492
tp3496
F1.0
s(g3490
g3492
tp3497
F6.526752370507338
s(g3488
g3490
tp3498
F-4.941392128167432
s(g3490
g3488
tp3499
F4.941392128167432
ssg3
F0.6666666666666666
sg83
(lp3500
(lp3501
S'awake'
p3502
aa(lp3503
S'alive'
p3504
aa(lp3505
S'conscious'
p3506
aasg2
F0.3333333333333333
ssI142
(dp3507
g1
F1.0
sg7
(lp3508
(lp3509
S'interested'
p3510
aa(lp3511
S'concerned'
p3512
aa(lp3513
S'involved'
p3514
aasg25
(dp3515
(g3510
g3514
tp3516
F1.0
s(g3512
g3510
tp3517
F0.0
s(g3514
g3512
tp3518
F-3.5072066764531824
s(g3510
g3512
tp3519
F0.0
s(g3514
g3510
tp3520
F-1.0
s(g3512
g3514
tp3521
F3.5072066764531824
ssg3
F1.0
sg83
(lp3522
(lp3523
S'interested'
p3524
aa(lp3525
S'concerned'
p3526
aa(lp3527
S'involved'
p3528
aasg2
F1.0
ssI143
(dp3529
g1
F0.3333333333333333
sg7
(lp3530
(lp3531
S'critical'
p3532
aa(lp3533
S'negative'
p3534
aa(lp3535
S'hostile'
p3536
aasg25
(dp3537
(g3532
g3534
tp3538
F0.0
s(g3536
g3534
tp3539
F-2.099426658279823
s(g3532
g3536
tp3540
F1.0
s(g3534
g3532
tp3541
F0.0
s(g3534
g3536
tp3542
F2.099426658279823
s(g3536
g3532
tp3543
F-1.0
ssg3
F0.6666666666666666
sg83
(lp3544
(lp3545
S'negative'
p3546
aa(lp3547
S'critical'
p3548
aa(lp3549
S'hostile'
p3550
aasg2
F0.3333333333333333
ssI144
(dp3551
g1
F1.0
sg7
(lp3552
(lp3553
S'hard'
p3554
aa(lp3555
S'painful'
p3556
aa(lp3557
S'hopeless'
p3558
aasg25
(dp3559
(g3558
g3556
tp3560
F0.0
s(g3554
g3556
tp3561
F1.0
s(g3556
g3558
tp3562
F0.0
s(g3554
g3558
tp3563
F20.102860344160355
s(g3556
g3554
tp3564
F-1.0
s(g3558
g3554
tp3565
F-20.102860344160355
ssg3
F1.0
sg83
(lp3566
(lp3567
S'hard'
p3568
aa(lp3569
S'painful'
p3570
aa(lp3571
S'hopeless'
p3572
aasg2
F1.0
ssI145
(dp3573
g1
F1.0
sg7
(lp3574
(lp3575
S'happy'
p3576
aa(lp3577
S'euphoric'
p3578
aasg25
(dp3579
(g3576
g3578
tp3580
F1.0
s(g3578
g3576
tp3581
F-1.0
ssg3
F1.0
sg83
(lp3582
(lp3583
S'happy'
p3584
aa(lp3585
S'euphoric'
p3586
aasg2
F1.0
ssI146
(dp3587
g1
F0.0
sg7
(lp3588
(lp3589
S'content'
p3590
aa(lp3591
S'euphoric'
p3592
aasg25
(dp3593
(g3590
g3592
tp3594
F0.0
s(g3592
g3590
tp3595
F0.0
ssg3
F0.0
sg83
(lp3596
(lp3597
g3590
ag3592
aasg2
F0.0
ssI147
(dp3598
g1
F1.0
sg7
(lp3599
(lp3600
S'calm'
p3601
aa(lp3602
S'serene'
p3603
aasg25
(dp3604
(g3603
g3601
tp3605
F-1.0
s(g3601
g3603
tp3606
F1.0
ssg3
F1.0
sg83
(lp3607
(lp3608
S'calm'
p3609
aa(lp3610
S'serene'
p3611
aasg2
F1.0
ssI148
(dp3612
g1
F0.0
sg7
(lp3613
(lp3614
S'cool'
p3615
aa(lp3616
S'serene'
p3617
aasg25
(dp3618
(g3617
g3615
tp3619
F0.0
s(g3615
g3617
tp3620
F0.0
ssg3
F0.0
sg83
(lp3621
(lp3622
g3615
ag3617
aasg2
F0.0
ssI149
(dp3623
g1
F1.0
sg7
(lp3624
(lp3625
S'unreliable'
p3626
aa(lp3627
S'dangerous'
p3628
aa(lp3629
S'suicidal'
p3630
aasg25
(dp3631
(g3630
g3628
tp3632
F-7.909559042804861
s(g3626
g3630
tp3633
F0.0
s(g3628
g3626
tp3634
F-1.0
s(g3630
g3626
tp3635
F0.0
s(g3628
g3630
tp3636
F7.909559042804861
s(g3626
g3628
tp3637
F1.0
ssg3
F1.0
sg83
(lp3638
(lp3639
S'unreliable'
p3640
aa(lp3641
S'dangerous'
p3642
aa(lp3643
S'suicidal'
p3644
aasg2
F1.0
ssI150
(dp3645
g1
F0.0
sg7
(lp3646
(lp3647
S'unreliable'
p3648
aa(lp3649
S'risky'
p3650
aa(lp3651
S'suicidal'
p3652
aasg25
(dp3653
(g3648
g3652
tp3654
F0.0
s(g3648
g3650
tp3655
F0.0
s(g3650
g3652
tp3656
F0.0
s(g3652
g3648
tp3657
F0.0
s(g3650
g3648
tp3658
F0.0
s(g3652
g3650
tp3659
F0.0
ssg3
F0.0
sg83
(lp3660
(lp3661
g3648
ag3650
ag3652
aasg2
F0.0
sss.