(dp0
S'tau'
p1
F0.13326405128654745
sS'|tau|'
p2
F0.19061050662607837
sS'pairwise'
p3
F0.24686558167570827
sS'ranking'
p4
(dp5
I0
(dp6
g1
F1.0
sS'gold'
p7
(lp8
(lp9
S'small'
p10
aa(lp11
S'minute'
p12
aa(lp13
S'miniscule'
p14
aasS'raw'
p15
(dp16
(g10
g12
tp17
F1.0
s(g14
g12
tp18
F0.0
s(g12
g10
tp19
F-1.0
s(g14
g10
tp20
F0.0
s(g12
g14
tp21
F0.0
s(g10
g14
tp22
F0.0
ssg3
F1.0
sS'algo'
p23
(lp24
(lp25
S'small'
p26
aa(lp27
S'minute'
p28
aa(lp29
g14
aasg2
F1.0
ssI1
(dp30
g1
F0.3333333333333333
sg7
(lp31
(lp32
S'upset'
p33
aa(lp34
S'angry'
p35
aa(lp36
S'enraged'
p37
aasg15
(dp38
(g33
g37
tp39
F0.0
s(g37
g33
tp40
F0.0
s(g35
g33
tp41
F1.0
s(g35
g37
tp42
F0.0
s(g37
g35
tp43
F0.0
s(g33
g35
tp44
F-1.0
ssg3
F0.6666666666666666
sg23
(lp45
(lp46
S'angry'
p47
aa(lp48
S'upset'
p49
aa(lp50
g37
aasg2
F0.3333333333333333
ssI2
(dp51
g1
F0.0
sg7
(lp52
(lp53
S'positive'
p54
aa(lp55
S'terrific'
p56
aasg15
(dp57
(g56
g54
tp58
F0.0
s(g54
g56
tp59
F0.0
ssg3
F0.0
sg23
(lp60
(lp61
g54
ag56
aasg2
F0.0
ssI3
(dp62
g1
F0.0
sg7
(lp63
(lp64
S'valuable'
p65
aa(lp66
S'immeasurable'
p67
aasg15
(dp68
(g67
g65
tp69
F0.0
s(g65
g67
tp70
F0.0
ssg3
F0.0
sg23
(lp71
(lp72
g65
ag67
aasg2
F0.0
ssI4
(dp73
g1
F0.3333333333333333
sg7
(lp74
(lp75
S'useful'
p76
aa(lp77
S'worthwhile'
p78
aa(lp79
S'valuable'
p80
aasg15
(dp81
(g78
g76
tp82
F0.0
s(g80
g78
tp83
F0.0
s(g76
g78
tp84
F0.0
s(g80
g76
tp85
F-1.0
s(g76
g80
tp86
F1.0
s(g78
g80
tp87
F0.0
ssg3
F0.6666666666666666
sg23
(lp88
(lp89
S'useful'
p90
aa(lp91
S'valuable'
p92
aa(lp93
g78
aasg2
F0.3333333333333333
ssI5
(dp94
g1
F0.0
sg7
(lp95
(lp96
S'functioning'
p97
aa(lp98
S'efficient'
p99
aasg15
(dp100
(g97
g99
tp101
F0.0
s(g99
g97
tp102
F0.0
ssg3
F0.0
sg23
(lp103
(lp104
g97
ag99
aasg2
F0.0
ssI6
(dp105
g1
F0.0
sg7
(lp106
(lp107
S'low'
p108
aa(lp109
S'limited'
p110
aa(lp111
S'scarce'
p112
aasg15
(dp113
(g110
g108
tp114
F0.0
s(g110
g112
tp115
F0.0
s(g108
g112
tp116
F0.0
s(g108
g110
tp117
F0.0
s(g112
g110
tp118
F0.0
s(g112
g108
tp119
F0.0
ssg3
F0.0
sg23
(lp120
(lp121
g108
ag110
ag112
aasg2
F0.0
ssI7
(dp122
g1
F0.0
sg7
(lp123
(lp124
S'cute'
p125
aa(lp126
S'pretty'
p127
aa(lp128
S'lovely'
p129
aa(lp130
S'lovelier'
p131
aa(lp132
S'breathtaking'
p133
aasg15
(dp134
(g125
g133
tp135
F0.0
s(g127
g133
tp136
F0.0
s(g125
g127
tp137
F0.0
s(g131
g129
tp138
F0.0
s(g127
g129
tp139
F0.0
s(g133
g129
tp140
F0.0
s(g125
g129
tp141
F0.0
s(g131
g127
tp142
F0.0
s(g133
g125
tp143
F0.0
s(g133
g127
tp144
F0.0
s(g131
g133
tp145
F0.0
s(g129
g125
tp146
F0.0
s(g131
g125
tp147
F0.0
s(g125
g131
tp148
F0.0
s(g127
g131
tp149
F0.0
s(g127
g125
tp150
F0.0
s(g129
g131
tp151
F0.0
s(g129
g133
tp152
F0.0
s(g129
g127
tp153
F0.0
s(g133
g131
tp154
F0.0
ssg3
F0.0
sg23
(lp155
(lp156
g125
ag127
ag129
ag131
ag133
aasg2
F0.0
ssI8
(dp157
g1
F0.0
sg7
(lp158
(lp159
S'costly'
p160
aa(lp161
S'expensive'
p162
aa(lp163
S'exorbitant'
p164
aasg15
(dp165
(g162
g164
tp166
F0.0
s(g160
g164
tp167
F0.0
s(g164
g160
tp168
F0.0
s(g162
g160
tp169
F0.0
s(g164
g162
tp170
F0.0
s(g160
g162
tp171
F0.0
ssg3
F0.0
sg23
(lp172
(lp173
g160
ag162
ag164
aasg2
F0.0
ssI9
(dp174
g1
F0.0
sg7
(lp175
(lp176
S'lousy'
p177
aa(lp178
S'miserable'
p179
aa(lp180
S'horrible'
p181
aasg15
(dp182
(g179
g177
tp183
F0.0
s(g181
g177
tp184
F0.0
s(g177
g179
tp185
F0.0
s(g177
g181
tp186
F0.0
s(g179
g181
tp187
F0.0
s(g181
g179
tp188
F0.0
ssg3
F0.0
sg23
(lp189
(lp190
g177
ag179
ag181
aasg2
F0.0
ssI10
(dp191
g1
F-0.3333333333333333
sg7
(lp192
(lp193
S'fine'
p194
aa(lp195
S'adequate'
p196
aa(lp197
S'good'
p198
aasg15
(dp199
(g196
g198
tp200
F-2.5789689927859527
s(g196
g194
tp201
F0.0
s(g194
g198
tp202
F-1.0
s(g198
g194
tp203
F1.0
s(g194
g196
tp204
F0.0
s(g198
g196
tp205
F2.5789689927859527
ssg3
F0.3333333333333333
sg23
(lp206
(lp207
S'good'
p208
aa(lp209
S'fine'
p210
aa(lp211
S'adequate'
p212
aasg2
F0.3333333333333333
ssI11
(dp213
g1
F0.0
sg7
(lp214
(lp215
S'bad'
p216
aa(lp217
S'ludicrous'
p218
aasg15
(dp219
(g218
g216
tp220
F0.0
s(g216
g218
tp221
F0.0
ssg3
F0.0
sg23
(lp222
(lp223
g216
ag218
aasg2
F0.0
ssI12
(dp224
g1
F0.3333333333333333
sg7
(lp225
(lp226
S'useful'
p227
aa(lp228
S'relevant'
p229
aa(lp230
S'necessary'
p231
aasg15
(dp232
(g227
g231
tp233
F161.14303434298205
s(g227
g229
tp234
F1.106944608917228
s(g229
g227
tp235
F-1.106944608917228
s(g231
g227
tp236
F-161.14303434298205
s(g231
g229
tp237
F1.0
s(g229
g231
tp238
F-1.0
ssg3
F0.6666666666666666
sg23
(lp239
(lp240
S'useful'
p241
aa(lp242
S'necessary'
p243
aa(lp244
S'relevant'
p245
aasg2
F0.3333333333333333
ssI13
(dp246
g1
F0.0
sg7
(lp247
(lp248
S'fine'
p249
aa(lp250
S'satisfactory'
p251
aa(lp252
S'excellent'
p253
aasg15
(dp254
(g251
g249
tp255
F0.0
s(g253
g249
tp256
F0.0
s(g249
g253
tp257
F0.0
s(g253
g251
tp258
F0.0
s(g251
g253
tp259
F0.0
s(g249
g251
tp260
F0.0
ssg3
F0.0
sg23
(lp261
(lp262
g249
ag251
ag253
aasg2
F0.0
ssI14
(dp263
g1
F0.0
sg7
(lp264
(lp265
S'uncomfortable'
p266
aa(lp267
S'embarrassing'
p268
aasg15
(dp269
(g266
g268
tp270
F0.0
s(g268
g266
tp271
F0.0
ssg3
F0.0
sg23
(lp272
(lp273
g266
ag268
aasg2
F0.0
ssI15
(dp274
g1
F0.0
sg7
(lp275
(lp276
S'big'
p277
aa(lp278
S'substantial'
p279
aa(lp280
S'tremendous'
p281
aS'staggering'
p282
aasg15
(dp283
(g279
g281
tp284
F0.0
s(g281
g282
tp285
F0.0
s(g279
g277
tp286
F0.0
s(g277
g281
tp287
F0.0
s(g277
g282
tp288
F0.0
s(g282
g277
tp289
F0.0
s(g281
g277
tp290
F0.0
s(g282
g279
tp291
F0.0
s(g281
g279
tp292
F0.0
s(g279
g282
tp293
F0.0
s(g277
g279
tp294
F0.0
s(g282
g281
tp295
F0.0
ssg3
F0.16666666666666666
sg23
(lp296
(lp297
g277
ag279
ag281
ag282
aasg2
F0.0
ssI16
(dp298
g1
F0.0
sg7
(lp299
(lp300
S'clear'
p301
aa(lp302
S'accurate'
p303
aa(lp304
S'precise'
p305
aa(lp306
S'exact'
p307
aasg15
(dp308
(g307
g305
tp309
F0.0
s(g303
g301
tp310
F0.0
s(g307
g301
tp311
F0.0
s(g301
g303
tp312
F0.0
s(g301
g307
tp313
F0.0
s(g305
g301
tp314
F0.0
s(g301
g305
tp315
F0.0
s(g307
g303
tp316
F0.0
s(g303
g305
tp317
F-1.0
s(g305
g307
tp318
F0.0
s(g303
g307
tp319
F0.0
s(g305
g303
tp320
F1.0
ssg3
F0.5
sg23
(lp321
(lp322
S'precise'
p323
aa(lp324
g301
aa(lp325
g307
aa(lp326
S'accurate'
p327
aasg2
F0.0
ssI17
(dp328
g1
F0.0
sg7
(lp329
(lp330
S'pleased'
p331
aa(lp332
S'happy'
p333
aa(lp334
S'excited'
p335
aa(lp336
S'delighted'
p337
aa(lp338
S'overwhelmed'
p339
aasg15
(dp340
(g335
g339
tp341
F0.0
s(g333
g331
tp342
F0.0
s(g331
g339
tp343
F0.0
s(g337
g335
tp344
F0.0
s(g337
g333
tp345
F0.0
s(g331
g333
tp346
F0.0
s(g339
g337
tp347
F0.0
s(g337
g339
tp348
F0.0
s(g333
g337
tp349
F0.0
s(g335
g333
tp350
F0.0
s(g333
g335
tp351
F0.0
s(g331
g337
tp352
F0.0
s(g339
g335
tp353
F0.0
s(g335
g337
tp354
F0.0
s(g337
g331
tp355
F0.0
s(g339
g333
tp356
F0.0
s(g333
g339
tp357
F0.0
s(g335
g331
tp358
F0.0
s(g339
g331
tp359
F0.0
s(g331
g335
tp360
F0.0
ssg3
F0.0
sg23
(lp361
(lp362
g331
ag333
ag335
ag337
ag339
aasg2
F0.0
ssI18
(dp363
g1
F0.0
sg7
(lp364
(lp365
S'bad'
p366
aa(lp367
S'horrific'
p368
aa(lp369
S'horrendous'
p370
aasg15
(dp371
(g366
g370
tp372
F0.0
s(g368
g366
tp373
F0.0
s(g366
g368
tp374
F0.0
s(g368
g370
tp375
F0.0
s(g370
g368
tp376
F0.0
s(g370
g366
tp377
F0.0
ssg3
F0.0
sg23
(lp378
(lp379
g366
ag368
ag370
aasg2
F0.0
ssI19
(dp380
g1
F0.0
sg7
(lp381
(lp382
S'qualified'
p383
aa(lp384
S'excellent'
p385
aa(lp386
S'outstanding'
p387
aasg15
(dp388
(g385
g383
tp389
F0.0
s(g383
g387
tp390
F0.0
s(g387
g385
tp391
F0.0
s(g387
g383
tp392
F0.0
s(g383
g385
tp393
F0.0
s(g385
g387
tp394
F0.0
ssg3
F0.0
sg23
(lp395
(lp396
g383
ag385
ag387
aasg2
F0.0
ssI20
(dp397
g1
F1.0
sg7
(lp398
(lp399
S'high'
p400
aa(lp401
S'higher'
p402
aasg15
(dp403
(g402
g400
tp404
F-1.0
s(g400
g402
tp405
F1.0
ssg3
F1.0
sg23
(lp406
(lp407
S'high'
p408
aa(lp409
S'higher'
p410
aasg2
F1.0
ssI21
(dp411
g1
F1.0
sg7
(lp412
(lp413
S'fine'
p414
aa(lp415
S'remarkable'
p416
aa(lp417
S'spectacular'
p418
aasg15
(dp419
(g418
g416
tp420
F0.0
s(g416
g414
tp421
F0.0
s(g416
g418
tp422
F0.0
s(g414
g418
tp423
F1.0
s(g418
g414
tp424
F-1.0
s(g414
g416
tp425
F0.0
ssg3
F1.0
sg23
(lp426
(lp427
S'fine'
p428
aa(lp429
g416
aa(lp430
S'spectacular'
p431
aasg2
F1.0
ssI22
(dp432
g1
F0.7453559924999299
sg7
(lp433
(lp434
S'a-okay'
p435
aS'okay'
p436
aS'fine'
p437
aa(lp438
S'appropriate'
p439
aa(lp440
S'faultless'
p441
aa(lp442
S'perfect'
p443
aasg15
(dp444
(g437
g439
tp445
F0.0
s(g436
g437
tp446
F0.0
s(g441
g435
tp447
F0.0
s(g437
g436
tp448
F0.0
s(g436
g441
tp449
F0.0
s(g443
g436
tp450
F-1.0
s(g443
g437
tp451
F0.0
s(g443
g441
tp452
F0.0
s(g435
g439
tp453
F0.0
s(g441
g439
tp454
F0.0
s(g439
g435
tp455
F0.0
s(g441
g443
tp456
F0.0
s(g436
g443
tp457
F1.0
s(g439
g441
tp458
F0.0
s(g435
g437
tp459
F0.0
s(g436
g439
tp460
F0.0
s(g443
g435
tp461
F0.0
s(g439
g436
tp462
F0.0
s(g437
g441
tp463
F0.0
s(g441
g436
tp464
F0.0
s(g439
g437
tp465
F0.0
s(g437
g443
tp466
F0.0
s(g435
g441
tp467
F0.0
s(g435
g436
tp468
F0.0
s(g437
g435
tp469
F0.0
s(g439
g443
tp470
F0.0
s(g443
g439
tp471
F0.0
s(g436
g435
tp472
F0.0
s(g441
g437
tp473
F0.0
s(g435
g443
tp474
F0.0
ssg3
F0.7333333333333333
sg23
(lp475
(lp476
S'okay'
p477
aa(lp478
g437
aa(lp479
g435
aa(lp480
g441
aa(lp481
g439
aa(lp482
S'perfect'
p483
aasg2
F0.7453559924999299
ssI23
(dp484
g1
F0.0
sg7
(lp485
(lp486
S'graver'
p487
aa(lp488
S'critical'
p489
aa(lp490
S'life-threatening'
p491
aasg15
(dp492
(g491
g489
tp493
F0.0
s(g489
g491
tp494
F0.0
s(g487
g491
tp495
F0.0
s(g489
g487
tp496
F0.0
s(g487
g489
tp497
F0.0
s(g491
g487
tp498
F0.0
ssg3
F0.0
sg23
(lp499
(lp500
g487
ag489
ag491
aasg2
F0.0
ssI24
(dp501
g1
F1.0
sg7
(lp502
(lp503
S'odd'
p504
aa(lp505
S'bizarre'
p506
aasg15
(dp507
(g504
g506
tp508
F1.0
s(g506
g504
tp509
F-1.0
ssg3
F1.0
sg23
(lp510
(lp511
S'odd'
p512
aa(lp513
S'bizarre'
p514
aasg2
F1.0
ssI25
(dp515
g1
F0.0
sg7
(lp516
(lp517
S'unfortunate'
p518
aa(lp519
S'reprehensible'
p520
aasg15
(dp521
(g520
g518
tp522
F0.0
s(g518
g520
tp523
F0.0
ssg3
F0.0
sg23
(lp524
(lp525
g518
ag520
aasg2
F0.0
ssI26
(dp526
g1
F0.0
sg7
(lp527
(lp528
S'plenty'
p529
aa(lp530
S'vast'
p531
aa(lp532
S'abundant'
p533
aasg15
(dp534
(g531
g533
tp535
F0.0
s(g529
g533
tp536
F0.0
s(g531
g529
tp537
F0.0
s(g533
g531
tp538
F0.0
s(g533
g529
tp539
F0.0
s(g529
g531
tp540
F0.0
ssg3
F0.0
sg23
(lp541
(lp542
g529
ag531
ag533
aasg2
F0.0
ssI27
(dp543
g1
F0.0
sg7
(lp544
(lp545
S'pleased'
p546
aa(lp547
S'delighted'
p548
aasg15
(dp549
(g546
g548
tp550
F0.0
s(g548
g546
tp551
F0.0
ssg3
F0.0
sg23
(lp552
(lp553
g546
ag548
aasg2
F0.0
ssI28
(dp554
g1
F0.0
sg7
(lp555
(lp556
S'uncomfortable'
p557
aa(lp558
S'embarrassed'
p559
aasg15
(dp560
(g559
g557
tp561
F0.0
s(g557
g559
tp562
F0.0
ssg3
F0.0
sg23
(lp563
(lp564
g557
ag559
aasg2
F0.0
ssI29
(dp565
g1
F0.0
sg7
(lp566
(lp567
S'efficient'
p568
aa(lp569
S'optimum'
p570
aasg15
(dp571
(g570
g568
tp572
F0.0
s(g568
g570
tp573
F0.0
ssg3
F0.0
sg23
(lp574
(lp575
g568
ag570
aasg2
F0.0
ssI30
(dp576
g1
F0.0
sg7
(lp577
(lp578
S'satisfactory'
p579
aS'fine'
p580
aS'appropriate'
p581
aa(lp582
S'excellent'
p583
aasg15
(dp584
(g581
g583
tp585
F0.0
s(g580
g581
tp586
F0.0
s(g579
g580
tp587
F0.0
s(g579
g581
tp588
F0.0
s(g583
g580
tp589
F0.0
s(g580
g583
tp590
F0.0
s(g581
g579
tp591
F0.0
s(g583
g579
tp592
F0.0
s(g579
g583
tp593
F0.0
s(g580
g579
tp594
F0.0
s(g581
g580
tp595
F0.0
s(g583
g581
tp596
F0.0
ssg3
F0.5
sg23
(lp597
(lp598
g579
ag580
ag581
ag583
aasg2
F0.0
ssI31
(dp599
g1
F0.0
sg7
(lp600
(lp601
S'clear'
p602
aa(lp603
S'prominent'
p604
aasg15
(dp605
(g602
g604
tp606
F0.0
s(g604
g602
tp607
F0.0
ssg3
F0.0
sg23
(lp608
(lp609
g602
ag604
aasg2
F0.0
ssI32
(dp610
g1
F0.0
sg7
(lp611
(lp612
S'tough'
p613
aa(lp614
S'formidable'
p615
aa(lp616
S'daunting'
p617
aasg15
(dp618
(g615
g613
tp619
F0.0
s(g615
g617
tp620
F0.0
s(g617
g613
tp621
F0.0
s(g613
g617
tp622
F0.0
s(g617
g615
tp623
F0.0
s(g613
g615
tp624
F0.0
ssg3
F0.0
sg23
(lp625
(lp626
g613
ag615
ag617
aasg2
F0.0
ssI33
(dp627
g1
F-0.4082482904638631
sg7
(lp628
(lp629
S'capable'
p630
aS'qualified'
p631
aa(lp632
S'skilled'
p633
aS'proficient'
p634
aasg15
(dp635
(g633
g630
tp636
F0.0
s(g633
g634
tp637
F0.0
s(g633
g631
tp638
F1.0
s(g634
g630
tp639
F0.0
s(g631
g630
tp640
F0.0
s(g631
g633
tp641
F-1.0
s(g630
g631
tp642
F0.0
s(g634
g631
tp643
F0.0
s(g630
g633
tp644
F0.0
s(g630
g634
tp645
F0.0
s(g631
g634
tp646
F0.0
s(g634
g633
tp647
F0.0
ssg3
F0.16666666666666666
sg23
(lp648
(lp649
S'skilled'
p650
aa(lp651
g630
aa(lp652
g634
aa(lp653
S'qualified'
p654
aasg2
F0.4082482904638631
ssI34
(dp655
g1
F0.0
sg7
(lp656
(lp657
S'okay'
p658
aa(lp659
S'incredible'
p660
aS'awesome'
p661
aS'terrific'
p662
aS'marvelous'
p663
aasg15
(dp664
(g662
g663
tp665
F0.0
s(g658
g661
tp666
F0.0
s(g658
g660
tp667
F0.0
s(g661
g658
tp668
F0.0
s(g661
g663
tp669
F0.0
s(g662
g658
tp670
F0.0
s(g661
g660
tp671
F0.0
s(g661
g662
tp672
F0.0
s(g663
g660
tp673
F0.0
s(g658
g663
tp674
F0.0
s(g658
g662
tp675
F0.0
s(g660
g658
tp676
F0.0
s(g663
g661
tp677
F0.0
s(g660
g662
tp678
F0.0
s(g663
g658
tp679
F0.0
s(g660
g661
tp680
F0.0
s(g660
g663
tp681
F0.0
s(g663
g662
tp682
F0.0
s(g662
g660
tp683
F0.0
s(g662
g661
tp684
F0.0
ssg3
F0.6
sg23
(lp685
(lp686
g658
ag660
ag661
ag662
ag663
aasg2
F0.0
ssI35
(dp687
g1
F0.0
sg7
(lp688
(lp689
S'awful'
p690
aa(lp691
S'shitty'
p692
aasg15
(dp693
(g690
g692
tp694
F0.0
s(g692
g690
tp695
F0.0
ssg3
F0.0
sg23
(lp696
(lp697
g690
ag692
aasg2
F0.0
ssI36
(dp698
g1
F-0.8164965809277261
sg7
(lp699
(lp700
S'content'
p701
aS'satisfied'
p702
aa(lp703
S'pleased'
p704
aasg15
(dp705
(g701
g704
tp706
F-1.0
s(g702
g701
tp707
F0.0
s(g704
g702
tp708
F55.35653947785488
s(g701
g702
tp709
F0.0
s(g704
g701
tp710
F1.0
s(g702
g704
tp711
F-55.35653947785488
ssg3
F0.0
sg23
(lp712
(lp713
S'pleased'
p714
aa(lp715
S'satisfied'
p716
aa(lp717
S'content'
p718
aasg2
F0.8164965809277261
ssI37
(dp719
g1
F-0.7071067811865476
sg7
(lp720
(lp721
S'adequate'
p722
aS'fine'
p723
aS'fitting'
p724
aa(lp725
S'good'
p726
aasg15
(dp727
(g723
g724
tp728
F0.0
s(g724
g726
tp729
F0.0
s(g722
g726
tp730
F-2.5789689927859527
s(g722
g723
tp731
F0.0
s(g723
g726
tp732
F-1.0
s(g724
g722
tp733
F0.0
s(g726
g724
tp734
F0.0
s(g726
g723
tp735
F1.0
s(g724
g723
tp736
F0.0
s(g723
g722
tp737
F0.0
s(g726
g722
tp738
F2.5789689927859527
s(g722
g724
tp739
F0.0
ssg3
F0.0
sg23
(lp740
(lp741
S'good'
p742
aa(lp743
g724
aa(lp744
S'fine'
p745
aa(lp746
S'adequate'
p747
aasg2
F0.7071067811865476
ssI38
(dp748
g1
F0.0
sg7
(lp749
(lp750
S'poor'
p751
aa(lp752
S'indigent'
p753
aa(lp754
S'bankrupt'
p755
aasg15
(dp756
(g755
g753
tp757
F0.0
s(g753
g751
tp758
F0.0
s(g753
g755
tp759
F0.0
s(g751
g755
tp760
F0.0
s(g755
g751
tp761
F0.0
s(g751
g753
tp762
F0.0
ssg3
F0.0
sg23
(lp763
(lp764
g751
ag753
ag755
aasg2
F0.0
ssI39
(dp765
g1
F0.7071067811865476
sg7
(lp766
(lp767
S'pretty'
p768
aa(lp769
S'marvellous'
p770
aS'breathtaking'
p771
aS'spectacular'
p772
aasg15
(dp773
(g772
g771
tp774
F0.0
s(g768
g771
tp775
F0.0
s(g770
g771
tp776
F0.0
s(g770
g768
tp777
F0.0
s(g772
g768
tp778
F-1.0
s(g771
g770
tp779
F0.0
s(g771
g772
tp780
F0.0
s(g771
g768
tp781
F0.0
s(g768
g770
tp782
F0.0
s(g768
g772
tp783
F1.0
s(g770
g772
tp784
F0.0
s(g772
g770
tp785
F0.0
ssg3
F0.5
sg23
(lp786
(lp787
S'pretty'
p788
aa(lp789
S'spectacular'
p790
aa(lp791
g771
aa(lp792
g770
aasg2
F0.7071067811865476
ssI40
(dp793
g1
F0.0
sg7
(lp794
(lp795
S'considerable'
p796
aa(lp797
S'abundant'
p798
aasg15
(dp799
(g798
g796
tp800
F0.0
s(g796
g798
tp801
F0.0
ssg3
F0.0
sg23
(lp802
(lp803
g796
ag798
aasg2
F0.0
ssI41
(dp804
g1
F0.0
sg7
(lp805
(lp806
S'fine'
p807
aa(lp808
S'remarkable'
p809
aa(lp810
S'impressive'
p811
aasg15
(dp812
(g807
g811
tp813
F0.0
s(g811
g809
tp814
F0.0
s(g809
g807
tp815
F0.0
s(g811
g807
tp816
F0.0
s(g807
g809
tp817
F0.0
s(g809
g811
tp818
F0.0
ssg3
F0.0
sg23
(lp819
(lp820
g807
ag809
ag811
aasg2
F0.0
ssI42
(dp821
g1
F0.0
sg7
(lp822
(lp823
S'fine'
p824
aa(lp825
S'admirable'
p826
aS'upstanding'
p827
aasg15
(dp828
(g824
g827
tp829
F0.0
s(g826
g827
tp830
F0.0
s(g826
g824
tp831
F0.0
s(g824
g826
tp832
F0.0
s(g827
g824
tp833
F0.0
s(g827
g826
tp834
F0.0
ssg3
F0.3333333333333333
sg23
(lp835
(lp836
g824
ag826
ag827
aasg2
F0.0
ssI43
(dp837
g1
F0.0
sg7
(lp838
(lp839
S'bad'
p840
aa(lp841
S'distressing'
p842
aasg15
(dp843
(g840
g842
tp844
F0.0
s(g842
g840
tp845
F0.0
ssg3
F0.0
sg23
(lp846
(lp847
g840
ag842
aasg2
F0.0
ssI44
(dp848
g1
F0.0
sg7
(lp849
(lp850
S'much'
p851
aa(lp852
S'excessive'
p853
aS'huge'
p854
aasg15
(dp855
(g853
g851
tp856
F0.0
s(g851
g853
tp857
F0.0
s(g854
g853
tp858
F0.0
s(g854
g851
tp859
F0.0
s(g851
g854
tp860
F0.0
s(g853
g854
tp861
F0.0
ssg3
F0.3333333333333333
sg23
(lp862
(lp863
g851
ag853
ag854
aasg2
F0.0
ssI45
(dp864
g1
F0.8164965809277261
sg7
(lp865
(lp866
S'scary'
p867
aS'frightening'
p868
aa(lp869
S'terrifying'
p870
aasg15
(dp871
(g867
g870
tp872
F0.0
s(g870
g867
tp873
F0.0
s(g870
g868
tp874
F-5.51052947162953
s(g868
g870
tp875
F5.51052947162953
s(g868
g867
tp876
F-1.0
s(g867
g868
tp877
F1.0
ssg3
F0.6666666666666666
sg23
(lp878
(lp879
S'scary'
p880
aa(lp881
S'frightening'
p882
aa(lp883
S'terrifying'
p884
aasg2
F0.8164965809277261
ssI46
(dp885
g1
F0.6
sg7
(lp886
(lp887
S'tough'
p888
aa(lp889
S'tougher'
p890
aa(lp891
S'rigorous'
p892
aa(lp893
S'stringent'
p894
aa(lp895
S'severe'
p896
aasg15
(dp897
(g894
g892
tp898
F0.0
s(g890
g894
tp899
F0.0
s(g888
g890
tp900
F1.0
s(g896
g890
tp901
F0.0
s(g892
g896
tp902
F0.0
s(g892
g890
tp903
F0.0
s(g888
g896
tp904
F0.0
s(g890
g892
tp905
F0.0
s(g894
g896
tp906
F0.0
s(g890
g896
tp907
F0.0
s(g892
g888
tp908
F0.0
s(g890
g888
tp909
F-1.0
s(g892
g894
tp910
F0.0
s(g896
g888
tp911
F0.0
s(g896
g892
tp912
F0.0
s(g888
g894
tp913
F0.0
s(g888
g892
tp914
F0.0
s(g894
g890
tp915
F0.0
s(g896
g894
tp916
F0.0
s(g894
g888
tp917
F0.0
ssg3
F0.8
sg23
(lp918
(lp919
S'tough'
p920
aa(lp921
S'tougher'
p922
aa(lp923
g894
aa(lp924
g896
aa(lp925
g892
aasg2
F0.6
ssI47
(dp926
g1
F0.0
sg7
(lp927
(lp928
S'low'
p929
aa(lp930
S'limited'
p931
aa(lp932
S'scarce'
p933
aasg15
(dp934
(g931
g929
tp935
F0.0
s(g931
g933
tp936
F0.0
s(g929
g933
tp937
F0.0
s(g929
g931
tp938
F0.0
s(g933
g931
tp939
F0.0
s(g933
g929
tp940
F0.0
ssg3
F0.0
sg23
(lp941
(lp942
g929
ag931
ag933
aasg2
F0.0
ssI48
(dp943
g1
F0.8
sg7
(lp944
(lp945
S'good'
p946
aa(lp947
S'better'
p948
aa(lp949
S'remarkable'
p950
aa(lp951
S'exceptional'
p952
aa(lp953
S'perfect'
p954
aasg15
(dp955
(g948
g950
tp956
F0.0
s(g954
g948
tp957
F-4.7047037540094525
s(g952
g954
tp958
F0.0
s(g950
g952
tp959
F0.0
s(g952
g946
tp960
F-16.094478800641774
s(g946
g954
tp961
F7.014303231691684
s(g948
g946
tp962
F-2.233888123645968
s(g950
g954
tp963
F0.0
s(g954
g952
tp964
F0.0
s(g950
g946
tp965
F-1.0
s(g954
g950
tp966
F0.0
s(g948
g954
tp967
F4.7047037540094525
s(g952
g948
tp968
F0.0
s(g952
g950
tp969
F0.0
s(g946
g950
tp970
F1.0
s(g946
g948
tp971
F2.233888123645968
s(g946
g952
tp972
F16.094478800641774
s(g954
g946
tp973
F-7.014303231691684
s(g950
g948
tp974
F0.0
s(g948
g952
tp975
F0.0
ssg3
F0.9
sg23
(lp976
(lp977
S'good'
p978
aa(lp979
S'better'
p980
aa(lp981
S'exceptional'
p982
aa(lp983
S'remarkable'
p984
aa(lp985
S'perfect'
p986
aasg2
F0.8
ssI49
(dp987
g1
F0.0
sg7
(lp988
(lp989
S'few'
p990
aS'little'
p991
aa(lp992
S'least'
p993
aasg15
(dp994
(g993
g990
tp995
F0.0
s(g993
g991
tp996
F0.0
s(g990
g991
tp997
F0.0
s(g991
g993
tp998
F0.0
s(g990
g993
tp999
F0.0
s(g991
g990
tp1000
F0.0
ssg3
F0.3333333333333333
sg23
(lp1001
(lp1002
g990
ag991
ag993
aasg2
F0.0
ssI50
(dp1003
g1
F0.0
sg7
(lp1004
(lp1005
S'unhappy'
p1006
aS'sad'
p1007
aa(lp1008
S'miserable'
p1009
aasg15
(dp1010
(g1007
g1009
tp1011
F0.0
s(g1006
g1009
tp1012
F0.0
s(g1009
g1006
tp1013
F0.0
s(g1009
g1007
tp1014
F0.0
s(g1006
g1007
tp1015
F0.0
s(g1007
g1006
tp1016
F0.0
ssg3
F0.3333333333333333
sg23
(lp1017
(lp1018
g1006
ag1007
ag1009
aasg2
F0.0
ssI51
(dp1019
g1
F0.0
sg7
(lp1020
(lp1021
S'competent'
p1022
aa(lp1023
S'impressive'
p1024
aasg15
(dp1025
(g1022
g1024
tp1026
F0.0
s(g1024
g1022
tp1027
F0.0
ssg3
F0.0
sg23
(lp1028
(lp1029
g1022
ag1024
aasg2
F0.0
ssI52
(dp1030
g1
F0.0
sg7
(lp1031
(lp1032
S'relevant'
p1033
aa(lp1034
S'crucial'
p1035
aasg15
(dp1036
(g1033
g1035
tp1037
F0.0
s(g1035
g1033
tp1038
F0.0
ssg3
F0.0
sg23
(lp1039
(lp1040
g1033
ag1035
aasg2
F0.0
ssI53
(dp1041
g1
F0.0
sg7
(lp1042
(lp1043
S'effective'
p1044
aa(lp1045
S'potent'
p1046
aasg15
(dp1047
(g1046
g1044
tp1048
F0.0
s(g1044
g1046
tp1049
F0.0
ssg3
F0.0
sg23
(lp1050
(lp1051
g1044
ag1046
aasg2
F0.0
ssI54
(dp1052
g1
F0.0
sg7
(lp1053
(lp1054
S'general'
p1055
aa(lp1056
S'broad'
p1057
aa(lp1058
S'broader'
p1059
aa(lp1060
S'wide-ranging'
p1061
aa(lp1062
S'diverse'
p1063
aasg15
(dp1064
(g1055
g1059
tp1065
F0.0
s(g1063
g1057
tp1066
F0.0
s(g1063
g1059
tp1067
F0.0
s(g1057
g1055
tp1068
F0.0
s(g1061
g1057
tp1069
F0.0
s(g1059
g1055
tp1070
F0.0
s(g1057
g1059
tp1071
F0.0
s(g1059
g1057
tp1072
F0.0
s(g1059
g1061
tp1073
F0.0
s(g1059
g1063
tp1074
F0.0
s(g1061
g1059
tp1075
F0.0
s(g1057
g1061
tp1076
F0.0
s(g1061
g1055
tp1077
F0.0
s(g1055
g1057
tp1078
F0.0
s(g1063
g1055
tp1079
F0.0
s(g1055
g1063
tp1080
F0.0
s(g1061
g1063
tp1081
F0.0
s(g1057
g1063
tp1082
F0.0
s(g1055
g1061
tp1083
F0.0
s(g1063
g1061
tp1084
F0.0
ssg3
F0.0
sg23
(lp1085
(lp1086
g1055
ag1057
ag1059
ag1061
ag1063
aasg2
F0.0
ssI55
(dp1087
g1
F0.0
sg7
(lp1088
(lp1089
S'costly'
p1090
aa(lp1091
S'expensive'
p1092
aa(lp1093
S'excessive'
p1094
aS'exorbitant'
p1095
aasg15
(dp1096
(g1095
g1092
tp1097
F0.0
s(g1094
g1090
tp1098
F0.0
s(g1095
g1094
tp1099
F0.0
s(g1090
g1095
tp1100
F0.0
s(g1090
g1094
tp1101
F0.0
s(g1095
g1090
tp1102
F0.0
s(g1094
g1092
tp1103
F0.0
s(g1094
g1095
tp1104
F0.0
s(g1092
g1090
tp1105
F0.0
s(g1092
g1094
tp1106
F0.0
s(g1092
g1095
tp1107
F0.0
s(g1090
g1092
tp1108
F0.0
ssg3
F0.16666666666666666
sg23
(lp1109
(lp1110
g1090
ag1092
ag1094
ag1095
aasg2
F0.0
ssI56
(dp1111
g1
F0.0
sg7
(lp1112
(lp1113
S'big'
p1114
aa(lp1115
S'substantial'
p1116
aS'major'
p1117
aa(lp1118
S'tremendous'
p1119
aS'staggering'
p1120
aasg15
(dp1121
(g1116
g1119
tp1122
F0.0
s(g1119
g1120
tp1123
F0.0
s(g1116
g1114
tp1124
F0.0
s(g1117
g1116
tp1125
F0.0
s(g1117
g1120
tp1126
F0.0
s(g1117
g1114
tp1127
F0.0
s(g1120
g1117
tp1128
F0.0
s(g1114
g1117
tp1129
F0.0
s(g1117
g1119
tp1130
F0.0
s(g1114
g1119
tp1131
F0.0
s(g1114
g1120
tp1132
F0.0
s(g1120
g1114
tp1133
F0.0
s(g1119
g1114
tp1134
F0.0
s(g1120
g1116
tp1135
F0.0
s(g1116
g1117
tp1136
F0.0
s(g1116
g1120
tp1137
F0.0
s(g1119
g1117
tp1138
F0.0
s(g1114
g1116
tp1139
F0.0
s(g1120
g1119
tp1140
F0.0
s(g1119
g1116
tp1141
F0.0
ssg3
F0.2
sg23
(lp1142
(lp1143
g1114
ag1116
ag1117
ag1119
ag1120
aasg2
F0.0
ssI57
(dp1144
g1
F0.23145502494313785
sg7
(lp1145
(lp1146
S'sizeable'
p1147
aa(lp1148
S'huge'
p1149
aa(lp1150
S'major'
p1151
aa(lp1152
S'immense'
p1153
aS'formidable'
p1154
aa(lp1155
S'colossal'
p1156
aS'overwhelming'
p1157
aS'tremendous'
p1158
aasg15
(dp1159
(g1157
g1154
tp1160
F0.0
s(g1158
g1147
tp1161
F0.0
s(g1156
g1154
tp1162
F0.0
s(g1151
g1156
tp1163
F0.0
s(g1154
g1156
tp1164
F0.0
s(g1153
g1149
tp1165
F0.0
s(g1154
g1147
tp1166
F0.0
s(g1149
g1156
tp1167
F1.389126097963899
s(g1156
g1158
tp1168
F0.0
s(g1157
g1158
tp1169
F0.0
s(g1158
g1157
tp1170
F0.0
s(g1153
g1156
tp1171
F0.0
s(g1149
g1147
tp1172
F-1.3960164066867384
s(g1158
g1154
tp1173
F0.0
s(g1158
g1149
tp1174
F0.0
s(g1154
g1158
tp1175
F0.0
s(g1154
g1151
tp1176
F0.0
s(g1151
g1154
tp1177
F0.0
s(g1149
g1158
tp1178
F0.0
s(g1153
g1147
tp1179
F0.0
s(g1157
g1156
tp1180
F0.0
s(g1154
g1157
tp1181
F0.0
s(g1156
g1157
tp1182
F0.0
s(g1153
g1157
tp1183
F0.0
s(g1157
g1147
tp1184
F0.0
s(g1151
g1153
tp1185
F0.0
s(g1149
g1151
tp1186
F0.0
s(g1147
g1151
tp1187
F0.0
s(g1149
g1157
tp1188
F1.0
s(g1156
g1151
tp1189
F0.0
s(g1154
g1153
tp1190
F0.0
s(g1156
g1149
tp1191
F-1.389126097963899
s(g1147
g1154
tp1192
F0.0
s(g1147
g1149
tp1193
F1.3960164066867384
s(g1149
g1153
tp1194
F0.0
s(g1147
g1158
tp1195
F0.0
s(g1151
g1147
tp1196
F0.0
s(g1157
g1153
tp1197
F0.0
s(g1153
g1154
tp1198
F0.0
s(g1158
g1153
tp1199
F0.0
s(g1157
g1151
tp1200
F0.0
s(g1153
g1151
tp1201
F0.0
s(g1156
g1147
tp1202
F0.0
s(g1157
g1149
tp1203
F-1.0
s(g1158
g1151
tp1204
F0.0
s(g1149
g1154
tp1205
F0.0
s(g1151
g1158
tp1206
F0.0
s(g1151
g1149
tp1207
F0.0
s(g1147
g1156
tp1208
F0.0
s(g1153
g1158
tp1209
F0.0
s(g1158
g1156
tp1210
F0.0
s(g1154
g1149
tp1211
F0.0
s(g1156
g1153
tp1212
F0.0
s(g1147
g1153
tp1213
F0.0
s(g1151
g1157
tp1214
F0.0
s(g1147
g1157
tp1215
F0.0
ssg3
F0.5357142857142857
sg23
(lp1216
(lp1217
S'sizeable'
p1218
aa(lp1219
S'huge'
p1220
aa(lp1221
g1158
aa(lp1222
S'overwhelming'
p1223
aa(lp1224
g1154
aa(lp1225
g1153
aa(lp1226
S'colossal'
p1227
aa(lp1228
g1151
aasg2
F0.23145502494313785
ssI58
(dp1229
g1
F0.6708203932499369
sg7
(lp1230
(lp1231
S'fine'
p1232
aS'well'
p1233
aa(lp1234
S'terrific'
p1235
aS'awesome'
p1236
aa(lp1237
S'perfect'
p1238
aasg15
(dp1239
(g1232
g1233
tp1240
F0.0
s(g1233
g1238
tp1241
F1.0
s(g1232
g1235
tp1242
F0.0
s(g1232
g1236
tp1243
F0.0
s(g1238
g1232
tp1244
F0.0
s(g1233
g1235
tp1245
F0.0
s(g1236
g1233
tp1246
F0.0
s(g1236
g1238
tp1247
F10.434287724189229
s(g1235
g1232
tp1248
F0.0
s(g1238
g1235
tp1249
F0.0
s(g1235
g1238
tp1250
F0.0
s(g1238
g1236
tp1251
F-10.434287724189229
s(g1232
g1238
tp1252
F0.0
s(g1233
g1236
tp1253
F0.0
s(g1235
g1236
tp1254
F0.0
s(g1233
g1232
tp1255
F0.0
s(g1236
g1235
tp1256
F0.0
s(g1236
g1232
tp1257
F0.0
s(g1238
g1233
tp1258
F-1.0
s(g1235
g1233
tp1259
F0.0
ssg3
F0.7
sg23
(lp1260
(lp1261
S'well'
p1262
aa(lp1263
S'awesome'
p1264
aa(lp1265
g1232
aa(lp1266
g1235
aa(lp1267
S'perfect'
p1268
aasg2
F0.6708203932499369
ssI59
(dp1269
g1
F0.0
sg7
(lp1270
(lp1271
S'little'
p1272
aa(lp1273
S'feeble'
p1274
aasg15
(dp1275
(g1272
g1274
tp1276
F0.0
s(g1274
g1272
tp1277
F0.0
ssg3
F0.0
sg23
(lp1278
(lp1279
g1272
ag1274
aasg2
F0.0
ssI60
(dp1280
g1
F0.0
sg7
(lp1281
(lp1282
S'improper'
p1283
aS'poor'
p1284
aa(lp1285
S'incorrect'
p1286
aS'unsatisfactory'
p1287
aasg15
(dp1288
(g1283
g1284
tp1289
F0.0
s(g1284
g1287
tp1290
F0.0
s(g1284
g1286
tp1291
F0.0
s(g1286
g1283
tp1292
F0.0
s(g1286
g1284
tp1293
F0.0
s(g1284
g1283
tp1294
F0.0
s(g1283
g1287
tp1295
F0.0
s(g1283
g1286
tp1296
F0.0
s(g1287
g1284
tp1297
F0.0
s(g1287
g1286
tp1298
F0.0
s(g1287
g1283
tp1299
F0.0
s(g1286
g1287
tp1300
F0.0
ssg3
F0.3333333333333333
sg23
(lp1301
(lp1302
g1283
ag1284
ag1286
ag1287
aasg2
F0.0
ssI61
(dp1303
g1
F1.0
sg7
(lp1304
(lp1305
S'unusual'
p1306
aa(lp1307
S'rare'
p1308
aasg15
(dp1309
(g1308
g1306
tp1310
F-1.0
s(g1306
g1308
tp1311
F1.0
ssg3
F1.0
sg23
(lp1312
(lp1313
S'unusual'
p1314
aa(lp1315
S'rare'
p1316
aasg2
F1.0
ssI62
(dp1317
g1
F0.4472135954999579
sg7
(lp1318
(lp1319
S'sizeable'
p1320
aa(lp1321
S'big'
p1322
aa(lp1323
S'huge'
p1324
aa(lp1325
S'immense'
p1326
aS'enormous'
p1327
aS'tremendous'
p1328
aasg15
(dp1329
(g1328
g1320
tp1330
F0.0
s(g1328
g1327
tp1331
F0.0
s(g1322
g1327
tp1332
F0.0
s(g1327
g1328
tp1333
F0.0
s(g1322
g1320
tp1334
F0.0
s(g1326
g1324
tp1335
F0.0
s(g1327
g1324
tp1336
F0.0
s(g1320
g1322
tp1337
F0.0
s(g1322
g1326
tp1338
F0.0
s(g1324
g1327
tp1339
F0.0
s(g1324
g1320
tp1340
F-10.294259795468358
s(g1328
g1324
tp1341
F0.0
s(g1326
g1327
tp1342
F0.0
s(g1324
g1328
tp1343
F0.0
s(g1326
g1320
tp1344
F0.0
s(g1327
g1320
tp1345
F0.0
s(g1324
g1322
tp1346
F-1.0
s(g1326
g1328
tp1347
F0.0
s(g1326
g1322
tp1348
F0.0
s(g1327
g1322
tp1349
F0.0
s(g1320
g1324
tp1350
F10.294259795468358
s(g1324
g1326
tp1351
F0.0
s(g1320
g1328
tp1352
F0.0
s(g1328
g1326
tp1353
F0.0
s(g1327
g1326
tp1354
F0.0
s(g1320
g1327
tp1355
F0.0
s(g1322
g1324
tp1356
F1.0
s(g1322
g1328
tp1357
F0.0
s(g1328
g1322
tp1358
F0.0
s(g1320
g1326
tp1359
F0.0
ssg3
F0.6
sg23
(lp1360
(lp1361
S'sizeable'
p1362
aa(lp1363
S'big'
p1364
aa(lp1365
g1326
aa(lp1366
g1328
aa(lp1367
g1327
aa(lp1368
S'huge'
p1369
aasg2
F0.4472135954999579
ssI63
(dp1370
g1
F0.0
sg7
(lp1371
(lp1372
S'weak'
p1373
aa(lp1374
S'shaky'
p1375
aa(lp1376
S'vulnerable'
p1377
aasg15
(dp1378
(g1377
g1373
tp1379
F0.0
s(g1375
g1377
tp1380
F0.0
s(g1377
g1375
tp1381
F0.0
s(g1373
g1377
tp1382
F0.0
s(g1373
g1375
tp1383
F0.0
s(g1375
g1373
tp1384
F0.0
ssg3
F0.0
sg23
(lp1385
(lp1386
g1373
ag1375
ag1377
aasg2
F0.0
ssI64
(dp1387
g1
F0.0
sg7
(lp1388
(lp1389
S'few'
p1390
aa(lp1391
S'limited'
p1392
aa(lp1393
S'scant'
p1394
aS'meagre'
p1395
aasg15
(dp1396
(g1392
g1394
tp1397
F0.0
s(g1390
g1392
tp1398
F0.0
s(g1395
g1394
tp1399
F0.0
s(g1394
g1390
tp1400
F0.0
s(g1392
g1390
tp1401
F0.0
s(g1394
g1395
tp1402
F0.0
s(g1392
g1395
tp1403
F0.0
s(g1390
g1394
tp1404
F0.0
s(g1394
g1392
tp1405
F0.0
s(g1395
g1390
tp1406
F0.0
s(g1395
g1392
tp1407
F0.0
s(g1390
g1395
tp1408
F0.0
ssg3
F0.16666666666666666
sg23
(lp1409
(lp1410
g1390
ag1392
ag1394
ag1395
aasg2
F0.0
ssI65
(dp1411
g1
F1.0
sg7
(lp1412
(lp1413
S'small'
p1414
aa(lp1415
S'minute'
p1416
aa(lp1417
S'miniscule'
p1418
aasg15
(dp1419
(g1414
g1416
tp1420
F1.0
s(g1418
g1416
tp1421
F0.0
s(g1416
g1414
tp1422
F-1.0
s(g1418
g1414
tp1423
F0.0
s(g1416
g1418
tp1424
F0.0
s(g1414
g1418
tp1425
F0.0
ssg3
F1.0
sg23
(lp1426
(lp1427
S'small'
p1428
aa(lp1429
S'minute'
p1430
aa(lp1431
g1418
aasg2
F1.0
ssI66
(dp1432
g1
F0.7745966692414834
sg7
(lp1433
(lp1434
S'general'
p1435
aS'commonplace'
p1436
aa(lp1437
S'comprehensive'
p1438
aS'universal'
p1439
aS'global'
p1440
aasg15
(dp1441
(g1436
g1435
tp1442
F0.0
s(g1440
g1439
tp1443
F0.0
s(g1440
g1438
tp1444
F0.0
s(g1439
g1440
tp1445
F0.0
s(g1438
g1435
tp1446
F0.0
s(g1435
g1436
tp1447
F0.0
s(g1436
g1439
tp1448
F0.0
s(g1438
g1436
tp1449
F0.0
s(g1436
g1440
tp1450
F0.0
s(g1435
g1439
tp1451
F1.0
s(g1440
g1436
tp1452
F0.0
s(g1438
g1439
tp1453
F0.0
s(g1435
g1440
tp1454
F0.0
s(g1436
g1438
tp1455
F0.0
s(g1439
g1438
tp1456
F0.0
s(g1435
g1438
tp1457
F0.0
s(g1440
g1435
tp1458
F0.0
s(g1439
g1436
tp1459
F0.0
s(g1439
g1435
tp1460
F-1.0
s(g1438
g1440
tp1461
F0.0
ssg3
F0.6
sg23
(lp1462
(lp1463
S'general'
p1464
aa(lp1465
g1436
aa(lp1466
g1440
aa(lp1467
S'universal'
p1468
aa(lp1469
g1438
aasg2
F0.7745966692414834
ssI67
(dp1470
g1
F0.0
sg7
(lp1471
(lp1472
S'awful'
p1473
aa(lp1474
S'dreadful'
p1475
aasg15
(dp1476
(g1473
g1475
tp1477
F0.0
s(g1475
g1473
tp1478
F0.0
ssg3
F0.0
sg23
(lp1479
(lp1480
g1473
ag1475
aasg2
F0.0
ssI68
(dp1481
g1
F0.0
sg7
(lp1482
(lp1483
S'low'
p1484
aa(lp1485
S'scarce'
p1486
aa(lp1487
S'inadequate'
p1488
aa(lp1489
S'unacceptable'
p1490
aasg15
(dp1491
(g1484
g1486
tp1492
F0.0
s(g1488
g1486
tp1493
F0.0
s(g1484
g1488
tp1494
F0.0
s(g1488
g1484
tp1495
F0.0
s(g1488
g1490
tp1496
F0.0
s(g1484
g1490
tp1497
F0.0
s(g1486
g1490
tp1498
F0.0
s(g1490
g1486
tp1499
F0.0
s(g1486
g1484
tp1500
F0.0
s(g1490
g1484
tp1501
F0.0
s(g1486
g1488
tp1502
F0.0
s(g1490
g1488
tp1503
F0.0
ssg3
F0.0
sg23
(lp1504
(lp1505
g1484
ag1486
ag1488
ag1490
aasg2
F0.0
ssI69
(dp1506
g1
F0.0
sg7
(lp1507
(lp1508
S'little'
p1509
aa(lp1510
S'tiny'
p1511
aasg15
(dp1512
(g1511
g1509
tp1513
F0.0
s(g1509
g1511
tp1514
F0.0
ssg3
F0.0
sg23
(lp1515
(lp1516
g1509
ag1511
aasg2
F0.0
ssI70
(dp1517
g1
F0.0
sg7
(lp1518
(lp1519
S'hardworking'
p1520
aa(lp1521
S'tenacious'
p1522
aa(lp1523
S'tough'
p1524
aasg15
(dp1525
(g1520
g1524
tp1526
F0.0
s(g1520
g1522
tp1527
F0.0
s(g1522
g1520
tp1528
F0.0
s(g1522
g1524
tp1529
F0.0
s(g1524
g1520
tp1530
F0.0
s(g1524
g1522
tp1531
F0.0
ssg3
F0.0
sg23
(lp1532
(lp1533
g1520
ag1522
ag1524
aasg2
F0.0
ssI71
(dp1534
g1
F0.0
sg7
(lp1535
(lp1536
S'cute'
p1537
aa(lp1538
S'gorgeous'
p1539
aasg15
(dp1540
(g1539
g1537
tp1541
F0.0
s(g1537
g1539
tp1542
F0.0
ssg3
F0.0
sg23
(lp1543
(lp1544
g1537
ag1539
aasg2
F0.0
ssI72
(dp1545
g1
F0.0
sg7
(lp1546
(lp1547
S'known'
p1548
aa(lp1549
S'noteworthy'
p1550
aS'celebrated'
p1551
aasg15
(dp1552
(g1551
g1550
tp1553
F0.0
s(g1548
g1550
tp1554
F0.0
s(g1550
g1548
tp1555
F0.0
s(g1551
g1548
tp1556
F0.0
s(g1550
g1551
tp1557
F0.0
s(g1548
g1551
tp1558
F0.0
ssg3
F0.3333333333333333
sg23
(lp1559
(lp1560
g1548
ag1550
ag1551
aasg2
F0.0
ssI73
(dp1561
g1
F0.0
sg7
(lp1562
(lp1563
S'intact'
p1564
aa(lp1565
S'sturdy'
p1566
aasg15
(dp1567
(g1564
g1566
tp1568
F0.0
s(g1566
g1564
tp1569
F0.0
ssg3
F0.0
sg23
(lp1570
(lp1571
g1564
ag1566
aasg2
F0.0
ssI74
(dp1572
g1
F0.0
sg7
(lp1573
(lp1574
S'big'
p1575
aa(lp1576
S'vast'
p1577
aS'extensive'
p1578
aasg15
(dp1579
(g1575
g1578
tp1580
F0.0
s(g1577
g1578
tp1581
F0.0
s(g1577
g1575
tp1582
F0.0
s(g1578
g1575
tp1583
F0.0
s(g1578
g1577
tp1584
F0.0
s(g1575
g1577
tp1585
F0.0
ssg3
F0.3333333333333333
sg23
(lp1586
(lp1587
g1575
ag1577
ag1578
aasg2
F0.0
ssI75
(dp1588
g1
F0.0
sg7
(lp1589
(lp1590
S'hard'
p1591
aa(lp1592
S'problematic'
p1593
aasg15
(dp1594
(g1591
g1593
tp1595
F0.0
s(g1593
g1591
tp1596
F0.0
ssg3
F0.0
sg23
(lp1597
(lp1598
g1591
ag1593
aasg2
F0.0
ssI76
(dp1599
g1
F0.0
sg7
(lp1600
(lp1601
S'annoying'
p1602
aa(lp1603
S'obnoxious'
p1604
aasg15
(dp1605
(g1602
g1604
tp1606
F0.0
s(g1604
g1602
tp1607
F0.0
ssg3
F0.0
sg23
(lp1608
(lp1609
g1602
ag1604
aasg2
F0.0
ssI77
(dp1610
g1
F0.0
sg7
(lp1611
(lp1612
S'sad'
p1613
aa(lp1614
S'miserable'
p1615
aS'terrible'
p1616
aasg15
(dp1617
(g1613
g1616
tp1618
F0.0
s(g1613
g1615
tp1619
F0.0
s(g1616
g1615
tp1620
F0.0
s(g1616
g1613
tp1621
F0.0
s(g1615
g1616
tp1622
F0.0
s(g1615
g1613
tp1623
F0.0
ssg3
F0.3333333333333333
sg23
(lp1624
(lp1625
g1613
ag1615
ag1616
aasg2
F0.0
ssI78
(dp1626
g1
F0.0
sg7
(lp1627
(lp1628
S'fair'
p1629
aa(lp1630
S'fairer'
p1631
aa(lp1632
S'fairest'
p1633
aa(lp1634
S'beautiful'
p1635
aasg15
(dp1636
(g1631
g1629
tp1637
F0.0
s(g1633
g1629
tp1638
F0.0
s(g1631
g1633
tp1639
F0.0
s(g1629
g1633
tp1640
F0.0
s(g1635
g1633
tp1641
F0.0
s(g1629
g1635
tp1642
F0.0
s(g1631
g1635
tp1643
F0.0
s(g1635
g1629
tp1644
F0.0
s(g1633
g1635
tp1645
F0.0
s(g1629
g1631
tp1646
F0.0
s(g1635
g1631
tp1647
F0.0
s(g1633
g1631
tp1648
F0.0
ssg3
F0.0
sg23
(lp1649
(lp1650
g1629
ag1631
ag1633
ag1635
aasg2
F0.0
sss.