(dp0
S'tau'
p1
F0.4577330457233586
sS'|tau|'
p2
F0.6547056531939213
sS'pairwise'
p3
F0.6537267080745341
sS'ranking'
p4
(dp5
I0
(dp6
g1
F1.0
sS'gold'
p7
(lp8
(lp9
S'small'
p10
aa(lp11
S'minute'
p12
aa(lp13
S'miniscule'
p14
aasS'raw'
p15
(dp16
(g10
g12
tp17
F1.0
s(g14
g12
tp18
F0.0
s(g12
g10
tp19
F-1.0
s(g14
g10
tp20
F0.0
s(g12
g14
tp21
F0.0
s(g10
g14
tp22
F0.0
ssg3
F1.0
sS'algo'
p23
(lp24
(lp25
S'small'
p26
aa(lp27
S'minute'
p28
aa(lp29
g14
aasg2
F1.0
ssI1
(dp30
g1
F0.3333333333333333
sg7
(lp31
(lp32
S'upset'
p33
aa(lp34
S'angry'
p35
aa(lp36
S'enraged'
p37
aasg15
(dp38
(g33
g37
tp39
F0.0
s(g37
g33
tp40
F0.0
s(g35
g33
tp41
F1.0
s(g35
g37
tp42
F0.0
s(g37
g35
tp43
F0.0
s(g33
g35
tp44
F-1.0
ssg3
F0.6666666666666666
sg23
(lp45
(lp46
S'angry'
p47
aa(lp48
S'upset'
p49
aa(lp50
g37
aasg2
F0.3333333333333333
ssI2
(dp51
g1
F0.3333333333333333
sg7
(lp52
(lp53
S'useful'
p54
aa(lp55
S'worthwhile'
p56
aa(lp57
S'valuable'
p58
aasg15
(dp59
(g56
g54
tp60
F0.0
s(g58
g56
tp61
F0.0
s(g54
g56
tp62
F0.0
s(g58
g54
tp63
F-1.0
s(g54
g58
tp64
F1.0
s(g56
g58
tp65
F0.0
ssg3
F0.6666666666666666
sg23
(lp66
(lp67
S'useful'
p68
aa(lp69
S'valuable'
p70
aa(lp71
g56
aasg2
F0.3333333333333333
ssI3
(dp72
g1
F-0.3333333333333333
sg7
(lp73
(lp74
S'fine'
p75
aa(lp76
S'adequate'
p77
aa(lp78
S'good'
p79
aasg15
(dp80
(g77
g79
tp81
F-2.5789689927859527
s(g77
g75
tp82
F0.0
s(g75
g79
tp83
F-1.0
s(g79
g75
tp84
F1.0
s(g75
g77
tp85
F0.0
s(g79
g77
tp86
F2.5789689927859527
ssg3
F0.3333333333333333
sg23
(lp87
(lp88
S'good'
p89
aa(lp90
S'fine'
p91
aa(lp92
S'adequate'
p93
aasg2
F0.3333333333333333
ssI4
(dp94
g1
F0.3333333333333333
sg7
(lp95
(lp96
S'useful'
p97
aa(lp98
S'relevant'
p99
aa(lp100
S'necessary'
p101
aasg15
(dp102
(g97
g101
tp103
F161.14303434298205
s(g97
g99
tp104
F1.106944608917228
s(g99
g97
tp105
F-1.106944608917228
s(g101
g97
tp106
F-161.14303434298205
s(g101
g99
tp107
F1.0
s(g99
g101
tp108
F-1.0
ssg3
F0.6666666666666666
sg23
(lp109
(lp110
S'useful'
p111
aa(lp112
S'necessary'
p113
aa(lp114
S'relevant'
p115
aasg2
F0.3333333333333333
ssI5
(dp116
g1
F0.0
sg7
(lp117
(lp118
S'clear'
p119
aa(lp120
S'accurate'
p121
aa(lp122
S'precise'
p123
aa(lp124
S'exact'
p125
aasg15
(dp126
(g125
g123
tp127
F0.0
s(g121
g119
tp128
F0.0
s(g125
g119
tp129
F0.0
s(g119
g121
tp130
F0.0
s(g119
g125
tp131
F0.0
s(g123
g119
tp132
F0.0
s(g119
g123
tp133
F0.0
s(g125
g121
tp134
F0.0
s(g121
g123
tp135
F-1.0
s(g123
g125
tp136
F0.0
s(g121
g125
tp137
F0.0
s(g123
g121
tp138
F1.0
ssg3
F0.5
sg23
(lp139
(lp140
S'precise'
p141
aa(lp142
g119
aa(lp143
g125
aa(lp144
S'accurate'
p145
aasg2
F0.0
ssI6
(dp146
g1
F1.0
sg7
(lp147
(lp148
S'high'
p149
aa(lp150
S'higher'
p151
aasg15
(dp152
(g151
g149
tp153
F-1.0
s(g149
g151
tp154
F1.0
ssg3
F1.0
sg23
(lp155
(lp156
S'high'
p157
aa(lp158
S'higher'
p159
aasg2
F1.0
ssI7
(dp160
g1
F1.0
sg7
(lp161
(lp162
S'fine'
p163
aa(lp164
S'remarkable'
p165
aa(lp166
S'spectacular'
p167
aasg15
(dp168
(g167
g165
tp169
F0.0
s(g165
g163
tp170
F0.0
s(g165
g167
tp171
F0.0
s(g163
g167
tp172
F1.0
s(g167
g163
tp173
F-1.0
s(g163
g165
tp174
F0.0
ssg3
F1.0
sg23
(lp175
(lp176
S'fine'
p177
aa(lp178
g165
aa(lp179
S'spectacular'
p180
aasg2
F1.0
ssI8
(dp181
g1
F0.7453559924999299
sg7
(lp182
(lp183
S'a-okay'
p184
aS'okay'
p185
aS'fine'
p186
aa(lp187
S'appropriate'
p188
aa(lp189
S'faultless'
p190
aa(lp191
S'perfect'
p192
aasg15
(dp193
(g186
g188
tp194
F0.0
s(g185
g186
tp195
F0.0
s(g190
g184
tp196
F0.0
s(g186
g185
tp197
F0.0
s(g185
g190
tp198
F0.0
s(g192
g185
tp199
F-1.0
s(g192
g186
tp200
F0.0
s(g192
g190
tp201
F0.0
s(g184
g188
tp202
F0.0
s(g190
g188
tp203
F0.0
s(g188
g184
tp204
F0.0
s(g190
g192
tp205
F0.0
s(g185
g192
tp206
F1.0
s(g188
g190
tp207
F0.0
s(g184
g186
tp208
F0.0
s(g185
g188
tp209
F0.0
s(g192
g184
tp210
F0.0
s(g188
g185
tp211
F0.0
s(g186
g190
tp212
F0.0
s(g190
g185
tp213
F0.0
s(g188
g186
tp214
F0.0
s(g186
g192
tp215
F0.0
s(g184
g190
tp216
F0.0
s(g184
g185
tp217
F0.0
s(g186
g184
tp218
F0.0
s(g188
g192
tp219
F0.0
s(g192
g188
tp220
F0.0
s(g185
g184
tp221
F0.0
s(g190
g186
tp222
F0.0
s(g184
g192
tp223
F0.0
ssg3
F0.7333333333333333
sg23
(lp224
(lp225
S'okay'
p226
aa(lp227
g186
aa(lp228
g184
aa(lp229
g190
aa(lp230
g188
aa(lp231
S'perfect'
p232
aasg2
F0.7453559924999299
ssI9
(dp233
g1
F1.0
sg7
(lp234
(lp235
S'odd'
p236
aa(lp237
S'bizarre'
p238
aasg15
(dp239
(g236
g238
tp240
F1.0
s(g238
g236
tp241
F-1.0
ssg3
F1.0
sg23
(lp242
(lp243
S'odd'
p244
aa(lp245
S'bizarre'
p246
aasg2
F1.0
ssI10
(dp247
g1
F-0.4082482904638631
sg7
(lp248
(lp249
S'capable'
p250
aS'qualified'
p251
aa(lp252
S'skilled'
p253
aS'proficient'
p254
aasg15
(dp255
(g253
g250
tp256
F0.0
s(g253
g254
tp257
F0.0
s(g253
g251
tp258
F1.0
s(g254
g250
tp259
F0.0
s(g251
g250
tp260
F0.0
s(g251
g253
tp261
F-1.0
s(g250
g251
tp262
F0.0
s(g254
g251
tp263
F0.0
s(g250
g253
tp264
F0.0
s(g250
g254
tp265
F0.0
s(g251
g254
tp266
F0.0
s(g254
g253
tp267
F0.0
ssg3
F0.16666666666666666
sg23
(lp268
(lp269
S'skilled'
p270
aa(lp271
g250
aa(lp272
g254
aa(lp273
S'qualified'
p274
aasg2
F0.4082482904638631
ssI11
(dp275
g1
F-0.8164965809277261
sg7
(lp276
(lp277
S'content'
p278
aS'satisfied'
p279
aa(lp280
S'pleased'
p281
aasg15
(dp282
(g278
g281
tp283
F-1.0
s(g279
g278
tp284
F0.0
s(g281
g279
tp285
F55.35653947785488
s(g278
g279
tp286
F0.0
s(g281
g278
tp287
F1.0
s(g279
g281
tp288
F-55.35653947785488
ssg3
F0.0
sg23
(lp289
(lp290
S'pleased'
p291
aa(lp292
S'satisfied'
p293
aa(lp294
S'content'
p295
aasg2
F0.8164965809277261
ssI12
(dp296
g1
F-0.7071067811865476
sg7
(lp297
(lp298
S'adequate'
p299
aS'fine'
p300
aS'fitting'
p301
aa(lp302
S'good'
p303
aasg15
(dp304
(g300
g301
tp305
F0.0
s(g301
g303
tp306
F0.0
s(g299
g303
tp307
F-2.5789689927859527
s(g299
g300
tp308
F0.0
s(g300
g303
tp309
F-1.0
s(g301
g299
tp310
F0.0
s(g303
g301
tp311
F0.0
s(g303
g300
tp312
F1.0
s(g301
g300
tp313
F0.0
s(g300
g299
tp314
F0.0
s(g303
g299
tp315
F2.5789689927859527
s(g299
g301
tp316
F0.0
ssg3
F0.0
sg23
(lp317
(lp318
S'good'
p319
aa(lp320
g301
aa(lp321
S'fine'
p322
aa(lp323
S'adequate'
p324
aasg2
F0.7071067811865476
ssI13
(dp325
g1
F0.7071067811865476
sg7
(lp326
(lp327
S'pretty'
p328
aa(lp329
S'marvellous'
p330
aS'breathtaking'
p331
aS'spectacular'
p332
aasg15
(dp333
(g332
g331
tp334
F0.0
s(g328
g331
tp335
F0.0
s(g330
g331
tp336
F0.0
s(g330
g328
tp337
F0.0
s(g332
g328
tp338
F-1.0
s(g331
g330
tp339
F0.0
s(g331
g332
tp340
F0.0
s(g331
g328
tp341
F0.0
s(g328
g330
tp342
F0.0
s(g328
g332
tp343
F1.0
s(g330
g332
tp344
F0.0
s(g332
g330
tp345
F0.0
ssg3
F0.5
sg23
(lp346
(lp347
S'pretty'
p348
aa(lp349
S'spectacular'
p350
aa(lp351
g331
aa(lp352
g330
aasg2
F0.7071067811865476
ssI14
(dp353
g1
F0.8164965809277261
sg7
(lp354
(lp355
S'scary'
p356
aS'frightening'
p357
aa(lp358
S'terrifying'
p359
aasg15
(dp360
(g356
g359
tp361
F0.0
s(g359
g356
tp362
F0.0
s(g359
g357
tp363
F-5.51052947162953
s(g357
g359
tp364
F5.51052947162953
s(g357
g356
tp365
F-1.0
s(g356
g357
tp366
F1.0
ssg3
F0.6666666666666666
sg23
(lp367
(lp368
S'scary'
p369
aa(lp370
S'frightening'
p371
aa(lp372
S'terrifying'
p373
aasg2
F0.8164965809277261
ssI15
(dp374
g1
F0.6
sg7
(lp375
(lp376
S'tough'
p377
aa(lp378
S'tougher'
p379
aa(lp380
S'rigorous'
p381
aa(lp382
S'stringent'
p383
aa(lp384
S'severe'
p385
aasg15
(dp386
(g383
g381
tp387
F0.0
s(g379
g383
tp388
F0.0
s(g377
g379
tp389
F1.0
s(g385
g379
tp390
F0.0
s(g381
g385
tp391
F0.0
s(g381
g379
tp392
F0.0
s(g377
g385
tp393
F0.0
s(g379
g381
tp394
F0.0
s(g383
g385
tp395
F0.0
s(g379
g385
tp396
F0.0
s(g381
g377
tp397
F0.0
s(g379
g377
tp398
F-1.0
s(g381
g383
tp399
F0.0
s(g385
g377
tp400
F0.0
s(g385
g381
tp401
F0.0
s(g377
g383
tp402
F0.0
s(g377
g381
tp403
F0.0
s(g383
g379
tp404
F0.0
s(g385
g383
tp405
F0.0
s(g383
g377
tp406
F0.0
ssg3
F0.8
sg23
(lp407
(lp408
S'tough'
p409
aa(lp410
S'tougher'
p411
aa(lp412
g383
aa(lp413
g385
aa(lp414
g381
aasg2
F0.6
ssI16
(dp415
g1
F0.8
sg7
(lp416
(lp417
S'good'
p418
aa(lp419
S'better'
p420
aa(lp421
S'remarkable'
p422
aa(lp423
S'exceptional'
p424
aa(lp425
S'perfect'
p426
aasg15
(dp427
(g420
g422
tp428
F0.0
s(g426
g420
tp429
F-4.7047037540094525
s(g424
g426
tp430
F0.0
s(g422
g424
tp431
F0.0
s(g424
g418
tp432
F-16.094478800641774
s(g418
g426
tp433
F7.014303231691684
s(g420
g418
tp434
F-2.233888123645968
s(g422
g426
tp435
F0.0
s(g426
g424
tp436
F0.0
s(g422
g418
tp437
F-1.0
s(g426
g422
tp438
F0.0
s(g420
g426
tp439
F4.7047037540094525
s(g424
g420
tp440
F0.0
s(g424
g422
tp441
F0.0
s(g418
g422
tp442
F1.0
s(g418
g420
tp443
F2.233888123645968
s(g418
g424
tp444
F16.094478800641774
s(g426
g418
tp445
F-7.014303231691684
s(g422
g420
tp446
F0.0
s(g420
g424
tp447
F0.0
ssg3
F0.9
sg23
(lp448
(lp449
S'good'
p450
aa(lp451
S'better'
p452
aa(lp453
S'exceptional'
p454
aa(lp455
S'remarkable'
p456
aa(lp457
S'perfect'
p458
aasg2
F0.8
ssI17
(dp459
g1
F0.23145502494313785
sg7
(lp460
(lp461
S'sizeable'
p462
aa(lp463
S'huge'
p464
aa(lp465
S'major'
p466
aa(lp467
S'immense'
p468
aS'formidable'
p469
aa(lp470
S'colossal'
p471
aS'overwhelming'
p472
aS'tremendous'
p473
aasg15
(dp474
(g472
g469
tp475
F0.0
s(g473
g462
tp476
F0.0
s(g471
g469
tp477
F0.0
s(g466
g471
tp478
F0.0
s(g469
g471
tp479
F0.0
s(g468
g464
tp480
F0.0
s(g469
g462
tp481
F0.0
s(g464
g471
tp482
F1.389126097963899
s(g471
g473
tp483
F0.0
s(g472
g473
tp484
F0.0
s(g473
g472
tp485
F0.0
s(g468
g471
tp486
F0.0
s(g464
g462
tp487
F-1.3960164066867384
s(g473
g469
tp488
F0.0
s(g473
g464
tp489
F0.0
s(g469
g473
tp490
F0.0
s(g469
g466
tp491
F0.0
s(g466
g469
tp492
F0.0
s(g464
g473
tp493
F0.0
s(g468
g462
tp494
F0.0
s(g472
g471
tp495
F0.0
s(g469
g472
tp496
F0.0
s(g471
g472
tp497
F0.0
s(g468
g472
tp498
F0.0
s(g472
g462
tp499
F0.0
s(g466
g468
tp500
F0.0
s(g464
g466
tp501
F0.0
s(g462
g466
tp502
F0.0
s(g464
g472
tp503
F1.0
s(g471
g466
tp504
F0.0
s(g469
g468
tp505
F0.0
s(g471
g464
tp506
F-1.389126097963899
s(g462
g469
tp507
F0.0
s(g462
g464
tp508
F1.3960164066867384
s(g464
g468
tp509
F0.0
s(g462
g473
tp510
F0.0
s(g466
g462
tp511
F0.0
s(g472
g468
tp512
F0.0
s(g468
g469
tp513
F0.0
s(g473
g468
tp514
F0.0
s(g472
g466
tp515
F0.0
s(g468
g466
tp516
F0.0
s(g471
g462
tp517
F0.0
s(g472
g464
tp518
F-1.0
s(g473
g466
tp519
F0.0
s(g464
g469
tp520
F0.0
s(g466
g473
tp521
F0.0
s(g466
g464
tp522
F0.0
s(g462
g471
tp523
F0.0
s(g468
g473
tp524
F0.0
s(g473
g471
tp525
F0.0
s(g469
g464
tp526
F0.0
s(g471
g468
tp527
F0.0
s(g462
g468
tp528
F0.0
s(g466
g472
tp529
F0.0
s(g462
g472
tp530
F0.0
ssg3
F0.5357142857142857
sg23
(lp531
(lp532
S'sizeable'
p533
aa(lp534
S'huge'
p535
aa(lp536
g473
aa(lp537
S'overwhelming'
p538
aa(lp539
g469
aa(lp540
g468
aa(lp541
S'colossal'
p542
aa(lp543
g466
aasg2
F0.23145502494313785
ssI18
(dp544
g1
F0.6708203932499369
sg7
(lp545
(lp546
S'fine'
p547
aS'well'
p548
aa(lp549
S'terrific'
p550
aS'awesome'
p551
aa(lp552
S'perfect'
p553
aasg15
(dp554
(g547
g548
tp555
F0.0
s(g548
g553
tp556
F1.0
s(g547
g550
tp557
F0.0
s(g547
g551
tp558
F0.0
s(g553
g547
tp559
F0.0
s(g548
g550
tp560
F0.0
s(g551
g548
tp561
F0.0
s(g551
g553
tp562
F10.434287724189229
s(g550
g547
tp563
F0.0
s(g553
g550
tp564
F0.0
s(g550
g553
tp565
F0.0
s(g553
g551
tp566
F-10.434287724189229
s(g547
g553
tp567
F0.0
s(g548
g551
tp568
F0.0
s(g550
g551
tp569
F0.0
s(g548
g547
tp570
F0.0
s(g551
g550
tp571
F0.0
s(g551
g547
tp572
F0.0
s(g553
g548
tp573
F-1.0
s(g550
g548
tp574
F0.0
ssg3
F0.7
sg23
(lp575
(lp576
S'well'
p577
aa(lp578
S'awesome'
p579
aa(lp580
g547
aa(lp581
g550
aa(lp582
S'perfect'
p583
aasg2
F0.6708203932499369
ssI19
(dp584
g1
F1.0
sg7
(lp585
(lp586
S'unusual'
p587
aa(lp588
S'rare'
p589
aasg15
(dp590
(g589
g587
tp591
F-1.0
s(g587
g589
tp592
F1.0
ssg3
F1.0
sg23
(lp593
(lp594
S'unusual'
p595
aa(lp596
S'rare'
p597
aasg2
F1.0
ssI20
(dp598
g1
F0.4472135954999579
sg7
(lp599
(lp600
S'sizeable'
p601
aa(lp602
S'big'
p603
aa(lp604
S'huge'
p605
aa(lp606
S'immense'
p607
aS'enormous'
p608
aS'tremendous'
p609
aasg15
(dp610
(g609
g601
tp611
F0.0
s(g609
g608
tp612
F0.0
s(g603
g608
tp613
F0.0
s(g608
g609
tp614
F0.0
s(g603
g601
tp615
F0.0
s(g607
g605
tp616
F0.0
s(g608
g605
tp617
F0.0
s(g601
g603
tp618
F0.0
s(g603
g607
tp619
F0.0
s(g605
g608
tp620
F0.0
s(g605
g601
tp621
F-10.294259795468358
s(g609
g605
tp622
F0.0
s(g607
g608
tp623
F0.0
s(g605
g609
tp624
F0.0
s(g607
g601
tp625
F0.0
s(g608
g601
tp626
F0.0
s(g605
g603
tp627
F-1.0
s(g607
g609
tp628
F0.0
s(g607
g603
tp629
F0.0
s(g608
g603
tp630
F0.0
s(g601
g605
tp631
F10.294259795468358
s(g605
g607
tp632
F0.0
s(g601
g609
tp633
F0.0
s(g609
g607
tp634
F0.0
s(g608
g607
tp635
F0.0
s(g601
g608
tp636
F0.0
s(g603
g605
tp637
F1.0
s(g603
g609
tp638
F0.0
s(g609
g603
tp639
F0.0
s(g601
g607
tp640
F0.0
ssg3
F0.6
sg23
(lp641
(lp642
S'sizeable'
p643
aa(lp644
S'big'
p645
aa(lp646
g607
aa(lp647
g609
aa(lp648
g608
aa(lp649
S'huge'
p650
aasg2
F0.4472135954999579
ssI21
(dp651
g1
F1.0
sg7
(lp652
(lp653
S'small'
p654
aa(lp655
S'minute'
p656
aa(lp657
S'miniscule'
p658
aasg15
(dp659
(g654
g656
tp660
F1.0
s(g658
g656
tp661
F0.0
s(g656
g654
tp662
F-1.0
s(g658
g654
tp663
F0.0
s(g656
g658
tp664
F0.0
s(g654
g658
tp665
F0.0
ssg3
F1.0
sg23
(lp666
(lp667
S'small'
p668
aa(lp669
S'minute'
p670
aa(lp671
g658
aasg2
F1.0
ssI22
(dp672
g1
F0.7745966692414834
sg7
(lp673
(lp674
S'general'
p675
aS'commonplace'
p676
aa(lp677
S'comprehensive'
p678
aS'universal'
p679
aS'global'
p680
aasg15
(dp681
(g676
g675
tp682
F0.0
s(g680
g679
tp683
F0.0
s(g680
g678
tp684
F0.0
s(g679
g680
tp685
F0.0
s(g678
g675
tp686
F0.0
s(g675
g676
tp687
F0.0
s(g676
g679
tp688
F0.0
s(g678
g676
tp689
F0.0
s(g676
g680
tp690
F0.0
s(g675
g679
tp691
F1.0
s(g680
g676
tp692
F0.0
s(g678
g679
tp693
F0.0
s(g675
g680
tp694
F0.0
s(g676
g678
tp695
F0.0
s(g679
g678
tp696
F0.0
s(g675
g678
tp697
F0.0
s(g680
g675
tp698
F0.0
s(g679
g676
tp699
F0.0
s(g679
g675
tp700
F-1.0
s(g678
g680
tp701
F0.0
ssg3
F0.6
sg23
(lp702
(lp703
S'general'
p704
aa(lp705
g676
aa(lp706
g680
aa(lp707
S'universal'
p708
aa(lp709
g678
aasg2
F0.7745966692414834
sss.