(dp0
S'tau'
p1
F0.12433862433862432
sS'|tau|'
p2
F0.19312169312169314
sS'pairwise'
p3
F0.18915343915343916
sS'ranking'
p4
(dp5
I0
(dp6
g1
F1.0
sS'gold'
p7
(lp8
(lp9
S'small'
p10
aa(lp11
S'minute'
p12
aa(lp13
S'miniscule'
p14
aasS'raw'
p15
(dp16
(g10
g12
tp17
F1.0
s(g14
g12
tp18
F0.0
s(g12
g10
tp19
F-1.0
s(g14
g10
tp20
F0.0
s(g12
g14
tp21
F0.0
s(g10
g14
tp22
F0.0
ssg3
F1.0
sS'algo'
p23
(lp24
(lp25
S'small'
p26
aa(lp27
S'minute'
p28
aa(lp29
g14
aasg2
F1.0
ssI1
(dp30
g1
F0.3333333333333333
sg7
(lp31
(lp32
S'upset'
p33
aa(lp34
S'angry'
p35
aa(lp36
S'enraged'
p37
aasg15
(dp38
(g33
g37
tp39
F0.0
s(g37
g33
tp40
F0.0
s(g35
g33
tp41
F1.0
s(g35
g37
tp42
F0.0
s(g37
g35
tp43
F0.0
s(g33
g35
tp44
F-1.0
ssg3
F0.6666666666666666
sg23
(lp45
(lp46
S'angry'
p47
aa(lp48
S'upset'
p49
aa(lp50
g37
aasg2
F0.3333333333333333
ssI2
(dp51
g1
F0.0
sg7
(lp52
(lp53
S'positive'
p54
aa(lp55
S'terrific'
p56
aasg15
(dp57
(g56
g54
tp58
F0.0
s(g54
g56
tp59
F0.0
ssg3
F0.0
sg23
(lp60
(lp61
g54
ag56
aasg2
F0.0
ssI3
(dp62
g1
F0.0
sg7
(lp63
(lp64
S'valuable'
p65
aa(lp66
S'immeasurable'
p67
aasg15
(dp68
(g67
g65
tp69
F0.0
s(g65
g67
tp70
F0.0
ssg3
F0.0
sg23
(lp71
(lp72
g65
ag67
aasg2
F0.0
ssI4
(dp73
g1
F0.3333333333333333
sg7
(lp74
(lp75
S'useful'
p76
aa(lp77
S'worthwhile'
p78
aa(lp79
S'valuable'
p80
aasg15
(dp81
(g78
g76
tp82
F0.0
s(g80
g78
tp83
F0.0
s(g76
g78
tp84
F0.0
s(g80
g76
tp85
F-1.0
s(g76
g80
tp86
F1.0
s(g78
g80
tp87
F0.0
ssg3
F0.6666666666666666
sg23
(lp88
(lp89
S'useful'
p90
aa(lp91
S'valuable'
p92
aa(lp93
g78
aasg2
F0.3333333333333333
ssI5
(dp94
g1
F0.0
sg7
(lp95
(lp96
S'functioning'
p97
aa(lp98
S'efficient'
p99
aasg15
(dp100
(g97
g99
tp101
F0.0
s(g99
g97
tp102
F0.0
ssg3
F0.0
sg23
(lp103
(lp104
g97
ag99
aasg2
F0.0
ssI6
(dp105
g1
F0.0
sg7
(lp106
(lp107
S'low'
p108
aa(lp109
S'limited'
p110
aa(lp111
S'scarce'
p112
aasg15
(dp113
(g110
g108
tp114
F0.0
s(g110
g112
tp115
F0.0
s(g108
g112
tp116
F0.0
s(g108
g110
tp117
F0.0
s(g112
g110
tp118
F0.0
s(g112
g108
tp119
F0.0
ssg3
F0.0
sg23
(lp120
(lp121
g108
ag110
ag112
aasg2
F0.0
ssI7
(dp122
g1
F0.0
sg7
(lp123
(lp124
S'cute'
p125
aa(lp126
S'pretty'
p127
aa(lp128
S'lovely'
p129
aa(lp130
S'lovelier'
p131
aa(lp132
S'breathtaking'
p133
aasg15
(dp134
(g125
g133
tp135
F0.0
s(g127
g133
tp136
F0.0
s(g125
g127
tp137
F0.0
s(g131
g129
tp138
F0.0
s(g127
g129
tp139
F0.0
s(g133
g129
tp140
F0.0
s(g125
g129
tp141
F0.0
s(g131
g127
tp142
F0.0
s(g133
g125
tp143
F0.0
s(g133
g127
tp144
F0.0
s(g131
g133
tp145
F0.0
s(g129
g125
tp146
F0.0
s(g131
g125
tp147
F0.0
s(g125
g131
tp148
F0.0
s(g127
g131
tp149
F0.0
s(g127
g125
tp150
F0.0
s(g129
g131
tp151
F0.0
s(g129
g133
tp152
F0.0
s(g129
g127
tp153
F0.0
s(g133
g131
tp154
F0.0
ssg3
F0.0
sg23
(lp155
(lp156
g125
ag127
ag129
ag131
ag133
aasg2
F0.0
ssI8
(dp157
g1
F0.0
sg7
(lp158
(lp159
S'costly'
p160
aa(lp161
S'expensive'
p162
aa(lp163
S'exorbitant'
p164
aasg15
(dp165
(g162
g164
tp166
F0.0
s(g160
g164
tp167
F0.0
s(g164
g160
tp168
F0.0
s(g162
g160
tp169
F0.0
s(g164
g162
tp170
F0.0
s(g160
g162
tp171
F0.0
ssg3
F0.0
sg23
(lp172
(lp173
g160
ag162
ag164
aasg2
F0.0
ssI9
(dp174
g1
F0.0
sg7
(lp175
(lp176
S'lousy'
p177
aa(lp178
S'miserable'
p179
aa(lp180
S'horrible'
p181
aasg15
(dp182
(g179
g177
tp183
F0.0
s(g181
g177
tp184
F0.0
s(g177
g179
tp185
F0.0
s(g177
g181
tp186
F0.0
s(g179
g181
tp187
F0.0
s(g181
g179
tp188
F0.0
ssg3
F0.0
sg23
(lp189
(lp190
g177
ag179
ag181
aasg2
F0.0
ssI10
(dp191
g1
F-0.3333333333333333
sg7
(lp192
(lp193
S'fine'
p194
aa(lp195
S'adequate'
p196
aa(lp197
S'good'
p198
aasg15
(dp199
(g196
g198
tp200
F-2.5789689927859527
s(g196
g194
tp201
F0.0
s(g194
g198
tp202
F-1.0
s(g198
g194
tp203
F1.0
s(g194
g196
tp204
F0.0
s(g198
g196
tp205
F2.5789689927859527
ssg3
F0.3333333333333333
sg23
(lp206
(lp207
S'good'
p208
aa(lp209
S'fine'
p210
aa(lp211
S'adequate'
p212
aasg2
F0.3333333333333333
ssI11
(dp213
g1
F0.0
sg7
(lp214
(lp215
S'bad'
p216
aa(lp217
S'ludicrous'
p218
aasg15
(dp219
(g218
g216
tp220
F0.0
s(g216
g218
tp221
F0.0
ssg3
F0.0
sg23
(lp222
(lp223
g216
ag218
aasg2
F0.0
ssI12
(dp224
g1
F0.3333333333333333
sg7
(lp225
(lp226
S'useful'
p227
aa(lp228
S'relevant'
p229
aa(lp230
S'necessary'
p231
aasg15
(dp232
(g227
g231
tp233
F161.14303434298205
s(g227
g229
tp234
F1.106944608917228
s(g229
g227
tp235
F-1.106944608917228
s(g231
g227
tp236
F-161.14303434298205
s(g231
g229
tp237
F1.0
s(g229
g231
tp238
F-1.0
ssg3
F0.6666666666666666
sg23
(lp239
(lp240
S'useful'
p241
aa(lp242
S'necessary'
p243
aa(lp244
S'relevant'
p245
aasg2
F0.3333333333333333
ssI13
(dp246
g1
F0.0
sg7
(lp247
(lp248
S'fine'
p249
aa(lp250
S'satisfactory'
p251
aa(lp252
S'excellent'
p253
aasg15
(dp254
(g251
g249
tp255
F0.0
s(g253
g249
tp256
F0.0
s(g249
g253
tp257
F0.0
s(g253
g251
tp258
F0.0
s(g251
g253
tp259
F0.0
s(g249
g251
tp260
F0.0
ssg3
F0.0
sg23
(lp261
(lp262
g249
ag251
ag253
aasg2
F0.0
ssI14
(dp263
g1
F0.0
sg7
(lp264
(lp265
S'uncomfortable'
p266
aa(lp267
S'embarrassing'
p268
aasg15
(dp269
(g266
g268
tp270
F0.0
s(g268
g266
tp271
F0.0
ssg3
F0.0
sg23
(lp272
(lp273
g266
ag268
aasg2
F0.0
ssI15
(dp274
g1
F0.0
sg7
(lp275
(lp276
S'big'
p277
aa(lp278
S'substantial'
p279
aa(lp280
S'tremendous'
p281
aasg15
(dp282
(g279
g281
tp283
F0.0
s(g279
g277
tp284
F0.0
s(g277
g281
tp285
F0.0
s(g281
g277
tp286
F0.0
s(g281
g279
tp287
F0.0
s(g277
g279
tp288
F0.0
ssg3
F0.0
sg23
(lp289
(lp290
g277
ag279
ag281
aasg2
F0.0
ssI16
(dp291
g1
F0.0
sg7
(lp292
(lp293
S'big'
p294
aa(lp295
S'substantial'
p296
aa(lp297
S'staggering'
p298
aasg15
(dp299
(g296
g294
tp300
F0.0
s(g294
g298
tp301
F0.0
s(g298
g294
tp302
F0.0
s(g298
g296
tp303
F0.0
s(g296
g298
tp304
F0.0
s(g294
g296
tp305
F0.0
ssg3
F0.0
sg23
(lp306
(lp307
g294
ag296
ag298
aasg2
F0.0
ssI17
(dp308
g1
F0.0
sg7
(lp309
(lp310
S'clear'
p311
aa(lp312
S'accurate'
p313
aa(lp314
S'precise'
p315
aa(lp316
S'exact'
p317
aasg15
(dp318
(g317
g315
tp319
F0.0
s(g313
g311
tp320
F0.0
s(g317
g311
tp321
F0.0
s(g311
g313
tp322
F0.0
s(g311
g317
tp323
F0.0
s(g315
g311
tp324
F0.0
s(g311
g315
tp325
F0.0
s(g317
g313
tp326
F0.0
s(g313
g315
tp327
F-1.0
s(g315
g317
tp328
F0.0
s(g313
g317
tp329
F0.0
s(g315
g313
tp330
F1.0
ssg3
F0.5
sg23
(lp331
(lp332
S'precise'
p333
aa(lp334
g311
aa(lp335
g317
aa(lp336
S'accurate'
p337
aasg2
F0.0
ssI18
(dp338
g1
F0.0
sg7
(lp339
(lp340
S'pleased'
p341
aa(lp342
S'happy'
p343
aa(lp344
S'excited'
p345
aa(lp346
S'delighted'
p347
aa(lp348
S'overwhelmed'
p349
aasg15
(dp350
(g345
g349
tp351
F0.0
s(g343
g341
tp352
F0.0
s(g341
g349
tp353
F0.0
s(g347
g345
tp354
F0.0
s(g347
g343
tp355
F0.0
s(g341
g343
tp356
F0.0
s(g349
g347
tp357
F0.0
s(g347
g349
tp358
F0.0
s(g343
g347
tp359
F0.0
s(g345
g343
tp360
F0.0
s(g343
g345
tp361
F0.0
s(g341
g347
tp362
F0.0
s(g349
g345
tp363
F0.0
s(g345
g347
tp364
F0.0
s(g347
g341
tp365
F0.0
s(g349
g343
tp366
F0.0
s(g343
g349
tp367
F0.0
s(g345
g341
tp368
F0.0
s(g349
g341
tp369
F0.0
s(g341
g345
tp370
F0.0
ssg3
F0.0
sg23
(lp371
(lp372
g341
ag343
ag345
ag347
ag349
aasg2
F0.0
ssI19
(dp373
g1
F0.0
sg7
(lp374
(lp375
S'bad'
p376
aa(lp377
S'horrific'
p378
aa(lp379
S'horrendous'
p380
aasg15
(dp381
(g376
g380
tp382
F0.0
s(g378
g376
tp383
F0.0
s(g376
g378
tp384
F0.0
s(g378
g380
tp385
F0.0
s(g380
g378
tp386
F0.0
s(g380
g376
tp387
F0.0
ssg3
F0.0
sg23
(lp388
(lp389
g376
ag378
ag380
aasg2
F0.0
ssI20
(dp390
g1
F0.0
sg7
(lp391
(lp392
S'qualified'
p393
aa(lp394
S'excellent'
p395
aa(lp396
S'outstanding'
p397
aasg15
(dp398
(g395
g393
tp399
F0.0
s(g393
g397
tp400
F0.0
s(g397
g395
tp401
F0.0
s(g397
g393
tp402
F0.0
s(g393
g395
tp403
F0.0
s(g395
g397
tp404
F0.0
ssg3
F0.0
sg23
(lp405
(lp406
g393
ag395
ag397
aasg2
F0.0
ssI21
(dp407
g1
F1.0
sg7
(lp408
(lp409
S'high'
p410
aa(lp411
S'higher'
p412
aasg15
(dp413
(g412
g410
tp414
F-1.0
s(g410
g412
tp415
F1.0
ssg3
F1.0
sg23
(lp416
(lp417
S'high'
p418
aa(lp419
S'higher'
p420
aasg2
F1.0
ssI22
(dp421
g1
F1.0
sg7
(lp422
(lp423
S'fine'
p424
aa(lp425
S'remarkable'
p426
aa(lp427
S'spectacular'
p428
aasg15
(dp429
(g428
g426
tp430
F0.0
s(g426
g424
tp431
F0.0
s(g426
g428
tp432
F0.0
s(g424
g428
tp433
F1.0
s(g428
g424
tp434
F-1.0
s(g424
g426
tp435
F0.0
ssg3
F1.0
sg23
(lp436
(lp437
S'fine'
p438
aa(lp439
g426
aa(lp440
S'spectacular'
p441
aasg2
F1.0
ssI23
(dp442
g1
F0.0
sg7
(lp443
(lp444
S'a-okay'
p445
aa(lp446
S'appropriate'
p447
aa(lp448
S'faultless'
p449
aa(lp450
S'perfect'
p451
aasg15
(dp452
(g447
g451
tp453
F0.0
s(g447
g449
tp454
F0.0
s(g445
g447
tp455
F0.0
s(g451
g449
tp456
F0.0
s(g447
g445
tp457
F0.0
s(g451
g445
tp458
F0.0
s(g451
g447
tp459
F0.0
s(g449
g447
tp460
F0.0
s(g445
g449
tp461
F0.0
s(g445
g451
tp462
F0.0
s(g449
g451
tp463
F0.0
s(g449
g445
tp464
F0.0
ssg3
F0.0
sg23
(lp465
(lp466
g445
ag447
ag449
ag451
aasg2
F0.0
ssI24
(dp467
g1
F0.6666666666666666
sg7
(lp468
(lp469
S'okay'
p470
aa(lp471
S'appropriate'
p472
aa(lp473
S'faultless'
p474
aa(lp475
S'perfect'
p476
aasg15
(dp477
(g472
g476
tp478
F0.0
s(g472
g474
tp479
F0.0
s(g476
g474
tp480
F0.0
s(g470
g472
tp481
F0.0
s(g472
g470
tp482
F0.0
s(g476
g472
tp483
F0.0
s(g474
g470
tp484
F0.0
s(g474
g472
tp485
F0.0
s(g470
g474
tp486
F0.0
s(g476
g470
tp487
F-1.0
s(g474
g476
tp488
F0.0
s(g470
g476
tp489
F1.0
ssg3
F0.8333333333333334
sg23
(lp490
(lp491
S'okay'
p492
aa(lp493
g474
aa(lp494
g472
aa(lp495
S'perfect'
p496
aasg2
F0.6666666666666666
ssI25
(dp497
g1
F0.0
sg7
(lp498
(lp499
S'fine'
p500
aa(lp501
S'appropriate'
p502
aa(lp503
S'faultless'
p504
aa(lp505
S'perfect'
p506
aasg15
(dp507
(g500
g502
tp508
F0.0
s(g502
g504
tp509
F0.0
s(g502
g506
tp510
F0.0
s(g506
g504
tp511
F0.0
s(g500
g504
tp512
F0.0
s(g506
g502
tp513
F0.0
s(g504
g502
tp514
F0.0
s(g502
g500
tp515
F0.0
s(g500
g506
tp516
F0.0
s(g504
g500
tp517
F0.0
s(g504
g506
tp518
F0.0
s(g506
g500
tp519
F0.0
ssg3
F0.0
sg23
(lp520
(lp521
g500
ag502
ag504
ag506
aasg2
F0.0
ssI26
(dp522
g1
F0.0
sg7
(lp523
(lp524
S'graver'
p525
aa(lp526
S'critical'
p527
aa(lp528
S'life-threatening'
p529
aasg15
(dp530
(g529
g527
tp531
F0.0
s(g527
g529
tp532
F0.0
s(g525
g529
tp533
F0.0
s(g527
g525
tp534
F0.0
s(g525
g527
tp535
F0.0
s(g529
g525
tp536
F0.0
ssg3
F0.0
sg23
(lp537
(lp538
g525
ag527
ag529
aasg2
F0.0
ssI27
(dp539
g1
F1.0
sg7
(lp540
(lp541
S'odd'
p542
aa(lp543
S'bizarre'
p544
aasg15
(dp545
(g542
g544
tp546
F1.0
s(g544
g542
tp547
F-1.0
ssg3
F1.0
sg23
(lp548
(lp549
S'odd'
p550
aa(lp551
S'bizarre'
p552
aasg2
F1.0
ssI28
(dp553
g1
F0.0
sg7
(lp554
(lp555
S'unfortunate'
p556
aa(lp557
S'reprehensible'
p558
aasg15
(dp559
(g558
g556
tp560
F0.0
s(g556
g558
tp561
F0.0
ssg3
F0.0
sg23
(lp562
(lp563
g556
ag558
aasg2
F0.0
ssI29
(dp564
g1
F0.0
sg7
(lp565
(lp566
S'plenty'
p567
aa(lp568
S'vast'
p569
aa(lp570
S'abundant'
p571
aasg15
(dp572
(g569
g571
tp573
F0.0
s(g567
g571
tp574
F0.0
s(g569
g567
tp575
F0.0
s(g571
g569
tp576
F0.0
s(g571
g567
tp577
F0.0
s(g567
g569
tp578
F0.0
ssg3
F0.0
sg23
(lp579
(lp580
g567
ag569
ag571
aasg2
F0.0
ssI30
(dp581
g1
F0.0
sg7
(lp582
(lp583
S'pleased'
p584
aa(lp585
S'delighted'
p586
aasg15
(dp587
(g584
g586
tp588
F0.0
s(g586
g584
tp589
F0.0
ssg3
F0.0
sg23
(lp590
(lp591
g584
ag586
aasg2
F0.0
ssI31
(dp592
g1
F0.0
sg7
(lp593
(lp594
S'uncomfortable'
p595
aa(lp596
S'embarrassed'
p597
aasg15
(dp598
(g597
g595
tp599
F0.0
s(g595
g597
tp600
F0.0
ssg3
F0.0
sg23
(lp601
(lp602
g595
ag597
aasg2
F0.0
ssI32
(dp603
g1
F0.0
sg7
(lp604
(lp605
S'efficient'
p606
aa(lp607
S'optimum'
p608
aasg15
(dp609
(g608
g606
tp610
F0.0
s(g606
g608
tp611
F0.0
ssg3
F0.0
sg23
(lp612
(lp613
g606
ag608
aasg2
F0.0
ssI33
(dp614
g1
F0.0
sg7
(lp615
(lp616
S'satisfactory'
p617
aa(lp618
S'excellent'
p619
aasg15
(dp620
(g617
g619
tp621
F0.0
s(g619
g617
tp622
F0.0
ssg3
F0.0
sg23
(lp623
(lp624
g617
ag619
aasg2
F0.0
ssI34
(dp625
g1
F0.0
sg7
(lp626
(lp627
S'fine'
p628
aa(lp629
S'excellent'
p630
aasg15
(dp631
(g630
g628
tp632
F0.0
s(g628
g630
tp633
F0.0
ssg3
F0.0
sg23
(lp634
(lp635
g628
ag630
aasg2
F0.0
ssI35
(dp636
g1
F0.0
sg7
(lp637
(lp638
S'appropriate'
p639
aa(lp640
S'excellent'
p641
aasg15
(dp642
(g639
g641
tp643
F0.0
s(g641
g639
tp644
F0.0
ssg3
F0.0
sg23
(lp645
(lp646
g639
ag641
aasg2
F0.0
ssI36
(dp647
g1
F0.0
sg7
(lp648
(lp649
S'clear'
p650
aa(lp651
S'prominent'
p652
aasg15
(dp653
(g650
g652
tp654
F0.0
s(g652
g650
tp655
F0.0
ssg3
F0.0
sg23
(lp656
(lp657
g650
ag652
aasg2
F0.0
ssI37
(dp658
g1
F0.0
sg7
(lp659
(lp660
S'tough'
p661
aa(lp662
S'formidable'
p663
aa(lp664
S'daunting'
p665
aasg15
(dp666
(g663
g661
tp667
F0.0
s(g663
g665
tp668
F0.0
s(g665
g661
tp669
F0.0
s(g661
g665
tp670
F0.0
s(g665
g663
tp671
F0.0
s(g661
g663
tp672
F0.0
ssg3
F0.0
sg23
(lp673
(lp674
g661
ag663
ag665
aasg2
F0.0
ssI38
(dp675
g1
F0.0
sg7
(lp676
(lp677
S'capable'
p678
aa(lp679
S'skilled'
p680
aasg15
(dp681
(g678
g680
tp682
F0.0
s(g680
g678
tp683
F0.0
ssg3
F0.0
sg23
(lp684
(lp685
g678
ag680
aasg2
F0.0
ssI39
(dp686
g1
F0.0
sg7
(lp687
(lp688
S'qualified'
p689
aa(lp690
S'proficient'
p691
aasg15
(dp692
(g689
g691
tp693
F0.0
s(g691
g689
tp694
F0.0
ssg3
F0.0
sg23
(lp695
(lp696
g689
ag691
aasg2
F0.0
ssI40
(dp697
g1
F0.0
sg7
(lp698
(lp699
S'capable'
p700
aa(lp701
S'skilled'
p702
aasg15
(dp703
(g700
g702
tp704
F0.0
s(g702
g700
tp705
F0.0
ssg3
F0.0
sg23
(lp706
(lp707
g700
ag702
aasg2
F0.0
ssI41
(dp708
g1
F0.0
sg7
(lp709
(lp710
S'qualified'
p711
aa(lp712
S'proficient'
p713
aasg15
(dp714
(g711
g713
tp715
F0.0
s(g713
g711
tp716
F0.0
ssg3
F0.0
sg23
(lp717
(lp718
g711
ag713
aasg2
F0.0
ssI42
(dp719
g1
F0.0
sg7
(lp720
(lp721
S'okay'
p722
aa(lp723
S'incredible'
p724
aasg15
(dp725
(g724
g722
tp726
F0.0
s(g722
g724
tp727
F0.0
ssg3
F0.0
sg23
(lp728
(lp729
g722
ag724
aasg2
F0.0
ssI43
(dp730
g1
F0.0
sg7
(lp731
(lp732
S'okay'
p733
aa(lp734
S'awesome'
p735
aasg15
(dp736
(g733
g735
tp737
F0.0
s(g735
g733
tp738
F0.0
ssg3
F0.0
sg23
(lp739
(lp740
g733
ag735
aasg2
F0.0
ssI44
(dp741
g1
F0.0
sg7
(lp742
(lp743
S'okay'
p744
aa(lp745
S'terrific'
p746
aasg15
(dp747
(g746
g744
tp748
F0.0
s(g744
g746
tp749
F0.0
ssg3
F0.0
sg23
(lp750
(lp751
g744
ag746
aasg2
F0.0
ssI45
(dp752
g1
F0.0
sg7
(lp753
(lp754
S'okay'
p755
aa(lp756
S'marvelous'
p757
aasg15
(dp758
(g755
g757
tp759
F0.0
s(g757
g755
tp760
F0.0
ssg3
F0.0
sg23
(lp761
(lp762
g755
ag757
aasg2
F0.0
ssI46
(dp763
g1
F0.0
sg7
(lp764
(lp765
S'awful'
p766
aa(lp767
S'shitty'
p768
aasg15
(dp769
(g766
g768
tp770
F0.0
s(g768
g766
tp771
F0.0
ssg3
F0.0
sg23
(lp772
(lp773
g766
ag768
aasg2
F0.0
ssI47
(dp774
g1
F-1.0
sg7
(lp775
(lp776
S'content'
p777
aa(lp778
S'pleased'
p779
aasg15
(dp780
(g777
g779
tp781
F-1.0
s(g779
g777
tp782
F1.0
ssg3
F0.0
sg23
(lp783
(lp784
S'pleased'
p785
aa(lp786
S'content'
p787
aasg2
F1.0
ssI48
(dp788
g1
F-1.0
sg7
(lp789
(lp790
S'satisfied'
p791
aa(lp792
S'pleased'
p793
aasg15
(dp794
(g791
g793
tp795
F-1.0
s(g793
g791
tp796
F1.0
ssg3
F0.0
sg23
(lp797
(lp798
S'pleased'
p799
aa(lp800
S'satisfied'
p801
aasg2
F1.0
ssI49
(dp802
g1
F-1.0
sg7
(lp803
(lp804
S'adequate'
p805
aa(lp806
S'good'
p807
aasg15
(dp808
(g807
g805
tp809
F1.0
s(g805
g807
tp810
F-1.0
ssg3
F0.0
sg23
(lp811
(lp812
S'good'
p813
aa(lp814
S'adequate'
p815
aasg2
F1.0
ssI50
(dp816
g1
F-1.0
sg7
(lp817
(lp818
S'fine'
p819
aa(lp820
S'good'
p821
aasg15
(dp822
(g821
g819
tp823
F1.0
s(g819
g821
tp824
F-1.0
ssg3
F0.0
sg23
(lp825
(lp826
S'good'
p827
aa(lp828
S'fine'
p829
aasg2
F1.0
ssI51
(dp830
g1
F0.0
sg7
(lp831
(lp832
S'fitting'
p833
aa(lp834
S'good'
p835
aasg15
(dp836
(g835
g833
tp837
F0.0
s(g833
g835
tp838
F0.0
ssg3
F0.0
sg23
(lp839
(lp840
g833
ag835
aasg2
F0.0
ssI52
(dp841
g1
F0.0
sg7
(lp842
(lp843
S'poor'
p844
aa(lp845
S'indigent'
p846
aa(lp847
S'bankrupt'
p848
aasg15
(dp849
(g848
g846
tp850
F0.0
s(g846
g844
tp851
F0.0
s(g846
g848
tp852
F0.0
s(g844
g848
tp853
F0.0
s(g848
g844
tp854
F0.0
s(g844
g846
tp855
F0.0
ssg3
F0.0
sg23
(lp856
(lp857
g844
ag846
ag848
aasg2
F0.0
ssI53
(dp858
g1
F0.0
sg7
(lp859
(lp860
S'pretty'
p861
aa(lp862
S'marvellous'
p863
aasg15
(dp864
(g863
g861
tp865
F0.0
s(g861
g863
tp866
F0.0
ssg3
F0.0
sg23
(lp867
(lp868
g861
ag863
aasg2
F0.0
ssI54
(dp869
g1
F0.0
sg7
(lp870
(lp871
S'pretty'
p872
aa(lp873
S'breathtaking'
p874
aasg15
(dp875
(g872
g874
tp876
F0.0
s(g874
g872
tp877
F0.0
ssg3
F0.0
sg23
(lp878
(lp879
g872
ag874
aasg2
F0.0
ssI55
(dp880
g1
F1.0
sg7
(lp881
(lp882
S'pretty'
p883
aa(lp884
S'spectacular'
p885
aasg15
(dp886
(g885
g883
tp887
F-1.0
s(g883
g885
tp888
F1.0
ssg3
F1.0
sg23
(lp889
(lp890
S'pretty'
p891
aa(lp892
S'spectacular'
p893
aasg2
F1.0
ssI56
(dp894
g1
F0.0
sg7
(lp895
(lp896
S'considerable'
p897
aa(lp898
S'abundant'
p899
aasg15
(dp900
(g899
g897
tp901
F0.0
s(g897
g899
tp902
F0.0
ssg3
F0.0
sg23
(lp903
(lp904
g897
ag899
aasg2
F0.0
ssI57
(dp905
g1
F0.0
sg7
(lp906
(lp907
S'fine'
p908
aa(lp909
S'remarkable'
p910
aa(lp911
S'impressive'
p912
aasg15
(dp913
(g908
g912
tp914
F0.0
s(g912
g910
tp915
F0.0
s(g910
g908
tp916
F0.0
s(g912
g908
tp917
F0.0
s(g908
g910
tp918
F0.0
s(g910
g912
tp919
F0.0
ssg3
F0.0
sg23
(lp920
(lp921
g908
ag910
ag912
aasg2
F0.0
ssI58
(dp922
g1
F0.0
sg7
(lp923
(lp924
S'fine'
p925
aa(lp926
S'admirable'
p927
aasg15
(dp928
(g925
g927
tp929
F0.0
s(g927
g925
tp930
F0.0
ssg3
F0.0
sg23
(lp931
(lp932
g925
ag927
aasg2
F0.0
ssI59
(dp933
g1
F0.0
sg7
(lp934
(lp935
S'fine'
p936
aa(lp937
S'upstanding'
p938
aasg15
(dp939
(g936
g938
tp940
F0.0
s(g938
g936
tp941
F0.0
ssg3
F0.0
sg23
(lp942
(lp943
g936
ag938
aasg2
F0.0
ssI60
(dp944
g1
F0.0
sg7
(lp945
(lp946
S'bad'
p947
aa(lp948
S'distressing'
p949
aasg15
(dp950
(g947
g949
tp951
F0.0
s(g949
g947
tp952
F0.0
ssg3
F0.0
sg23
(lp953
(lp954
g947
ag949
aasg2
F0.0
ssI61
(dp955
g1
F0.0
sg7
(lp956
(lp957
S'much'
p958
aa(lp959
S'excessive'
p960
aasg15
(dp961
(g958
g960
tp962
F0.0
s(g960
g958
tp963
F0.0
ssg3
F0.0
sg23
(lp964
(lp965
g958
ag960
aasg2
F0.0
ssI62
(dp966
g1
F0.0
sg7
(lp967
(lp968
S'much'
p969
aa(lp970
S'huge'
p971
aasg15
(dp972
(g971
g969
tp973
F0.0
s(g969
g971
tp974
F0.0
ssg3
F0.0
sg23
(lp975
(lp976
g969
ag971
aasg2
F0.0
ssI63
(dp977
g1
F0.0
sg7
(lp978
(lp979
S'scary'
p980
aa(lp981
S'terrifying'
p982
aasg15
(dp983
(g980
g982
tp984
F0.0
s(g982
g980
tp985
F0.0
ssg3
F0.0
sg23
(lp986
(lp987
g980
ag982
aasg2
F0.0
ssI64
(dp988
g1
F1.0
sg7
(lp989
(lp990
S'frightening'
p991
aa(lp992
S'terrifying'
p993
aasg15
(dp994
(g991
g993
tp995
F1.0
s(g993
g991
tp996
F-1.0
ssg3
F1.0
sg23
(lp997
(lp998
S'frightening'
p999
aa(lp1000
S'terrifying'
p1001
aasg2
F1.0
ssI65
(dp1002
g1
F0.6
sg7
(lp1003
(lp1004
S'tough'
p1005
aa(lp1006
S'tougher'
p1007
aa(lp1008
S'rigorous'
p1009
aa(lp1010
S'stringent'
p1011
aa(lp1012
S'severe'
p1013
aasg15
(dp1014
(g1011
g1009
tp1015
F0.0
s(g1007
g1011
tp1016
F0.0
s(g1005
g1007
tp1017
F1.0
s(g1013
g1007
tp1018
F0.0
s(g1009
g1013
tp1019
F0.0
s(g1009
g1007
tp1020
F0.0
s(g1005
g1013
tp1021
F0.0
s(g1007
g1009
tp1022
F0.0
s(g1011
g1013
tp1023
F0.0
s(g1007
g1013
tp1024
F0.0
s(g1009
g1005
tp1025
F0.0
s(g1007
g1005
tp1026
F-1.0
s(g1009
g1011
tp1027
F0.0
s(g1013
g1005
tp1028
F0.0
s(g1013
g1009
tp1029
F0.0
s(g1005
g1011
tp1030
F0.0
s(g1005
g1009
tp1031
F0.0
s(g1011
g1007
tp1032
F0.0
s(g1013
g1011
tp1033
F0.0
s(g1011
g1005
tp1034
F0.0
ssg3
F0.8
sg23
(lp1035
(lp1036
S'tough'
p1037
aa(lp1038
S'tougher'
p1039
aa(lp1040
g1011
aa(lp1041
g1013
aa(lp1042
g1009
aasg2
F0.6
ssI66
(dp1043
g1
F0.0
sg7
(lp1044
(lp1045
S'low'
p1046
aa(lp1047
S'limited'
p1048
aa(lp1049
S'scarce'
p1050
aasg15
(dp1051
(g1048
g1046
tp1052
F0.0
s(g1048
g1050
tp1053
F0.0
s(g1046
g1050
tp1054
F0.0
s(g1046
g1048
tp1055
F0.0
s(g1050
g1048
tp1056
F0.0
s(g1050
g1046
tp1057
F0.0
ssg3
F0.0
sg23
(lp1058
(lp1059
g1046
ag1048
ag1050
aasg2
F0.0
ssI67
(dp1060
g1
F0.8
sg7
(lp1061
(lp1062
S'good'
p1063
aa(lp1064
S'better'
p1065
aa(lp1066
S'remarkable'
p1067
aa(lp1068
S'exceptional'
p1069
aa(lp1070
S'perfect'
p1071
aasg15
(dp1072
(g1065
g1067
tp1073
F0.0
s(g1071
g1065
tp1074
F-4.7047037540094525
s(g1069
g1071
tp1075
F0.0
s(g1067
g1069
tp1076
F0.0
s(g1069
g1063
tp1077
F-16.094478800641774
s(g1063
g1071
tp1078
F7.014303231691684
s(g1065
g1063
tp1079
F-2.233888123645968
s(g1067
g1071
tp1080
F0.0
s(g1071
g1069
tp1081
F0.0
s(g1067
g1063
tp1082
F-1.0
s(g1071
g1067
tp1083
F0.0
s(g1065
g1071
tp1084
F4.7047037540094525
s(g1069
g1065
tp1085
F0.0
s(g1069
g1067
tp1086
F0.0
s(g1063
g1067
tp1087
F1.0
s(g1063
g1065
tp1088
F2.233888123645968
s(g1063
g1069
tp1089
F16.094478800641774
s(g1071
g1063
tp1090
F-7.014303231691684
s(g1067
g1065
tp1091
F0.0
s(g1065
g1069
tp1092
F0.0
ssg3
F0.9
sg23
(lp1093
(lp1094
S'good'
p1095
aa(lp1096
S'better'
p1097
aa(lp1098
S'exceptional'
p1099
aa(lp1100
S'remarkable'
p1101
aa(lp1102
S'perfect'
p1103
aasg2
F0.8
ssI68
(dp1104
g1
F0.0
sg7
(lp1105
(lp1106
S'few'
p1107
aa(lp1108
S'least'
p1109
aasg15
(dp1110
(g1109
g1107
tp1111
F0.0
s(g1107
g1109
tp1112
F0.0
ssg3
F0.0
sg23
(lp1113
(lp1114
g1107
ag1109
aasg2
F0.0
ssI69
(dp1115
g1
F0.0
sg7
(lp1116
(lp1117
S'little'
p1118
aa(lp1119
S'least'
p1120
aasg15
(dp1121
(g1120
g1118
tp1122
F0.0
s(g1118
g1120
tp1123
F0.0
ssg3
F0.0
sg23
(lp1124
(lp1125
g1118
ag1120
aasg2
F0.0
ssI70
(dp1126
g1
F0.0
sg7
(lp1127
(lp1128
S'unhappy'
p1129
aa(lp1130
S'miserable'
p1131
aasg15
(dp1132
(g1129
g1131
tp1133
F0.0
s(g1131
g1129
tp1134
F0.0
ssg3
F0.0
sg23
(lp1135
(lp1136
g1129
ag1131
aasg2
F0.0
ssI71
(dp1137
g1
F0.0
sg7
(lp1138
(lp1139
S'sad'
p1140
aa(lp1141
S'miserable'
p1142
aasg15
(dp1143
(g1142
g1140
tp1144
F0.0
s(g1140
g1142
tp1145
F0.0
ssg3
F0.0
sg23
(lp1146
(lp1147
g1140
ag1142
aasg2
F0.0
ssI72
(dp1148
g1
F0.0
sg7
(lp1149
(lp1150
S'competent'
p1151
aa(lp1152
S'impressive'
p1153
aasg15
(dp1154
(g1151
g1153
tp1155
F0.0
s(g1153
g1151
tp1156
F0.0
ssg3
F0.0
sg23
(lp1157
(lp1158
g1151
ag1153
aasg2
F0.0
ssI73
(dp1159
g1
F0.0
sg7
(lp1160
(lp1161
S'relevant'
p1162
aa(lp1163
S'crucial'
p1164
aasg15
(dp1165
(g1162
g1164
tp1166
F0.0
s(g1164
g1162
tp1167
F0.0
ssg3
F0.0
sg23
(lp1168
(lp1169
g1162
ag1164
aasg2
F0.0
ssI74
(dp1170
g1
F0.0
sg7
(lp1171
(lp1172
S'effective'
p1173
aa(lp1174
S'potent'
p1175
aasg15
(dp1176
(g1175
g1173
tp1177
F0.0
s(g1173
g1175
tp1178
F0.0
ssg3
F0.0
sg23
(lp1179
(lp1180
g1173
ag1175
aasg2
F0.0
ssI75
(dp1181
g1
F0.0
sg7
(lp1182
(lp1183
S'general'
p1184
aa(lp1185
S'broad'
p1186
aa(lp1187
S'broader'
p1188
aa(lp1189
S'wide-ranging'
p1190
aa(lp1191
S'diverse'
p1192
aasg15
(dp1193
(g1184
g1188
tp1194
F0.0
s(g1192
g1186
tp1195
F0.0
s(g1192
g1188
tp1196
F0.0
s(g1186
g1184
tp1197
F0.0
s(g1190
g1186
tp1198
F0.0
s(g1188
g1184
tp1199
F0.0
s(g1186
g1188
tp1200
F0.0
s(g1188
g1186
tp1201
F0.0
s(g1188
g1190
tp1202
F0.0
s(g1188
g1192
tp1203
F0.0
s(g1190
g1188
tp1204
F0.0
s(g1186
g1190
tp1205
F0.0
s(g1190
g1184
tp1206
F0.0
s(g1184
g1186
tp1207
F0.0
s(g1192
g1184
tp1208
F0.0
s(g1184
g1192
tp1209
F0.0
s(g1190
g1192
tp1210
F0.0
s(g1186
g1192
tp1211
F0.0
s(g1184
g1190
tp1212
F0.0
s(g1192
g1190
tp1213
F0.0
ssg3
F0.0
sg23
(lp1214
(lp1215
g1184
ag1186
ag1188
ag1190
ag1192
aasg2
F0.0
ssI76
(dp1216
g1
F0.0
sg7
(lp1217
(lp1218
S'costly'
p1219
aa(lp1220
S'expensive'
p1221
aa(lp1222
S'excessive'
p1223
aasg15
(dp1224
(g1223
g1219
tp1225
F0.0
s(g1219
g1223
tp1226
F0.0
s(g1219
g1221
tp1227
F0.0
s(g1221
g1223
tp1228
F0.0
s(g1221
g1219
tp1229
F0.0
s(g1223
g1221
tp1230
F0.0
ssg3
F0.0
sg23
(lp1231
(lp1232
g1219
ag1221
ag1223
aasg2
F0.0
ssI77
(dp1233
g1
F0.0
sg7
(lp1234
(lp1235
S'costly'
p1236
aa(lp1237
S'expensive'
p1238
aa(lp1239
S'exorbitant'
p1240
aasg15
(dp1241
(g1238
g1240
tp1242
F0.0
s(g1236
g1240
tp1243
F0.0
s(g1240
g1236
tp1244
F0.0
s(g1238
g1236
tp1245
F0.0
s(g1240
g1238
tp1246
F0.0
s(g1236
g1238
tp1247
F0.0
ssg3
F0.0
sg23
(lp1248
(lp1249
g1236
ag1238
ag1240
aasg2
F0.0
ssI78
(dp1250
g1
F0.0
sg7
(lp1251
(lp1252
S'big'
p1253
aa(lp1254
S'substantial'
p1255
aa(lp1256
S'tremendous'
p1257
aasg15
(dp1258
(g1255
g1257
tp1259
F0.0
s(g1255
g1253
tp1260
F0.0
s(g1253
g1257
tp1261
F0.0
s(g1257
g1253
tp1262
F0.0
s(g1257
g1255
tp1263
F0.0
s(g1253
g1255
tp1264
F0.0
ssg3
F0.0
sg23
(lp1265
(lp1266
g1253
ag1255
ag1257
aasg2
F0.0
ssI79
(dp1267
g1
F0.0
sg7
(lp1268
(lp1269
S'big'
p1270
aa(lp1271
S'major'
p1272
aa(lp1273
S'staggering'
p1274
aasg15
(dp1275
(g1272
g1270
tp1276
F0.0
s(g1272
g1274
tp1277
F0.0
s(g1270
g1272
tp1278
F0.0
s(g1270
g1274
tp1279
F0.0
s(g1274
g1270
tp1280
F0.0
s(g1274
g1272
tp1281
F0.0
ssg3
F0.0
sg23
(lp1282
(lp1283
g1270
ag1272
ag1274
aasg2
F0.0
ssI80
(dp1284
g1
F0.0
sg7
(lp1285
(lp1286
S'big'
p1287
aa(lp1288
S'substantial'
p1289
aa(lp1290
S'tremendous'
p1291
aasg15
(dp1292
(g1289
g1291
tp1293
F0.0
s(g1289
g1287
tp1294
F0.0
s(g1287
g1291
tp1295
F0.0
s(g1291
g1287
tp1296
F0.0
s(g1291
g1289
tp1297
F0.0
s(g1287
g1289
tp1298
F0.0
ssg3
F0.0
sg23
(lp1299
(lp1300
g1287
ag1289
ag1291
aasg2
F0.0
ssI81
(dp1301
g1
F0.0
sg7
(lp1302
(lp1303
S'big'
p1304
aa(lp1305
S'major'
p1306
aa(lp1307
S'staggering'
p1308
aasg15
(dp1309
(g1306
g1304
tp1310
F0.0
s(g1306
g1308
tp1311
F0.0
s(g1304
g1306
tp1312
F0.0
s(g1304
g1308
tp1313
F0.0
s(g1308
g1304
tp1314
F0.0
s(g1308
g1306
tp1315
F0.0
ssg3
F0.0
sg23
(lp1316
(lp1317
g1304
ag1306
ag1308
aasg2
F0.0
ssI82
(dp1318
g1
F0.8
sg7
(lp1319
(lp1320
S'sizeable'
p1321
aa(lp1322
S'huge'
p1323
aa(lp1324
S'major'
p1325
aa(lp1326
S'immense'
p1327
aa(lp1328
S'colossal'
p1329
aasg15
(dp1330
(g1323
g1325
tp1331
F0.0
s(g1327
g1325
tp1332
F0.0
s(g1321
g1325
tp1333
F0.0
s(g1323
g1321
tp1334
F-1.0049601751294852
s(g1329
g1321
tp1335
F0.0
s(g1329
g1323
tp1336
F-1.0
s(g1325
g1329
tp1337
F0.0
s(g1321
g1323
tp1338
F1.0049601751294852
s(g1323
g1327
tp1339
F0.0
s(g1325
g1323
tp1340
F0.0
s(g1327
g1323
tp1341
F0.0
s(g1321
g1329
tp1342
F0.0
s(g1323
g1329
tp1343
F1.0
s(g1327
g1321
tp1344
F0.0
s(g1325
g1321
tp1345
F0.0
s(g1329
g1327
tp1346
F0.0
s(g1327
g1329
tp1347
F0.0
s(g1321
g1327
tp1348
F0.0
s(g1325
g1327
tp1349
F0.0
s(g1329
g1325
tp1350
F0.0
ssg3
F0.9
sg23
(lp1351
(lp1352
S'sizeable'
p1353
aa(lp1354
S'huge'
p1355
aa(lp1356
g1327
aa(lp1357
g1325
aa(lp1358
S'colossal'
p1359
aasg2
F0.8
ssI83
(dp1360
g1
F0.6
sg7
(lp1361
(lp1362
S'sizeable'
p1363
aa(lp1364
S'huge'
p1365
aa(lp1366
S'major'
p1367
aa(lp1368
S'formidable'
p1369
aa(lp1370
S'overwhelming'
p1371
aasg15
(dp1372
(g1365
g1367
tp1373
F0.0
s(g1371
g1369
tp1374
F0.0
s(g1363
g1367
tp1375
F0.0
s(g1365
g1363
tp1376
F-1.3960164066867384
s(g1365
g1369
tp1377
F0.0
s(g1363
g1369
tp1378
F0.0
s(g1363
g1365
tp1379
F1.3960164066867384
s(g1371
g1367
tp1380
F0.0
s(g1367
g1365
tp1381
F0.0
s(g1371
g1363
tp1382
F0.0
s(g1367
g1369
tp1383
F0.0
s(g1369
g1363
tp1384
F0.0
s(g1371
g1365
tp1385
F-1.0
s(g1367
g1363
tp1386
F0.0
s(g1369
g1367
tp1387
F0.0
s(g1369
g1365
tp1388
F0.0
s(g1369
g1371
tp1389
F0.0
s(g1365
g1371
tp1390
F1.0
s(g1367
g1371
tp1391
F0.0
s(g1363
g1371
tp1392
F0.0
ssg3
F0.8
sg23
(lp1393
(lp1394
S'sizeable'
p1395
aa(lp1396
S'huge'
p1397
aa(lp1398
g1369
aa(lp1399
S'overwhelming'
p1400
aa(lp1401
g1367
aasg2
F0.6
ssI84
(dp1402
g1
F0.4
sg7
(lp1403
(lp1404
S'sizeable'
p1405
aa(lp1406
S'huge'
p1407
aa(lp1408
S'major'
p1409
aa(lp1410
S'immense'
p1411
aa(lp1412
S'tremendous'
p1413
aasg15
(dp1414
(g1407
g1409
tp1415
F0.0
s(g1411
g1409
tp1416
F0.0
s(g1405
g1409
tp1417
F0.0
s(g1407
g1405
tp1418
F-1.0
s(g1413
g1409
tp1419
F0.0
s(g1413
g1407
tp1420
F0.0
s(g1409
g1413
tp1421
F0.0
s(g1405
g1407
tp1422
F1.0
s(g1407
g1411
tp1423
F0.0
s(g1409
g1407
tp1424
F0.0
s(g1411
g1407
tp1425
F0.0
s(g1405
g1413
tp1426
F0.0
s(g1407
g1413
tp1427
F0.0
s(g1411
g1405
tp1428
F0.0
s(g1409
g1405
tp1429
F0.0
s(g1413
g1411
tp1430
F0.0
s(g1413
g1405
tp1431
F0.0
s(g1405
g1411
tp1432
F0.0
s(g1411
g1413
tp1433
F0.0
s(g1409
g1411
tp1434
F0.0
ssg3
F0.7
sg23
(lp1435
(lp1436
S'sizeable'
p1437
aa(lp1438
g1411
aa(lp1439
g1409
aa(lp1440
S'huge'
p1441
aa(lp1442
g1413
aasg2
F0.4
ssI85
(dp1443
g1
F0.8
sg7
(lp1444
(lp1445
S'sizeable'
p1446
aa(lp1447
S'huge'
p1448
aa(lp1449
S'major'
p1450
aa(lp1451
S'formidable'
p1452
aa(lp1453
S'colossal'
p1454
aasg15
(dp1455
(g1448
g1450
tp1456
F0.0
s(g1450
g1452
tp1457
F0.0
s(g1446
g1450
tp1458
F0.0
s(g1448
g1446
tp1459
F-1.0049601751294852
s(g1454
g1450
tp1460
F0.0
s(g1452
g1448
tp1461
F0.0
s(g1448
g1452
tp1462
F0.0
s(g1454
g1448
tp1463
F-1.0
s(g1446
g1452
tp1464
F0.0
s(g1454
g1452
tp1465
F0.0
s(g1446
g1448
tp1466
F1.0049601751294852
s(g1452
g1454
tp1467
F0.0
s(g1454
g1446
tp1468
F0.0
s(g1450
g1448
tp1469
F0.0
s(g1446
g1454
tp1470
F0.0
s(g1452
g1446
tp1471
F0.0
s(g1448
g1454
tp1472
F1.0
s(g1450
g1446
tp1473
F0.0
s(g1452
g1450
tp1474
F0.0
s(g1450
g1454
tp1475
F0.0
ssg3
F0.9
sg23
(lp1476
(lp1477
S'sizeable'
p1478
aa(lp1479
S'huge'
p1480
aa(lp1481
g1452
aa(lp1482
g1450
aa(lp1483
S'colossal'
p1484
aasg2
F0.8
ssI86
(dp1485
g1
F0.6
sg7
(lp1486
(lp1487
S'sizeable'
p1488
aa(lp1489
S'huge'
p1490
aa(lp1491
S'major'
p1492
aa(lp1493
S'immense'
p1494
aa(lp1495
S'overwhelming'
p1496
aasg15
(dp1497
(g1490
g1492
tp1498
F0.0
s(g1488
g1492
tp1499
F0.0
s(g1490
g1488
tp1500
F-1.3960164066867384
s(g1496
g1494
tp1501
F0.0
s(g1488
g1490
tp1502
F1.3960164066867384
s(g1496
g1492
tp1503
F0.0
s(g1490
g1494
tp1504
F0.0
s(g1492
g1490
tp1505
F0.0
s(g1494
g1490
tp1506
F0.0
s(g1494
g1492
tp1507
F0.0
s(g1494
g1488
tp1508
F0.0
s(g1492
g1488
tp1509
F0.0
s(g1496
g1488
tp1510
F0.0
s(g1496
g1490
tp1511
F-1.0
s(g1494
g1496
tp1512
F0.0
s(g1490
g1496
tp1513
F1.0
s(g1488
g1494
tp1514
F0.0
s(g1492
g1496
tp1515
F0.0
s(g1488
g1496
tp1516
F0.0
s(g1492
g1494
tp1517
F0.0
ssg3
F0.8
sg23
(lp1518
(lp1519
S'sizeable'
p1520
aa(lp1521
S'huge'
p1522
aa(lp1523
g1494
aa(lp1524
S'overwhelming'
p1525
aa(lp1526
g1492
aasg2
F0.6
ssI87
(dp1527
g1
F0.4
sg7
(lp1528
(lp1529
S'sizeable'
p1530
aa(lp1531
S'huge'
p1532
aa(lp1533
S'major'
p1534
aa(lp1535
S'formidable'
p1536
aa(lp1537
S'tremendous'
p1538
aasg15
(dp1539
(g1532
g1534
tp1540
F0.0
s(g1534
g1536
tp1541
F0.0
s(g1530
g1534
tp1542
F0.0
s(g1532
g1530
tp1543
F-1.0
s(g1538
g1534
tp1544
F0.0
s(g1536
g1532
tp1545
F0.0
s(g1532
g1536
tp1546
F0.0
s(g1538
g1532
tp1547
F0.0
s(g1530
g1536
tp1548
F0.0
s(g1530
g1532
tp1549
F1.0
s(g1536
g1538
tp1550
F0.0
s(g1538
g1530
tp1551
F0.0
s(g1534
g1532
tp1552
F0.0
s(g1530
g1538
tp1553
F0.0
s(g1536
g1530
tp1554
F0.0
s(g1532
g1538
tp1555
F0.0
s(g1534
g1530
tp1556
F0.0
s(g1536
g1534
tp1557
F0.0
s(g1534
g1538
tp1558
F0.0
s(g1538
g1536
tp1559
F0.0
ssg3
F0.7
sg23
(lp1560
(lp1561
S'sizeable'
p1562
aa(lp1563
g1536
aa(lp1564
g1534
aa(lp1565
S'huge'
p1566
aa(lp1567
g1538
aasg2
F0.4
ssI88
(dp1568
g1
F0.0
sg7
(lp1569
(lp1570
S'fine'
p1571
aa(lp1572
S'terrific'
p1573
aa(lp1574
S'perfect'
p1575
aasg15
(dp1576
(g1571
g1573
tp1577
F0.0
s(g1575
g1573
tp1578
F0.0
s(g1573
g1571
tp1579
F0.0
s(g1573
g1575
tp1580
F0.0
s(g1571
g1575
tp1581
F0.0
s(g1575
g1571
tp1582
F0.0
ssg3
F0.0
sg23
(lp1583
(lp1584
g1571
ag1573
ag1575
aasg2
F0.0
ssI89
(dp1585
g1
F1.0
sg7
(lp1586
(lp1587
S'well'
p1588
aa(lp1589
S'awesome'
p1590
aa(lp1591
S'perfect'
p1592
aasg15
(dp1593
(g1588
g1592
tp1594
F1.0
s(g1590
g1588
tp1595
F0.0
s(g1592
g1588
tp1596
F-1.0
s(g1592
g1590
tp1597
F-10.434287724189229
s(g1590
g1592
tp1598
F10.434287724189229
s(g1588
g1590
tp1599
F0.0
ssg3
F1.0
sg23
(lp1600
(lp1601
S'well'
p1602
aa(lp1603
S'awesome'
p1604
aa(lp1605
S'perfect'
p1606
aasg2
F1.0
ssI90
(dp1607
g1
F0.0
sg7
(lp1608
(lp1609
S'fine'
p1610
aa(lp1611
S'terrific'
p1612
aa(lp1613
S'perfect'
p1614
aasg15
(dp1615
(g1610
g1612
tp1616
F0.0
s(g1614
g1612
tp1617
F0.0
s(g1612
g1610
tp1618
F0.0
s(g1612
g1614
tp1619
F0.0
s(g1610
g1614
tp1620
F0.0
s(g1614
g1610
tp1621
F0.0
ssg3
F0.0
sg23
(lp1622
(lp1623
g1610
ag1612
ag1614
aasg2
F0.0
ssI91
(dp1624
g1
F1.0
sg7
(lp1625
(lp1626
S'well'
p1627
aa(lp1628
S'awesome'
p1629
aa(lp1630
S'perfect'
p1631
aasg15
(dp1632
(g1627
g1631
tp1633
F1.0
s(g1629
g1627
tp1634
F0.0
s(g1631
g1627
tp1635
F-1.0
s(g1631
g1629
tp1636
F-10.434287724189229
s(g1629
g1631
tp1637
F10.434287724189229
s(g1627
g1629
tp1638
F0.0
ssg3
F1.0
sg23
(lp1639
(lp1640
S'well'
p1641
aa(lp1642
S'awesome'
p1643
aa(lp1644
S'perfect'
p1645
aasg2
F1.0
ssI92
(dp1646
g1
F0.0
sg7
(lp1647
(lp1648
S'little'
p1649
aa(lp1650
S'feeble'
p1651
aasg15
(dp1652
(g1649
g1651
tp1653
F0.0
s(g1651
g1649
tp1654
F0.0
ssg3
F0.0
sg23
(lp1655
(lp1656
g1649
ag1651
aasg2
F0.0
ssI93
(dp1657
g1
F0.0
sg7
(lp1658
(lp1659
S'improper'
p1660
aa(lp1661
S'incorrect'
p1662
aasg15
(dp1663
(g1662
g1660
tp1664
F0.0
s(g1660
g1662
tp1665
F0.0
ssg3
F0.0
sg23
(lp1666
(lp1667
g1660
ag1662
aasg2
F0.0
ssI94
(dp1668
g1
F0.0
sg7
(lp1669
(lp1670
S'poor'
p1671
aa(lp1672
S'unsatisfactory'
p1673
aasg15
(dp1674
(g1671
g1673
tp1675
F0.0
s(g1673
g1671
tp1676
F0.0
ssg3
F0.0
sg23
(lp1677
(lp1678
g1671
ag1673
aasg2
F0.0
ssI95
(dp1679
g1
F0.0
sg7
(lp1680
(lp1681
S'improper'
p1682
aa(lp1683
S'incorrect'
p1684
aasg15
(dp1685
(g1684
g1682
tp1686
F0.0
s(g1682
g1684
tp1687
F0.0
ssg3
F0.0
sg23
(lp1688
(lp1689
g1682
ag1684
aasg2
F0.0
ssI96
(dp1690
g1
F0.0
sg7
(lp1691
(lp1692
S'poor'
p1693
aa(lp1694
S'unsatisfactory'
p1695
aasg15
(dp1696
(g1693
g1695
tp1697
F0.0
s(g1695
g1693
tp1698
F0.0
ssg3
F0.0
sg23
(lp1699
(lp1700
g1693
ag1695
aasg2
F0.0
ssI97
(dp1701
g1
F1.0
sg7
(lp1702
(lp1703
S'unusual'
p1704
aa(lp1705
S'rare'
p1706
aasg15
(dp1707
(g1706
g1704
tp1708
F-1.0
s(g1704
g1706
tp1709
F1.0
ssg3
F1.0
sg23
(lp1710
(lp1711
S'unusual'
p1712
aa(lp1713
S'rare'
p1714
aasg2
F1.0
ssI98
(dp1715
g1
F0.6666666666666666
sg7
(lp1716
(lp1717
S'sizeable'
p1718
aa(lp1719
S'big'
p1720
aa(lp1721
S'huge'
p1722
aa(lp1723
S'immense'
p1724
aasg15
(dp1725
(g1718
g1722
tp1726
F10.294259795468358
s(g1720
g1722
tp1727
F1.0
s(g1724
g1718
tp1728
F0.0
s(g1720
g1718
tp1729
F0.0
s(g1722
g1724
tp1730
F0.0
s(g1724
g1722
tp1731
F0.0
s(g1718
g1720
tp1732
F0.0
s(g1720
g1724
tp1733
F0.0
s(g1724
g1720
tp1734
F0.0
s(g1722
g1718
tp1735
F-10.294259795468358
s(g1718
g1724
tp1736
F0.0
s(g1722
g1720
tp1737
F-1.0
ssg3
F0.8333333333333334
sg23
(lp1738
(lp1739
S'sizeable'
p1740
aa(lp1741
S'big'
p1742
aa(lp1743
g1724
aa(lp1744
S'huge'
p1745
aasg2
F0.6666666666666666
ssI99
(dp1746
g1
F0.6666666666666666
sg7
(lp1747
(lp1748
S'sizeable'
p1749
aa(lp1750
S'big'
p1751
aa(lp1752
S'huge'
p1753
aa(lp1754
S'enormous'
p1755
aasg15
(dp1756
(g1753
g1755
tp1757
F0.0
s(g1749
g1755
tp1758
F0.0
s(g1749
g1753
tp1759
F10.294259795468358
s(g1751
g1753
tp1760
F1.0
s(g1755
g1751
tp1761
F0.0
s(g1751
g1755
tp1762
F0.0
s(g1751
g1749
tp1763
F0.0
s(g1755
g1753
tp1764
F0.0
s(g1749
g1751
tp1765
F0.0
s(g1755
g1749
tp1766
F0.0
s(g1753
g1751
tp1767
F-1.0
s(g1753
g1749
tp1768
F-10.294259795468358
ssg3
F0.8333333333333334
sg23
(lp1769
(lp1770
S'sizeable'
p1771
aa(lp1772
S'big'
p1773
aa(lp1774
g1755
aa(lp1775
S'huge'
p1776
aasg2
F0.6666666666666666
ssI100
(dp1777
g1
F1.0
sg7
(lp1778
(lp1779
S'sizeable'
p1780
aa(lp1781
S'big'
p1782
aa(lp1783
S'huge'
p1784
aa(lp1785
S'tremendous'
p1786
aasg15
(dp1787
(g1786
g1782
tp1788
F0.0
s(g1786
g1780
tp1789
F0.0
s(g1780
g1784
tp1790
F10.294259795468358
s(g1782
g1784
tp1791
F1.0
s(g1786
g1784
tp1792
F0.0
s(g1782
g1786
tp1793
F0.0
s(g1782
g1780
tp1794
F0.0
s(g1780
g1786
tp1795
F0.0
s(g1784
g1786
tp1796
F0.0
s(g1780
g1782
tp1797
F0.0
s(g1784
g1782
tp1798
F-1.0
s(g1784
g1780
tp1799
F-10.294259795468358
ssg3
F1.0
sg23
(lp1800
(lp1801
S'sizeable'
p1802
aa(lp1803
S'big'
p1804
aa(lp1805
S'huge'
p1806
aa(lp1807
g1786
aasg2
F1.0
ssI101
(dp1808
g1
F0.0
sg7
(lp1809
(lp1810
S'weak'
p1811
aa(lp1812
S'shaky'
p1813
aa(lp1814
S'vulnerable'
p1815
aasg15
(dp1816
(g1815
g1811
tp1817
F0.0
s(g1813
g1815
tp1818
F0.0
s(g1815
g1813
tp1819
F0.0
s(g1811
g1815
tp1820
F0.0
s(g1811
g1813
tp1821
F0.0
s(g1813
g1811
tp1822
F0.0
ssg3
F0.0
sg23
(lp1823
(lp1824
g1811
ag1813
ag1815
aasg2
F0.0
ssI102
(dp1825
g1
F0.0
sg7
(lp1826
(lp1827
S'few'
p1828
aa(lp1829
S'limited'
p1830
aa(lp1831
S'scant'
p1832
aasg15
(dp1833
(g1830
g1832
tp1834
F0.0
s(g1832
g1828
tp1835
F0.0
s(g1828
g1830
tp1836
F0.0
s(g1830
g1828
tp1837
F0.0
s(g1828
g1832
tp1838
F0.0
s(g1832
g1830
tp1839
F0.0
ssg3
F0.0
sg23
(lp1840
(lp1841
g1828
ag1830
ag1832
aasg2
F0.0
ssI103
(dp1842
g1
F0.0
sg7
(lp1843
(lp1844
S'few'
p1845
aa(lp1846
S'limited'
p1847
aa(lp1848
S'meagre'
p1849
aasg15
(dp1850
(g1845
g1847
tp1851
F0.0
s(g1845
g1849
tp1852
F0.0
s(g1847
g1845
tp1853
F0.0
s(g1847
g1849
tp1854
F0.0
s(g1849
g1847
tp1855
F0.0
s(g1849
g1845
tp1856
F0.0
ssg3
F0.0
sg23
(lp1857
(lp1858
g1845
ag1847
ag1849
aasg2
F0.0
ssI104
(dp1859
g1
F1.0
sg7
(lp1860
(lp1861
S'small'
p1862
aa(lp1863
S'minute'
p1864
aa(lp1865
S'miniscule'
p1866
aasg15
(dp1867
(g1862
g1864
tp1868
F1.0
s(g1866
g1864
tp1869
F0.0
s(g1864
g1862
tp1870
F-1.0
s(g1866
g1862
tp1871
F0.0
s(g1864
g1866
tp1872
F0.0
s(g1862
g1866
tp1873
F0.0
ssg3
F1.0
sg23
(lp1874
(lp1875
S'small'
p1876
aa(lp1877
S'minute'
p1878
aa(lp1879
g1866
aasg2
F1.0
ssI105
(dp1880
g1
F0.0
sg7
(lp1881
(lp1882
S'general'
p1883
aa(lp1884
S'comprehensive'
p1885
aasg15
(dp1886
(g1885
g1883
tp1887
F0.0
s(g1883
g1885
tp1888
F0.0
ssg3
F0.0
sg23
(lp1889
(lp1890
g1883
ag1885
aasg2
F0.0
ssI106
(dp1891
g1
F0.0
sg7
(lp1892
(lp1893
S'commonplace'
p1894
aa(lp1895
S'universal'
p1896
aasg15
(dp1897
(g1894
g1896
tp1898
F0.0
s(g1896
g1894
tp1899
F0.0
ssg3
F0.0
sg23
(lp1900
(lp1901
g1894
ag1896
aasg2
F0.0
ssI107
(dp1902
g1
F0.0
sg7
(lp1903
(lp1904
S'general'
p1905
aa(lp1906
S'global'
p1907
aasg15
(dp1908
(g1905
g1907
tp1909
F0.0
s(g1907
g1905
tp1910
F0.0
ssg3
F0.0
sg23
(lp1911
(lp1912
g1905
ag1907
aasg2
F0.0
ssI108
(dp1913
g1
F0.0
sg7
(lp1914
(lp1915
S'commonplace'
p1916
aa(lp1917
S'comprehensive'
p1918
aasg15
(dp1919
(g1918
g1916
tp1920
F0.0
s(g1916
g1918
tp1921
F0.0
ssg3
F0.0
sg23
(lp1922
(lp1923
g1916
ag1918
aasg2
F0.0
ssI109
(dp1924
g1
F1.0
sg7
(lp1925
(lp1926
S'general'
p1927
aa(lp1928
S'universal'
p1929
aasg15
(dp1930
(g1929
g1927
tp1931
F-1.0
s(g1927
g1929
tp1932
F1.0
ssg3
F1.0
sg23
(lp1933
(lp1934
S'general'
p1935
aa(lp1936
S'universal'
p1937
aasg2
F1.0
ssI110
(dp1938
g1
F0.0
sg7
(lp1939
(lp1940
S'commonplace'
p1941
aa(lp1942
S'global'
p1943
aasg15
(dp1944
(g1941
g1943
tp1945
F0.0
s(g1943
g1941
tp1946
F0.0
ssg3
F0.0
sg23
(lp1947
(lp1948
g1941
ag1943
aasg2
F0.0
ssI111
(dp1949
g1
F0.0
sg7
(lp1950
(lp1951
S'awful'
p1952
aa(lp1953
S'dreadful'
p1954
aasg15
(dp1955
(g1952
g1954
tp1956
F0.0
s(g1954
g1952
tp1957
F0.0
ssg3
F0.0
sg23
(lp1958
(lp1959
g1952
ag1954
aasg2
F0.0
ssI112
(dp1960
g1
F0.0
sg7
(lp1961
(lp1962
S'low'
p1963
aa(lp1964
S'scarce'
p1965
aa(lp1966
S'inadequate'
p1967
aa(lp1968
S'unacceptable'
p1969
aasg15
(dp1970
(g1963
g1965
tp1971
F0.0
s(g1967
g1965
tp1972
F0.0
s(g1963
g1967
tp1973
F0.0
s(g1967
g1963
tp1974
F0.0
s(g1967
g1969
tp1975
F0.0
s(g1963
g1969
tp1976
F0.0
s(g1965
g1969
tp1977
F0.0
s(g1969
g1965
tp1978
F0.0
s(g1965
g1963
tp1979
F0.0
s(g1969
g1963
tp1980
F0.0
s(g1965
g1967
tp1981
F0.0
s(g1969
g1967
tp1982
F0.0
ssg3
F0.0
sg23
(lp1983
(lp1984
g1963
ag1965
ag1967
ag1969
aasg2
F0.0
ssI113
(dp1985
g1
F0.0
sg7
(lp1986
(lp1987
S'little'
p1988
aa(lp1989
S'tiny'
p1990
aasg15
(dp1991
(g1990
g1988
tp1992
F0.0
s(g1988
g1990
tp1993
F0.0
ssg3
F0.0
sg23
(lp1994
(lp1995
g1988
ag1990
aasg2
F0.0
ssI114
(dp1996
g1
F0.0
sg7
(lp1997
(lp1998
S'hardworking'
p1999
aa(lp2000
S'tenacious'
p2001
aa(lp2002
S'tough'
p2003
aasg15
(dp2004
(g1999
g2003
tp2005
F0.0
s(g1999
g2001
tp2006
F0.0
s(g2001
g1999
tp2007
F0.0
s(g2001
g2003
tp2008
F0.0
s(g2003
g1999
tp2009
F0.0
s(g2003
g2001
tp2010
F0.0
ssg3
F0.0
sg23
(lp2011
(lp2012
g1999
ag2001
ag2003
aasg2
F0.0
ssI115
(dp2013
g1
F0.0
sg7
(lp2014
(lp2015
S'cute'
p2016
aa(lp2017
S'gorgeous'
p2018
aasg15
(dp2019
(g2018
g2016
tp2020
F0.0
s(g2016
g2018
tp2021
F0.0
ssg3
F0.0
sg23
(lp2022
(lp2023
g2016
ag2018
aasg2
F0.0
ssI116
(dp2024
g1
F0.0
sg7
(lp2025
(lp2026
S'known'
p2027
aa(lp2028
S'noteworthy'
p2029
aasg15
(dp2030
(g2029
g2027
tp2031
F0.0
s(g2027
g2029
tp2032
F0.0
ssg3
F0.0
sg23
(lp2033
(lp2034
g2027
ag2029
aasg2
F0.0
ssI117
(dp2035
g1
F0.0
sg7
(lp2036
(lp2037
S'known'
p2038
aa(lp2039
S'celebrated'
p2040
aasg15
(dp2041
(g2040
g2038
tp2042
F0.0
s(g2038
g2040
tp2043
F0.0
ssg3
F0.0
sg23
(lp2044
(lp2045
g2038
ag2040
aasg2
F0.0
ssI118
(dp2046
g1
F0.0
sg7
(lp2047
(lp2048
S'intact'
p2049
aa(lp2050
S'sturdy'
p2051
aasg15
(dp2052
(g2049
g2051
tp2053
F0.0
s(g2051
g2049
tp2054
F0.0
ssg3
F0.0
sg23
(lp2055
(lp2056
g2049
ag2051
aasg2
F0.0
ssI119
(dp2057
g1
F0.0
sg7
(lp2058
(lp2059
S'big'
p2060
aa(lp2061
S'vast'
p2062
aasg15
(dp2063
(g2062
g2060
tp2064
F0.0
s(g2060
g2062
tp2065
F0.0
ssg3
F0.0
sg23
(lp2066
(lp2067
g2060
ag2062
aasg2
F0.0
ssI120
(dp2068
g1
F0.0
sg7
(lp2069
(lp2070
S'big'
p2071
aa(lp2072
S'extensive'
p2073
aasg15
(dp2074
(g2071
g2073
tp2075
F0.0
s(g2073
g2071
tp2076
F0.0
ssg3
F0.0
sg23
(lp2077
(lp2078
g2071
ag2073
aasg2
F0.0
ssI121
(dp2079
g1
F0.0
sg7
(lp2080
(lp2081
S'hard'
p2082
aa(lp2083
S'problematic'
p2084
aasg15
(dp2085
(g2082
g2084
tp2086
F0.0
s(g2084
g2082
tp2087
F0.0
ssg3
F0.0
sg23
(lp2088
(lp2089
g2082
ag2084
aasg2
F0.0
ssI122
(dp2090
g1
F0.0
sg7
(lp2091
(lp2092
S'annoying'
p2093
aa(lp2094
S'obnoxious'
p2095
aasg15
(dp2096
(g2093
g2095
tp2097
F0.0
s(g2095
g2093
tp2098
F0.0
ssg3
F0.0
sg23
(lp2099
(lp2100
g2093
ag2095
aasg2
F0.0
ssI123
(dp2101
g1
F0.0
sg7
(lp2102
(lp2103
S'sad'
p2104
aa(lp2105
S'miserable'
p2106
aasg15
(dp2107
(g2106
g2104
tp2108
F0.0
s(g2104
g2106
tp2109
F0.0
ssg3
F0.0
sg23
(lp2110
(lp2111
g2104
ag2106
aasg2
F0.0
ssI124
(dp2112
g1
F0.0
sg7
(lp2113
(lp2114
S'sad'
p2115
aa(lp2116
S'terrible'
p2117
aasg15
(dp2118
(g2115
g2117
tp2119
F0.0
s(g2117
g2115
tp2120
F0.0
ssg3
F0.0
sg23
(lp2121
(lp2122
g2115
ag2117
aasg2
F0.0
ssI125
(dp2123
g1
F0.0
sg7
(lp2124
(lp2125
S'fair'
p2126
aa(lp2127
S'fairer'
p2128
aa(lp2129
S'fairest'
p2130
aa(lp2131
S'beautiful'
p2132
aasg15
(dp2133
(g2128
g2126
tp2134
F0.0
s(g2130
g2126
tp2135
F0.0
s(g2128
g2130
tp2136
F0.0
s(g2126
g2130
tp2137
F0.0
s(g2132
g2130
tp2138
F0.0
s(g2126
g2132
tp2139
F0.0
s(g2128
g2132
tp2140
F0.0
s(g2132
g2126
tp2141
F0.0
s(g2130
g2132
tp2142
F0.0
s(g2126
g2128
tp2143
F0.0
s(g2132
g2128
tp2144
F0.0
s(g2130
g2128
tp2145
F0.0
ssg3
F0.0
sg23
(lp2146
(lp2147
g2126
ag2128
ag2130
ag2132
aasg2
F0.0
sss.