ccopy_reg
_reconstructor
p0
(csklearn.linear_model.logistic
LogisticRegression
p1
c__builtin__
object
p2
Ntp3
Rp4
(dp5
S'warm_start'
p6
I00
sS'C'
p7
F0.4
sS'n_jobs'
p8
I1
sS'verbose'
p9
I0
sS'fit_intercept'
p10
I01
sS'random_state'
p11
NsS'solver'
p12
S'liblinear'
p13
sS'classes_'
p14
cnumpy.core.multiarray
_reconstruct
p15
(cnumpy
ndarray
p16
(I0
tp17
S'b'
p18
tp19
Rp20
(I1
(I2
tp21
cnumpy
dtype
p22
(S'f8'
p23
I0
I1
tp24
Rp25
(I3
S'<'
p26
NNNI-1
I-1
I0
tp27
bI00
S'\x00\x00\x00\x00\x00\x00\x00\x00\x00\x00\x00\x00\x00\x00\xf0?'
p28
tp29
bsS'n_iter_'
p30
g15
(g16
(I0
tp31
g18
tp32
Rp33
(I1
(I1
tp34
g22
(S'i4'
p35
I0
I1
tp36
Rp37
(I3
S'<'
p38
NNNI-1
I-1
I0
tp39
bI00
S'\x0b\x00\x00\x00'
p40
tp41
bsS'intercept_scaling'
p42
I1
sS'penalty'
p43
S'l1'
p44
sS'multi_class'
p45
S'ovr'
p46
sS'coef_'
p47
g15
(g16
(I0
tp48
g18
tp49
Rp50
(I1
(I1
I10
tp51
g25
I00
S'W\x1fS\x91\x8c\xf4\x10\xc0\x83#\x15\xab`F\xbd\xbf\xe1\x91:9\xe5\xb4\xc0?1Q\x1f\xfb7\xcd\xbe?\xb5\x1e|\xb4\xf8]\xe4?\x9c,\xd9-\xdcC\xd9?\x00\x00\x00\x00\x00\x00\x00\x00\x00\x00\x00\x00\x00\x00\x00\x00\x00\x00\x00\x00\x00\x00\x00\x00[\x05\xafril\xde?'
p52
tp53
bsS'_sklearn_version'
p54
S'0.18.1'
p55
sS'dual'
p56
I00
sS'tol'
p57
F0.0001
sS'intercept_'
p58
g15
(g16
(I0
tp59
g18
tp60
Rp61
(I1
(I1
tp62
g25
I00
S'\x00\x00\x00\x00\x00\x00\x00\x00'
p63
tp64
bsS'max_iter'
p65
I100
sS'class_weight'
p66
Nsb.