(dp0
S'tau'
p1
F1.0
sS'|tau|'
p2
F1.0
sS'pairwise'
p3
F1.0
sS'ranking'
p4
(dp5
I0
(dp6
g1
F1.0
sS'gold'
p7
(lp8
(lp9
S'large'
p10
aa(lp11
S'larger'
p12
aasS'raw'
p13
(dp14
S'prob*'
p15
cnumpy.core.multiarray
scalar
p16
(cnumpy
dtype
p17
(S'f8'
p18
I0
I1
tp19
Rp20
(I3
S'<'
p21
NNNI-1
I-1
I0
tp22
bS'\x8e\xfc\xd8Z-\xf7\xef?'
p23
tp24
Rp25
sS'link-probs'
p26
(lp27
(g10
g12
F0.9989229940764675
tp28
assg3
F1.0
sS'algo'
p29
(lp30
(lp31
g10
aa(lp32
g12
aasg2
F1.0
ssI1
(dp33
g1
F1.0
sg7
(lp34
(lp35
S'easy'
p36
aa(lp37
S'easier'
p38
aasg13
(dp39
g15
g16
(g20
S'l\xcf[\x8dSl\xef?'
p40
tp41
Rp42
sg26
(lp43
(g36
g38
F0.9819734345351043
tp44
assg3
F1.0
sg29
(lp45
(lp46
g36
aa(lp47
g38
aasg2
F1.0
ssI2
(dp48
g1
F1.0
sg7
(lp49
(lp50
S'close'
p51
aa(lp52
S'closer'
p53
aasg13
(dp54
g15
g16
(g20
S'\xb8\xf3"u<@\xe4?'
p55
tp56
Rp57
sg26
(lp58
(g51
g53
F0.6328413284132841
tp59
assg3
F1.0
sg29
(lp60
(lp61
g51
aa(lp62
g53
aasg2
F1.0
ssI3
(dp63
g1
F1.0
sg7
(lp64
(lp65
S'bright'
p66
aa(lp67
S'brighter'
p68
aasg13
(dp69
g15
g16
(g20
S'9+?!\xce\xca\xef?'
p70
tp71
Rp72
sg26
(lp73
(g66
g68
F0.9935064935064936
tp74
assg3
F1.0
sg29
(lp75
(lp76
g66
aa(lp77
g68
aasg2
F1.0
ssI4
(dp78
g1
F1.0
sg7
(lp79
(lp80
S'cool'
p81
aa(lp82
S'cooler'
p83
aasg13
(dp84
g15
g16
(g20
S'\xfe\xba\xa4\xf2a\xdc\xef?'
p85
tp86
Rp87
sg26
(lp88
(g81
g83
F0.9956521739130435
tp89
assg3
F1.0
sg29
(lp90
(lp91
g81
aa(lp92
g83
aasg2
F1.0
ssI5
(dp93
g1
F1.0
sg7
(lp94
(lp95
S'slow'
p96
aa(lp97
S'slower'
p98
aasg13
(dp99
g15
g16
(g20
S'f\x17a\xf2\xd2\xf4\xef?'
p100
tp101
Rp102
sg26
(lp103
(g96
g98
F0.9986357435197817
tp104
assg3
F1.0
sg29
(lp105
(lp106
g96
aa(lp107
g98
aasg2
F1.0
ssI6
(dp108
g1
F1.0
sg7
(lp109
(lp110
S'good'
p111
aa(lp112
S'great'
p113
aasg13
(dp114
g15
g16
(g20
S'Hx\xd1\xe6\xb7@\xef?'
p115
tp116
Rp117
sg26
(lp118
(g111
g113
F0.9766501911324292
tp119
assg3
F1.0
sg29
(lp120
(lp121
g111
aa(lp122
g113
aasg2
F1.0
ssI7
(dp123
g1
F1.0
sg7
(lp124
(lp125
S'long'
p126
aa(lp127
S'longer'
p128
aasg13
(dp129
g15
g16
(g20
S'\xa2[\xa0\x18k\xfb\xef?'
p130
tp131
Rp132
sg26
(lp133
(g126
g128
F0.9994407158836689
tp134
assg3
F1.0
sg29
(lp135
(lp136
g126
aa(lp137
g128
aasg2
F1.0
ssI8
(dp138
g1
F1.0
sg7
(lp139
(lp140
S'hot'
p141
aa(lp142
S'hotter'
p143
aasg13
(dp144
g15
g16
(g20
S'0\n84\x9f\xeb\xef?'
p145
tp146
Rp147
sg26
(lp148
(g141
g143
F0.9975124378109452
tp149
assg3
F1.0
sg29
(lp150
(lp151
g141
aa(lp152
g143
aasg2
F1.0
ssI9
(dp153
g1
F1.0
sg7
(lp154
(lp155
S'pretty'
p156
aa(lp157
S'prettier'
p158
aasg13
(dp159
g15
g16
(g20
S'\xcb_\xb2\xfc%\xcb\xef?'
p160
tp161
Rp162
sg26
(lp163
(g156
g158
F0.9935483870967742
tp164
assg3
F1.0
sg29
(lp165
(lp166
g156
aa(lp167
g158
aasg2
F1.0
ssI10
(dp168
g1
F1.0
sg7
(lp169
(lp170
S'rich'
p171
aa(lp172
S'richer'
p173
aasg13
(dp174
g15
g16
(g20
S'\x99h#\xe5\xf9\xf2\xef?'
p175
tp176
Rp177
sg26
(lp178
(g171
g173
F0.9984101748807631
tp179
assg3
F1.0
sg29
(lp180
(lp181
g171
aa(lp182
g173
aasg2
F1.0
ssI11
(dp183
g1
F1.0
sg7
(lp184
(lp185
S'happy'
p186
aa(lp187
S'happier'
p188
aasg13
(dp189
g15
g16
(g20
S'\xb7m\xdb\xb6m\xdb\xef?'
p190
tp191
Rp192
sg26
(lp193
(g186
g188
F0.9955357142857143
tp194
assg3
F1.0
sg29
(lp195
(lp196
g186
aa(lp197
g188
aasg2
F1.0
ssI12
(dp198
g1
F1.0
sg7
(lp199
(lp200
S'safe'
p201
aa(lp202
S'safer'
p203
aasg13
(dp204
g15
g16
(g20
S'K\xb3X5\x85\x0e\xe6?'
p205
tp206
Rp207
sg26
(lp208
(g201
g203
F0.689272503082614
tp209
assg3
F1.0
sg29
(lp210
(lp211
g201
aa(lp212
g203
aasg2
F1.0
ssI13
(dp213
g1
F1.0
sg7
(lp214
(lp215
S'heavy'
p216
aa(lp217
S'heavier'
p218
aasg13
(dp219
g15
g16
(g20
S'd+\x82\x86\x93\xba\xef?'
p220
tp221
Rp222
sg26
(lp223
(g216
g218
F0.9915254237288136
tp224
assg3
F1.0
sg29
(lp225
(lp226
g216
aa(lp227
g218
aasg2
F1.0
ssI14
(dp228
g1
F1.0
sg7
(lp229
(lp230
S'weak'
p231
aa(lp232
S'weaker'
p233
aasg13
(dp234
g15
g16
(g20
S'\xd7\xa3p=\n\xd7\xef?'
p235
tp236
Rp237
sg26
(lp238
(g231
g233
F0.995
tp239
assg3
F1.0
sg29
(lp240
(lp241
g231
aa(lp242
g233
aasg2
F1.0
ssI15
(dp243
g1
F1.0
sg7
(lp244
(lp245
S'far'
p246
aa(lp247
S'further'
p248
aasg13
(dp249
g15
g16
(g20
S'\xf8}\xdf\xf7}\xdf\xef?'
p250
tp251
Rp252
sg26
(lp253
(g246
g248
F0.996031746031746
tp254
assg3
F1.0
sg29
(lp255
(lp256
g246
aa(lp257
g248
aasg2
F1.0
ssI16
(dp258
g1
F1.0
sg7
(lp259
(lp260
S'strange'
p261
aa(lp262
S'stranger'
p263
aasg13
(dp264
g15
g16
(g20
S'\x83%W\xa5_\xfc\xef?'
p265
tp266
Rp267
sg26
(lp268
(g261
g263
F0.9995573262505534
tp269
assg3
F1.0
sg29
(lp270
(lp271
g261
aa(lp272
g263
aasg2
F1.0
ssI17
(dp273
g1
F1.0
sg7
(lp274
(lp275
S'far'
p276
aa(lp277
S'farther'
p278
aasg13
(dp279
g15
g16
(g20
S'\x8f\x80\x89!:\xdc\xef?'
p280
tp281
Rp282
sg26
(lp283
(g276
g278
F0.9956331877729258
tp284
assg3
F1.0
sg29
(lp285
(lp286
g276
aa(lp287
g278
aasg2
F1.0
ssI18
(dp288
g1
F1.0
sg7
(lp289
(lp290
S'old'
p291
aa(lp292
S'older'
p293
aasg13
(dp294
g15
g16
(g20
S'\x8c\x0c\xae\xd1\xe5\x81\xeb?'
p295
tp296
Rp297
sg26
(lp298
(g291
g293
F0.8596066565809379
tp299
assg3
F1.0
sg29
(lp300
(lp301
g291
aa(lp302
g293
aasg2
F1.0
ssI19
(dp303
g1
F1.0
sg7
(lp304
(lp305
S'simple'
p306
aa(lp307
S'simpler'
p308
aasg13
(dp309
g15
g16
(g20
S'\xf1C\x18\xe4,\xd9\xef?'
p310
tp311
Rp312
sg26
(lp313
(g306
g308
F0.995260663507109
tp314
assg3
F1.0
sg29
(lp315
(lp316
g306
aa(lp317
g308
aasg2
F1.0
ssI20
(dp318
g1
F1.0
sg7
(lp319
(lp320
S'few'
p321
aa(lp322
S'fewer'
p323
aasg13
(dp324
g15
g16
(g20
S'\x84\x0f>\xf8\xe0\x83\xef?'
p325
tp326
Rp327
sg26
(lp328
(g321
g323
F0.9848484848484849
tp329
assg3
F1.0
sg29
(lp330
(lp331
g321
aa(lp332
g323
aasg2
F1.0
ssI21
(dp333
g1
F1.0
sg7
(lp334
(lp335
S'low'
p336
aa(lp337
S'lower'
p338
aasg13
(dp339
g15
g16
(g20
S'\xb38\xa3\xdd\xc3\xd6\xef?'
p340
tp341
Rp342
sg26
(lp343
(g336
g338
F0.9949664429530202
tp344
assg3
F1.0
sg29
(lp345
(lp346
g336
aa(lp347
g338
aasg2
F1.0
ssI22
(dp348
g1
F1.0
sg7
(lp349
(lp350
S'nice'
p351
aa(lp352
S'nicer'
p353
aasg13
(dp354
g15
g16
(g20
S'J\x9f\xf4I\x9f\xf4\xef?'
p355
tp356
Rp357
sg26
(lp358
(g351
g353
F0.9986111111111111
tp359
assg3
F1.0
sg29
(lp360
(lp361
g351
aa(lp362
g353
aasg2
F1.0
ssI23
(dp363
g1
F1.0
sg7
(lp364
(lp365
S'cold'
p366
aa(lp367
S'colder'
p368
aasg13
(dp369
g15
g16
(g20
S'\x9c\xfa=\xb7\xc4\xa9\xef?'
p370
tp371
Rp372
sg26
(lp373
(g366
g368
F0.9894736842105263
tp374
assg3
F1.0
sg29
(lp375
(lp376
g366
aa(lp377
g368
aasg2
F1.0
ssI24
(dp378
g1
F1.0
sg7
(lp379
(lp380
S'rare'
p381
aa(lp382
S'rarer'
p383
aasg13
(dp384
g15
g16
(g20
S'\x98\x94\xe8`(\xe6\xef?'
p385
tp386
Rp387
sg26
(lp388
(g381
g383
F0.9968454258675079
tp389
assg3
F1.0
sg29
(lp390
(lp391
g381
aa(lp392
g383
aasg2
F1.0
ssI25
(dp393
g1
F1.0
sg7
(lp394
(lp395
S'much'
p396
aa(lp397
S'more'
p398
aasg13
(dp399
g15
g16
(g20
S'%\xfe\xf2\x0fG\xb5\xee?'
p400
tp401
Rp402
sg26
(lp403
(g396
g398
F0.9596286117084146
tp404
assg3
F1.0
sg29
(lp405
(lp406
g396
aa(lp407
g398
aasg2
F1.0
ssI26
(dp408
g1
F1.0
sg7
(lp409
(lp410
S'fast'
p411
aa(lp412
S'faster'
p413
aasg13
(dp414
g15
g16
(g20
S'M\x8b\x13`\xeb\xfe\xee?'
p415
tp416
Rp417
sg26
(lp418
(g411
g413
F0.9686180950633144
tp419
assg3
F1.0
sg29
(lp420
(lp421
g411
aa(lp422
g413
aasg2
F1.0
ssI27
(dp423
g1
F1.0
sg7
(lp424
(lp425
S'deep'
p426
aa(lp427
S'deeper'
p428
aasg13
(dp429
g15
g16
(g20
S'\xbe\xf7\xde{\xef\xbd\xef?'
p430
tp431
Rp432
sg26
(lp433
(g426
g428
F0.9919354838709677
tp434
assg3
F1.0
sg29
(lp435
(lp436
g426
aa(lp437
g428
aasg2
F1.0
ssI28
(dp438
g1
F1.0
sg7
(lp439
(lp440
S'little'
p441
aa(lp442
S'less'
p443
aasg13
(dp444
g15
g16
(g20
S'w\xbc\xd8\x12|\x9b\xef?'
p445
tp446
Rp447
sg26
(lp448
(g441
g443
F0.9877300613496932
tp449
assg3
F1.0
sg29
(lp450
(lp451
g441
aa(lp452
g443
aasg2
F1.0
ssI29
(dp453
g1
F1.0
sg7
(lp454
(lp455
S'tough'
p456
aa(lp457
S'tougher'
p458
aasg13
(dp459
g15
g16
(g20
S'\x16\x06sG\xbf\xf5\xef?'
p460
tp461
Rp462
sg26
(lp463
(g456
g458
F0.9987484355444305
tp464
assg3
F1.0
sg29
(lp465
(lp466
g456
aa(lp467
g458
aasg2
F1.0
ssI30
(dp468
g1
F1.0
sg7
(lp469
(lp470
S'quiet'
p471
aa(lp472
S'quieter'
p473
aasg13
(dp474
g15
g16
(g20
S'\xf0\xfb\xbe\xef\xfb\xbe\xef?'
p475
tp476
Rp477
sg26
(lp478
(g471
g473
F0.9920634920634921
tp479
assg3
F1.0
sg29
(lp480
(lp481
g471
aa(lp482
g473
aasg2
F1.0
ssI31
(dp483
g1
F1.0
sg7
(lp484
(lp485
S'healthy'
p486
aa(lp487
S'healthier'
p488
aasg13
(dp489
g15
g16
(g20
S'\xa2\xbc\x86\xf2\x1a\xca\xef?'
p490
tp491
Rp492
sg26
(lp493
(g486
g488
F0.993421052631579
tp494
assg3
F1.0
sg29
(lp495
(lp496
g486
aa(lp497
g488
aasg2
F1.0
ssI32
(dp498
g1
F1.0
sg7
(lp499
(lp500
S'wide'
p501
aa(lp502
S'wider'
p503
aasg13
(dp504
g15
g16
(g20
S'\xfd\x13\xa5\x00\xbb\xd6\xef?'
p505
tp506
Rp507
sg26
(lp508
(g501
g503
F0.9949622166246851
tp509
assg3
F1.0
sg29
(lp510
(lp511
g501
aa(lp512
g503
aasg2
F1.0
ssI33
(dp513
g1
F1.0
sg7
(lp514
(lp515
S'busy'
p516
aa(lp517
S'busier'
p518
aasg13
(dp519
g15
g16
(g20
S'\xb2\xfd\x8e^\x19\xdb\xef?'
p520
tp521
Rp522
sg26
(lp523
(g516
g518
F0.9954954954954955
tp524
assg3
F1.0
sg29
(lp525
(lp526
g516
aa(lp527
g518
aasg2
F1.0
ssI34
(dp528
g1
F1.0
sg7
(lp529
(lp530
S'short'
p531
aa(lp532
S'shorter'
p533
aasg13
(dp534
g15
g16
(g20
S'\xb8|\xcb\xb7|\xcb\xef?'
p535
tp536
Rp537
sg26
(lp538
(g531
g533
F0.9935897435897436
tp539
assg3
F1.0
sg29
(lp540
(lp541
g531
aa(lp542
g533
aasg2
F1.0
ssI35
(dp543
g1
F1.0
sg7
(lp544
(lp545
S'hard'
p546
aa(lp547
S'harder'
p548
aasg13
(dp549
g15
g16
(g20
S'%\x8b\xaa\x89\x1e\xf8\xef?'
p550
tp551
Rp552
sg26
(lp553
(g546
g548
F0.9990379990379991
tp554
assg3
F1.0
sg29
(lp555
(lp556
g546
aa(lp557
g548
aasg2
F1.0
ssI36
(dp558
g1
F1.0
sg7
(lp559
(lp560
S'high'
p561
aa(lp562
S'higher'
p563
aasg13
(dp564
g15
g16
(g20
S'\x18H\xf0\x81x\xc6\xee?'
p565
tp566
Rp567
sg26
(lp568
(g561
g563
F0.9617273843634875
tp569
assg3
F1.0
sg29
(lp570
(lp571
g561
aa(lp572
g563
aasg2
F1.0
ssI37
(dp573
g1
F1.0
sg7
(lp574
(lp575
S'bad'
p576
aa(lp577
S'worse'
p578
aasg13
(dp579
g15
g16
(g20
S"'\xcf\x1e\x18\x07\xf3\xef?"
p580
tp581
Rp582
sg26
(lp583
(g576
g578
F0.9984164687252574
tp584
assg3
F1.0
sg29
(lp585
(lp586
g576
aa(lp587
g578
aasg2
F1.0
ssI38
(dp588
g1
F1.0
sg7
(lp589
(lp590
S'thin'
p591
aa(lp592
S'thinner'
p593
aasg13
(dp594
g15
g16
(g20
S'\x12x\xfb!\x81\xb7\xef?'
p595
tp596
Rp597
sg26
(lp598
(g591
g593
F0.9911504424778761
tp599
assg3
F1.0
sg29
(lp600
(lp601
g591
aa(lp602
g593
aasg2
F1.0
ssI39
(dp603
g1
F1.0
sg7
(lp604
(lp605
S'quick'
p606
aa(lp607
S'quicker'
p608
aasg13
(dp609
g15
g16
(g20
S'\xd0\xfd\xdc\xcf\xfd\xdc\xef?'
p610
tp611
Rp612
sg26
(lp613
(g606
g608
F0.9957264957264957
tp614
assg3
F1.0
sg29
(lp615
(lp616
g606
aa(lp617
g608
aasg2
F1.0
ssI40
(dp618
g1
F1.0
sg7
(lp619
(lp620
S'tall'
p621
aa(lp622
S'taller'
p623
aasg13
(dp624
g15
g16
(g20
S'\xd6\x88\x03\x9b\xd7\xef\xef?'
p625
tp626
Rp627
sg26
(lp628
(g621
g623
F0.9980276134122288
tp629
assg3
F1.0
sg29
(lp630
(lp631
g621
aa(lp632
g623
aasg2
F1.0
ssI41
(dp633
g1
F1.0
sg7
(lp634
(lp635
S'true'
p636
aa(lp637
S'truer'
p638
aasg13
(dp639
g15
g16
(g20
S'#,\xf74\xc2r\xef?'
p640
tp641
Rp642
sg26
(lp643
(g636
g638
F0.9827586206896551
tp644
assg3
F1.0
sg29
(lp645
(lp646
g636
aa(lp647
g638
aasg2
F1.0
ssI42
(dp648
g1
F1.0
sg7
(lp649
(lp650
S'big'
p651
aa(lp652
S'bigger'
p653
aasg13
(dp654
g15
g16
(g20
S'\xe6\xb1\xe6\xad\xf4\xfc\xef?'
p655
tp656
Rp657
sg26
(lp658
(g651
g653
F0.9996283909327388
tp659
assg3
F1.0
sg29
(lp660
(lp661
g651
aa(lp662
g653
aasg2
F1.0
ssI43
(dp663
g1
F1.0
sg7
(lp664
(lp665
S'clear'
p666
aa(lp667
S'clearer'
p668
aasg13
(dp669
g15
g16
(g20
S'Y-o\x8c`\xa2\xef?'
p670
tp671
Rp672
sg26
(lp673
(g666
g668
F0.9885714285714285
tp674
assg3
F1.0
sg29
(lp675
(lp676
g666
aa(lp677
g668
aasg2
F1.0
ssI44
(dp678
g1
F1.0
sg7
(lp679
(lp680
S'young'
p681
aa(lp682
S'younger'
p683
aasg13
(dp684
g15
g16
(g20
S'\xbdS\xd7rp\xb3\xef?'
p685
tp686
Rp687
sg26
(lp688
(g681
g683
F0.9906542056074766
tp689
assg3
F1.0
sg29
(lp690
(lp691
g681
aa(lp692
g683
aasg2
F1.0
ssI45
(dp693
g1
F1.0
sg7
(lp694
(lp695
S'smart'
p696
aa(lp697
S'smarter'
p698
aasg13
(dp699
g15
g16
(g20
S'\xecQ\xb8\x1e\x85\xeb\xef?'
p700
tp701
Rp702
sg26
(lp703
(g696
g698
F0.9975
tp704
assg3
F1.0
sg29
(lp705
(lp706
g696
aa(lp707
g698
aasg2
F1.0
ssI46
(dp708
g1
F1.0
sg7
(lp709
(lp710
S'warm'
p711
aa(lp712
S'warmer'
p713
aasg13
(dp714
g15
g16
(g20
S' \xf8\x81\x1f\xf8\x81\xef?'
p715
tp716
Rp717
sg26
(lp718
(g711
g713
F0.9846153846153847
tp719
assg3
F1.0
sg29
(lp720
(lp721
g711
aa(lp722
g713
aasg2
F1.0
ssI47
(dp723
g1
F1.0
sg7
(lp724
(lp725
S'poor'
p726
aa(lp727
S'poorer'
p728
aasg13
(dp729
g15
g16
(g20
S'\xf0\xef\xef\xef\xef\xef\xef?'
p730
tp731
Rp732
sg26
(lp733
(g726
g728
F0.9980392156862745
tp734
assg3
F1.0
sg29
(lp735
(lp736
g726
aa(lp737
g728
aasg2
F1.0
ssI48
(dp738
g1
F1.0
sg7
(lp739
(lp740
S'great'
p741
aa(lp742
S'greater'
p743
aasg13
(dp744
g15
g16
(g20
S'&\xfb\x19\x87\xbe\xde\xef?'
p745
tp746
Rp747
sg26
(lp748
(g741
g743
F0.9959404600811907
tp749
assg3
F1.0
sg29
(lp750
(lp751
g741
aa(lp752
g743
aasg2
F1.0
ssI49
(dp753
g1
F1.0
sg7
(lp754
(lp755
S'strong'
p756
aa(lp757
S'stronger'
p758
aasg13
(dp759
g15
g16
(g20
S'\x17\xc5@4\xd2\xfc\xef?'
p760
tp761
Rp762
sg26
(lp763
(g756
g758
F0.9996119518820333
tp764
assg3
F1.0
sg29
(lp765
(lp766
g756
aa(lp767
g758
aasg2
F1.0
ssI50
(dp768
g1
F1.0
sg7
(lp769
(lp770
S'cheap'
p771
aa(lp772
S'cheaper'
p773
aasg13
(dp774
g15
g16
(g20
S'5H\x834H\x83\xec?'
p775
tp776
Rp777
sg26
(lp778
(g771
g773
F0.8910256410256411
tp779
assg3
F1.0
sg29
(lp780
(lp781
g771
aa(lp782
g773
aasg2
F1.0
ssI51
(dp783
g1
F1.0
sg7
(lp784
(lp785
S'good'
p786
aa(lp787
S'better'
p788
aasg13
(dp789
g15
g16
(g20
S'\x95\x9c\xa4OFb\xec?'
p790
tp791
Rp792
sg26
(lp793
(g786
g788
F0.8869964175727484
tp794
assg3
F1.0
sg29
(lp795
(lp796
g786
aa(lp797
g788
aasg2
F1.0
ssI52
(dp798
g1
F1.0
sg7
(lp799
(lp800
S'small'
p801
aa(lp802
S'smaller'
p803
aasg13
(dp804
g15
g16
(g20
S'7",\xdc\x10\xf8\xef?'
p805
tp806
Rp807
sg26
(lp808
(g801
g803
F0.9990314769975787
tp809
assg3
F1.0
sg29
(lp810
(lp811
g801
aa(lp812
g803
aasg2
F1.0
ssI53
(dp813
g1
F1.0
sg7
(lp814
(lp815
S'loud'
p816
aa(lp817
S'louder'
p818
aasg13
(dp819
g15
g16
(g20
S'\xbe\xb5a\x9a\xbb\xe0\xef?'
p820
tp821
Rp822
sg26
(lp823
(g816
g818
F0.9961832061068703
tp824
assg3
F1.0
sg29
(lp825
(lp826
g816
aa(lp827
g818
aasg2
F1.0
ssI54
(dp828
g1
F1.0
sg7
(lp829
(lp830
S'great'
p831
aa(lp832
S'greatest'
p833
aasg13
(dp834
g15
g16
(g20
S'\x12\x96{\x1aa\xb9\xef?'
p835
tp836
Rp837
sg26
(lp838
(g831
g833
F0.9913793103448276
tp839
assg3
F1.0
sg29
(lp840
(lp841
g831
aa(lp842
g833
aasg2
F1.0
ssI55
(dp843
g1
F1.0
sg7
(lp844
(lp845
S'much'
p846
aa(lp847
S'most'
p848
aasg13
(dp849
g15
g16
(g20
S"\xa6\xaf\x11\xc1'\xff\xef?"
p850
tp851
Rp852
sg26
(lp853
(g846
g848
F0.9998968859558672
tp854
assg3
F1.0
sg29
(lp855
(lp856
g846
aa(lp857
g848
aasg2
F1.0
ssI56
(dp858
g1
F1.0
sg7
(lp859
(lp860
S'good'
p861
aa(lp862
S'excellent'
p863
aasg13
(dp864
g15
g16
(g20
S'\xc5\x9b\xb5\xee&\xec\xef?'
p865
tp866
Rp867
sg26
(lp868
(g861
g863
F0.9975771581929328
tp869
assg3
F1.0
sg29
(lp870
(lp871
g861
aa(lp872
g863
aasg2
F1.0
ssI57
(dp873
g1
F1.0
sg7
(lp874
(lp875
S'many'
p876
aa(lp877
S'most'
p878
aasg13
(dp879
g15
g16
(g20
S'\x87x>\xd7r\xc7\xef?'
p880
tp881
Rp882
sg26
(lp883
(g876
g878
F0.9930967525467772
tp884
assg3
F1.0
sg29
(lp885
(lp886
g876
aa(lp887
g878
aasg2
F1.0
ssI58
(dp888
g1
F1.0
sg7
(lp889
(lp890
S'bad'
p891
aa(lp892
S'worst'
p893
aasg13
(dp894
g15
g16
(g20
S'\x12x\xfb!\x81\xb7\xef?'
p895
tp896
Rp897
sg26
(lp898
(g891
g893
F0.9911504424778761
tp899
assg3
F1.0
sg29
(lp900
(lp901
g891
aa(lp902
g893
aasg2
F1.0
ssI59
(dp903
g1
F1.0
sg7
(lp904
(lp905
S'good'
p906
aa(lp907
S'best'
p908
aasg13
(dp909
g15
g16
(g20
S'N\xb1\xa5V\x8d\x88\xec?'
p910
tp911
Rp912
sg26
(lp913
(g906
g908
F0.8916689579323618
tp914
assg3
F1.0
sg29
(lp915
(lp916
g906
aa(lp917
g908
aasg2
F1.0
ssI60
(dp918
g1
F1.0
sg7
(lp919
(lp920
S'fast'
p921
aa(lp922
S'fastest'
p923
aasg13
(dp924
g15
g16
(g20
S'\xe7\xcfr\xfe,\xe7\xef?'
p925
tp926
Rp927
sg26
(lp928
(g921
g923
F0.996969696969697
tp929
assg3
F1.0
sg29
(lp930
(lp931
g921
aa(lp932
g923
aasg2
F1.0
ssI61
(dp933
g1
F1.0
sg7
(lp934
(lp935
S'high'
p936
aa(lp937
S'highest'
p938
aasg13
(dp939
g15
g16
(g20
S'\x00\x00\x00\x00\x00\xc0\xef?'
p940
tp941
Rp942
sg26
(lp943
(g936
g938
F0.9921875
tp944
assg3
F1.0
sg29
(lp945
(lp946
g936
aa(lp947
g938
aasg2
F1.0
ssI62
(dp948
g1
F1.0
sg7
(lp949
(lp950
S'strong'
p951
aa(lp952
S'strongest'
p953
aasg13
(dp954
g15
g16
(g20
S'\x12x\xfb!\x81\xb7\xef?'
p955
tp956
Rp957
sg26
(lp958
(g951
g953
F0.9911504424778761
tp959
assg3
F1.0
sg29
(lp960
(lp961
g951
aa(lp962
g953
aasg2
F1.0
ssI63
(dp963
g1
F1.0
sg7
(lp964
(lp965
S'younger'
p966
aa(lp967
S'youngest'
p968
aasg13
(dp969
g15
g16
(g20
S'\xa0\x9f\x9f\x9f\x9f\x9f\xef?'
p970
tp971
Rp972
sg26
(lp973
(g966
g968
F0.9882352941176471
tp974
assg3
F1.0
sg29
(lp975
(lp976
g966
aa(lp977
g968
aasg2
F1.0
sss.