(dp0
S'tau'
p1
F0.4718768740065094
sS'|tau|'
p2
F0.6329376428172261
sS'pairwise'
p3
F0.65703933747412
sS'ranking'
p4
(dp5
I0
(dp6
g1
F1.0
sS'gold'
p7
(lp8
(lp9
S'small'
p10
aa(lp11
S'minute'
p12
aa(lp13
S'miniscule'
p14
aasS'raw'
p15
(dp16
S'prob*'
p17
cnumpy.core.multiarray
scalar
p18
(cnumpy
dtype
p19
(S'f8'
p20
I0
I1
tp21
Rp22
(I3
S'<'
p23
NNNI-1
I-1
I0
tp24
bS'%\xd0\xf8R!\xd1\xd9?'
p25
tp26
Rp27
sS'link-probs'
p28
(lp29
(g10
g12
F0.9988249118683902
tp30
a(g10
g14
F0.75
tp31
a(g12
g14
F0.5384851578420123
tp32
assg3
F1.0
sS'algo'
p33
(lp34
(lp35
g10
aa(lp36
g12
aa(lp37
g14
aasg2
F1.0
ssI1
(dp38
g1
F1.0
sg7
(lp39
(lp40
S'upset'
p41
aa(lp42
S'angry'
p43
aa(lp44
S'enraged'
p45
aasg15
(dp46
g17
g18
(g22
S',\x88\\\xc5\x94`\xd4?'
p47
tp48
Rp49
sg28
(lp50
(g41
g43
F0.6367896895137668
tp51
a(g41
g45
F0.75
tp52
a(g43
g45
F0.6666666666666666
tp53
assg3
F1.0
sg33
(lp54
(lp55
g41
aa(lp56
g43
aa(lp57
g45
aasg2
F1.0
ssI2
(dp58
g1
F0.3333333333333333
sg7
(lp59
(lp60
S'useful'
p61
aa(lp62
S'worthwhile'
p63
aa(lp64
S'valuable'
p65
aasg15
(dp66
g17
g18
(g22
S'\xe1&\x7fFE\xbf\xe1?'
p67
tp68
Rp69
sg28
(lp70
(g61
g65
F0.9489795918367347
tp71
a(g61
g63
F0.8181818181818182
tp72
a(g65
g63
F0.7142857142857143
tp73
assg3
F0.6666666666666666
sg33
(lp74
(lp75
g61
aa(lp76
g65
aa(lp77
g63
aasg2
F0.3333333333333333
ssI3
(dp78
g1
F0.3333333333333333
sg7
(lp79
(lp80
S'fine'
p81
aa(lp82
S'adequate'
p83
aa(lp84
S'good'
p85
aasg15
(dp86
g17
g18
(g22
S'\x921\xaf\xb3Hu\xc6?'
p87
tp88
Rp89
sg28
(lp90
(g81
g85
F0.5752577319587628
tp91
a(g81
g83
F0.508639507816628
tp92
a(g85
g83
F0.599640933572711
tp93
assg3
F0.6666666666666666
sg33
(lp94
(lp95
g81
aa(lp96
g85
aa(lp97
g83
aasg2
F0.3333333333333333
ssI4
(dp98
g1
F0.3333333333333333
sg7
(lp99
(lp100
S'useful'
p101
aa(lp102
S'relevant'
p103
aa(lp104
S'necessary'
p105
aasg15
(dp106
g17
g18
(g22
S'\x18=\x03wD\x12\xed?'
p107
tp108
Rp109
sg28
(lp110
(g101
g105
F0.9407633342697757
tp111
a(g101
g103
F0.979381443298969
tp112
a(g105
g103
F0.986013986013986
tp113
assg3
F0.6666666666666666
sg33
(lp114
(lp115
g101
aa(lp116
g105
aa(lp117
g103
aasg2
F0.3333333333333333
ssI5
(dp118
g1
F0.6666666666666666
sg7
(lp119
(lp120
S'clear'
p121
aa(lp122
S'accurate'
p123
aa(lp124
S'precise'
p125
aa(lp126
S'exact'
p127
aasg15
(dp128
g17
g18
(g22
S'\x07$\xb7B\x8cg\xb4?'
p129
tp130
Rp131
sg28
(lp132
(g121
g125
F0.5714285714285714
tp133
a(g121
g123
F0.6666666666666666
tp134
a(g121
g127
F0.6666666666666666
tp135
a(g125
g123
F0.5649092970521542
tp136
a(g125
g127
F0.6666666666666666
tp137
a(g123
g127
F0.8333333333333334
tp138
assg3
F0.8333333333333334
sg33
(lp139
(lp140
g121
aa(lp141
g125
aa(lp142
g123
aa(lp143
g127
aasg2
F0.6666666666666666
ssI6
(dp144
g1
F1.0
sg7
(lp145
(lp146
S'high'
p147
aa(lp148
S'higher'
p149
aasg15
(dp150
g17
g18
(g22
S'\x18H\xf0\x81x\xc6\xee?'
p151
tp152
Rp153
sg28
(lp154
(g147
g149
F0.9617273843634875
tp155
assg3
F1.0
sg33
(lp156
(lp157
g147
aa(lp158
g149
aasg2
F1.0
ssI7
(dp159
g1
F0.3333333333333333
sg7
(lp160
(lp161
S'fine'
p162
aa(lp163
S'remarkable'
p164
aa(lp165
S'spectacular'
p166
aasg15
(dp167
g17
g18
(g22
S'^\xf7\x8a4*\xa3\xdc?'
p168
tp169
Rp170
sg28
(lp171
(g162
g166
F0.9988518943742825
tp172
a(g162
g164
F0.75
tp173
a(g166
g164
F0.5972974845801434
tp174
assg3
F0.6666666666666666
sg33
(lp175
(lp176
g162
aa(lp177
g166
aa(lp178
g164
aasg2
F0.3333333333333333
ssI8
(dp179
g1
F0.0
sg7
(lp180
(lp181
S'a-okay'
p182
aS'okay'
p183
aS'fine'
p184
aa(lp185
S'appropriate'
p186
aa(lp187
S'faultless'
p188
aa(lp189
S'perfect'
p190
aasg15
(dp191
g17
g18
(g22
S'\x84\xca\x81\xd7U\xb7W?'
p192
tp193
Rp194
sg28
(lp195
(g186
g184
F0.6666666666666666
tp196
a(g186
g183
F0.6666666666666666
tp197
a(g186
g190
F0.75
tp198
a(g186
g188
F0.46742412260527616
tp199
a(g186
g182
F0.6493519063392955
tp200
a(g184
g183
F0.6
tp201
a(g184
g190
F0.4166666666666667
tp202
a(g184
g188
F0.6666666666666666
tp203
a(g184
g182
F0.652246843568836
tp204
a(g183
g190
F0.9991254919108001
tp205
a(g183
g188
F0.5006821921228307
tp206
a(g183
g182
F0.75
tp207
a(g190
g188
F0.7142857142857143
tp208
a(g190
g182
F0.75
tp209
a(g188
g182
F0.6548124328669006
tp210
assg3
F0.4
sg33
(lp211
(lp212
g186
aa(lp213
g184
aa(lp214
g183
aa(lp215
g190
aa(lp216
g188
aa(lp217
g182
aasg2
F0.0
ssI9
(dp218
g1
F1.0
sg7
(lp219
(lp220
S'odd'
p221
aa(lp222
S'bizarre'
p223
aasg15
(dp224
g17
g18
(g22
S'\xdd\xae\x95\x13\x9e\xe9\xef?'
p225
tp226
Rp227
sg28
(lp228
(g221
g223
F0.9972677595628415
tp229
assg3
F1.0
sg33
(lp230
(lp231
g221
aa(lp232
g223
aasg2
F1.0
ssI10
(dp233
g1
F0.0
sg7
(lp234
(lp235
S'capable'
p236
aS'qualified'
p237
aa(lp238
S'skilled'
p239
aS'proficient'
p240
aasg15
(dp241
g17
g18
(g22
S'\xa3j\x91\x9a\xd1a\xb0?'
p242
tp243
Rp244
sg28
(lp245
(g239
g237
F0.9718875502008032
tp246
a(g239
g236
F0.3333333333333333
tp247
a(g239
g240
F0.6666666666666666
tp248
a(g237
g236
F0.6666666666666666
tp249
a(g237
g240
F0.6666666666666666
tp250
a(g236
g240
F0.6666666666666666
tp251
assg3
F0.3333333333333333
sg33
(lp252
(lp253
g239
aa(lp254
g237
aa(lp255
g236
aa(lp256
g240
aasg2
F0.0
ssI11
(dp257
g1
F-0.8164965809277261
sg7
(lp258
(lp259
S'content'
p260
aS'satisfied'
p261
aa(lp262
S'pleased'
p263
aasg15
(dp264
g17
g18
(g22
S'b\xc6\x98<\xfe\xfb\xe4?'
p265
tp266
Rp267
sg28
(lp268
(g263
g260
F0.9878048780487805
tp269
a(g263
g261
F0.9957850368809273
tp270
a(g260
g261
F0.6666666666666666
tp271
assg3
F0.0
sg33
(lp272
(lp273
g263
aa(lp274
g260
aa(lp275
g261
aasg2
F0.8164965809277261
ssI12
(dp276
g1
F-0.23570226039551587
sg7
(lp277
(lp278
S'adequate'
p279
aS'fine'
p280
aS'fitting'
p281
aa(lp282
S'good'
p283
aasg15
(dp284
g17
g18
(g22
S'zf\xb3\x06R\xee\xac?'
p285
tp286
Rp287
sg28
(lp288
(g280
g283
F0.5752577319587628
tp289
a(g280
g279
F0.508639507816628
tp290
a(g280
g281
F0.75
tp291
a(g283
g279
F0.599640933572711
tp292
a(g283
g281
F0.6666666666666666
tp293
a(g279
g281
F0.6441080685311004
tp294
assg3
F0.16666666666666666
sg33
(lp295
(lp296
g280
aa(lp297
g283
aa(lp298
g279
aa(lp299
g281
aasg2
F0.23570226039551587
ssI13
(dp300
g1
F0.7071067811865476
sg7
(lp301
(lp302
S'pretty'
p303
aa(lp304
S'marvellous'
p305
aS'breathtaking'
p306
aS'spectacular'
p307
aasg15
(dp308
g17
g18
(g22
S'\xb7\x82\xc4\x00\x0e\xdd\xbe?'
p309
tp310
Rp311
sg28
(lp312
(g303
g306
F0.75
tp313
a(g303
g307
F0.9943181818181818
tp314
a(g303
g305
F0.75
tp315
a(g306
g307
F0.6565890155749806
tp316
a(g306
g305
F0.6565890155749806
tp317
a(g307
g305
F0.5
tp318
assg3
F0.5
sg33
(lp319
(lp320
g303
aa(lp321
g306
aa(lp322
g307
aa(lp323
g305
aasg2
F0.7071067811865476
ssI14
(dp324
g1
F0.8164965809277261
sg7
(lp325
(lp326
S'scary'
p327
aS'frightening'
p328
aa(lp329
S'terrifying'
p330
aasg15
(dp331
g17
g18
(g22
S'#\x9fu\x83)b\xe3?'
p332
tp333
Rp334
sg28
(lp335
(g327
g328
F0.984375
tp336
a(g327
g330
F0.625
tp337
a(g328
g330
F0.9845559845559846
tp338
assg3
F0.6666666666666666
sg33
(lp339
(lp340
g327
aa(lp341
g328
aa(lp342
g330
aasg2
F0.8164965809277261
ssI15
(dp343
g1
F-0.8
sg7
(lp344
(lp345
S'tough'
p346
aa(lp347
S'tougher'
p348
aa(lp349
S'rigorous'
p350
aa(lp351
S'stringent'
p352
aa(lp353
S'severe'
p354
aasg15
(dp355
g17
g18
(g22
S'\xde$\x1f\xd4AH\xa4?'
p356
tp357
Rp358
sg28
(lp359
(g354
g352
F0.5923070656913489
tp360
a(g354
g350
F0.6666666666666666
tp361
a(g354
g346
F0.6666666666666666
tp362
a(g354
g348
F0.75
tp363
a(g352
g350
F0.7142857142857143
tp364
a(g352
g346
F0.75
tp365
a(g352
g348
F0.75
tp366
a(g350
g346
F0.75
tp367
a(g350
g348
F0.6666666666666666
tp368
a(g346
g348
F0.9987484355444305
tp369
assg3
F0.1
sg33
(lp370
(lp371
g354
aa(lp372
g352
aa(lp373
g350
aa(lp374
g346
aa(lp375
g348
aasg2
F0.8
ssI16
(dp376
g1
F0.6
sg7
(lp377
(lp378
S'good'
p379
aa(lp380
S'better'
p381
aa(lp382
S'remarkable'
p383
aa(lp384
S'exceptional'
p385
aa(lp386
S'perfect'
p387
aasg15
(dp388
g17
g18
(g22
S'O\xb6\x7f~\xf8\xcf\xb4?'
p389
tp390
Rp391
sg28
(lp392
(g379
g381
F0.8869964175727484
tp393
a(g379
g387
F0.9806520665239585
tp394
a(g379
g383
F0.9980952380952381
tp395
a(g379
g385
F0.9998977505112474
tp396
a(g381
g387
F0.9066156615661566
tp397
a(g381
g383
F0.6608376820699349
tp398
a(g381
g385
F0.6578341889771772
tp399
a(g387
g383
F0.5511365630844794
tp400
a(g387
g385
F0.5173745626071825
tp401
a(g383
g385
F0.8333333333333334
tp402
assg3
F0.8
sg33
(lp403
(lp404
g379
aa(lp405
g381
aa(lp406
g387
aa(lp407
g383
aa(lp408
g385
aasg2
F0.6
ssI17
(dp409
g1
F0.5400617248673216
sg7
(lp410
(lp411
S'sizeable'
p412
aa(lp413
S'huge'
p414
aa(lp415
S'major'
p416
aa(lp417
S'immense'
p418
aS'formidable'
p419
aa(lp420
S'colossal'
p421
aS'overwhelming'
p422
aS'tremendous'
p423
aasg15
(dp424
g17
g18
(g22
S'\xa2\xa4~<\x96\xcf\xe0>'
p425
tp426
Rp427
sg28
(lp428
(g416
g412
F0.6666666666666666
tp429
a(g416
g414
F0.6666666666666666
tp430
a(g416
g419
F0.6666666666666666
tp431
a(g416
g422
F0.6666666666666666
tp432
a(g416
g423
F0.6666666666666666
tp433
a(g416
g421
F0.6666666666666666
tp434
a(g416
g418
F0.6666666666666666
tp435
a(g412
g414
F0.9942528735632183
tp436
a(g412
g419
F0.6561421863489124
tp437
a(g412
g422
F0.6561421863489124
tp438
a(g412
g423
F0.6666666666666666
tp439
a(g412
g421
F0.6561421863489124
tp440
a(g412
g418
F0.6561421863489124
tp441
a(g414
g419
F0.6666666666666666
tp442
a(g414
g422
F0.9987325728770595
tp443
a(g414
g423
F0.75
tp444
a(g414
g421
F0.9942528735632183
tp445
a(g414
g418
F0.75
tp446
a(g419
g422
F0.5
tp447
a(g419
g423
F0.6666666666666666
tp448
a(g419
g421
F0.5
tp449
a(g419
g418
F0.5
tp450
a(g422
g423
F0.6666666666666666
tp451
a(g422
g421
F0.5
tp452
a(g422
g418
F0.5
tp453
a(g423
g421
F0.6565890155749806
tp454
a(g423
g418
F0.6565890155749806
tp455
a(g421
g418
F0.5
tp456
assg3
F0.6785714285714286
sg33
(lp457
(lp458
g416
aa(lp459
g412
aa(lp460
g414
aa(lp461
g419
aa(lp462
g422
aa(lp463
g423
aa(lp464
g421
aa(lp465
g418
aasg2
F0.5400617248673216
ssI18
(dp466
g1
F0.6708203932499369
sg7
(lp467
(lp468
S'fine'
p469
aS'well'
p470
aa(lp471
S'terrific'
p472
aS'awesome'
p473
aa(lp474
S'perfect'
p475
aasg15
(dp476
g17
g18
(g22
S'&]\x8c\r\x16f\xa9?'
p477
tp478
Rp479
sg28
(lp480
(g469
g470
F0.5555555555555556
tp481
a(g469
g473
F0.6666666666666666
tp482
a(g469
g475
F0.4166666666666667
tp483
a(g469
g472
F0.9
tp484
a(g470
g473
F0.8
tp485
a(g470
g475
F0.9996351696461145
tp486
a(g470
g472
F0.8
tp487
a(g473
g475
F0.9969325153374233
tp488
a(g473
g472
F0.7
tp489
a(g475
g472
F0.8
tp490
assg3
F0.7
sg33
(lp491
(lp492
g469
aa(lp493
g470
aa(lp494
g473
aa(lp495
g475
aa(lp496
g472
aasg2
F0.6708203932499369
ssI19
(dp497
g1
F1.0
sg7
(lp498
(lp499
S'unusual'
p500
aa(lp501
S'rare'
p502
aasg15
(dp503
g17
g18
(g22
S't\xd2>H\x06\xd4\xe3?'
p504
tp505
Rp506
sg28
(lp507
(g500
g502
F0.6196319018404908
tp508
assg3
F1.0
sg33
(lp509
(lp510
g500
aa(lp511
g502
aasg2
F1.0
ssI20
(dp512
g1
F0.5962847939999439
sg7
(lp513
(lp514
S'sizeable'
p515
aa(lp516
S'big'
p517
aa(lp518
S'huge'
p519
aa(lp520
S'immense'
p521
aS'enormous'
p522
aS'tremendous'
p523
aasg15
(dp524
g17
g18
(g22
S'%9\x1fT#\x16\x8a?'
p525
tp526
Rp527
sg28
(lp528
(g517
g515
F0.6666666666666666
tp529
a(g517
g522
F0.6
tp530
a(g517
g519
F0.9991629464285714
tp531
a(g517
g523
F0.8
tp532
a(g517
g521
F0.8571428571428571
tp533
a(g515
g522
F0.6666666666666666
tp534
a(g515
g519
F0.9942528735632183
tp535
a(g515
g523
F0.6666666666666666
tp536
a(g515
g521
F0.6561421863489124
tp537
a(g522
g519
F0.625
tp538
a(g522
g523
F0.8333333333333334
tp539
a(g522
g521
F0.8333333333333334
tp540
a(g519
g523
F0.75
tp541
a(g519
g521
F0.75
tp542
a(g523
g521
F0.6565890155749806
tp543
assg3
F0.6666666666666666
sg33
(lp544
(lp545
g517
aa(lp546
g515
aa(lp547
g522
aa(lp548
g519
aa(lp549
g523
aa(lp550
g521
aasg2
F0.5962847939999439
ssI21
(dp551
g1
F1.0
sg7
(lp552
(lp553
S'small'
p554
aa(lp555
S'minute'
p556
aa(lp557
S'miniscule'
p558
aasg15
(dp559
g17
g18
(g22
S'%\xd0\xf8R!\xd1\xd9?'
p560
tp561
Rp562
sg28
(lp563
(g554
g556
F0.9988249118683902
tp564
a(g554
g558
F0.75
tp565
a(g556
g558
F0.5384851578420123
tp566
assg3
F1.0
sg33
(lp567
(lp568
g554
aa(lp569
g556
aa(lp570
g558
aasg2
F1.0
ssI22
(dp571
g1
F0.7745966692414834
sg7
(lp572
(lp573
S'general'
p574
aS'commonplace'
p575
aa(lp576
S'comprehensive'
p577
aS'universal'
p578
aS'global'
p579
aasg15
(dp580
g17
g18
(g22
S'\x1aJ\x94\xd4\xbe!\x8f?'
p581
tp582
Rp583
sg28
(lp584
(g574
g575
F0.6666666666666666
tp585
a(g574
g577
F0.5058698314906094
tp586
a(g574
g578
F0.9516493447808405
tp587
a(g574
g579
F0.75
tp588
a(g575
g577
F0.5638967154971252
tp589
a(g575
g578
F0.6574139815000141
tp590
a(g575
g579
F0.6642893694539679
tp591
a(g577
g578
F0.6466009631252527
tp592
a(g577
g579
F0.6613801071019516
tp593
a(g578
g579
F0.5996606005714367
tp594
assg3
F0.6
sg33
(lp595
(lp596
g574
aa(lp597
g575
aa(lp598
g577
aa(lp599
g578
aa(lp600
g579
aasg2
F0.7745966692414834
sss.