(dp0
S'tau'
p1
F-0.021128981393882064
sS'|tau|'
p2
F0.5801955219173759
sS'pairwise'
p3
F0.4894355093030591
sS'ranking'
p4
(dp5
I0
(dp6
g1
F0.14285714285714285
sS'gold'
p7
(lp8
(lp9
S'first'
p10
aa(lp11
S'second'
p12
aa(lp13
S'third'
p14
aa(lp15
S'fourth'
p16
aa(lp17
S'fifth'
p18
aa(lp19
S'sixth'
p20
aa(lp21
S'seventh'
p22
aa(lp23
S'eighth'
p24
aasS'raw'
p25
(dp26
S'prob*'
p27
cnumpy.core.multiarray
scalar
p28
(cnumpy
dtype
p29
(S'f8'
p30
I0
I1
tp31
Rp32
(I3
S'<'
p33
NNNI-1
I-1
I0
tp34
bS'\x00\x00\x00\x00\x00\x000>'
p35
tp36
Rp37
sS'link-probs'
p38
(lp39
(g14
g20
F0.5
tp40
a(g14
g22
F0.5
tp41
a(g14
g12
F0.5
tp42
a(g14
g16
F0.5
tp43
a(g14
g10
F0.5
tp44
a(g14
g18
F0.5
tp45
a(g14
g24
F0.5
tp46
a(g20
g22
F0.5
tp47
a(g20
g12
F0.5
tp48
a(g20
g16
F0.5
tp49
a(g20
g10
F0.5
tp50
a(g20
g18
F0.5
tp51
a(g20
g24
F0.5
tp52
a(g22
g12
F0.5
tp53
a(g22
g16
F0.5
tp54
a(g22
g10
F0.5
tp55
a(g22
g18
F0.5
tp56
a(g22
g24
F0.5
tp57
a(g12
g16
F0.5
tp58
a(g12
g10
F0.5
tp59
a(g12
g18
F0.5
tp60
a(g12
g24
F0.5
tp61
a(g16
g10
F0.5
tp62
a(g16
g18
F0.5
tp63
a(g16
g24
F0.5
tp64
a(g10
g18
F0.5
tp65
a(g10
g24
F0.5
tp66
a(g18
g24
F0.5
tp67
assg3
F0.5714285714285714
sS'algo'
p68
(lp69
(lp70
g14
aa(lp71
g20
aa(lp72
g22
aa(lp73
g12
aa(lp74
g16
aa(lp75
g10
aa(lp76
g18
aa(lp77
g24
aasg2
F0.14285714285714285
ssI1
(dp78
g1
F-0.3333333333333333
sg7
(lp79
(lp80
S'known'
p81
aa(lp82
S'famous'
p83
aa(lp84
S'legendary'
p85
aasg25
(dp86
g27
g28
(g32
S'\x00\x00\x00\x00\x00\x00\xc0?'
p87
tp88
Rp89
sg38
(lp90
(g85
g81
F0.5
tp91
a(g85
g83
F0.5
tp92
a(g81
g83
F0.5
tp93
assg3
F0.3333333333333333
sg68
(lp94
(lp95
g85
aa(lp96
g81
aa(lp97
g83
aasg2
F0.3333333333333333
ssI2
(dp98
g1
F0.6666666666666666
sg7
(lp99
(lp100
S'dim'
p101
aa(lp102
S'gloomy'
p103
aa(lp104
S'dark'
p105
aa(lp106
S'black'
p107
aasg25
(dp108
g27
g28
(g32
S'\x00\x00\x00\x00\x00\x00\x90?'
p109
tp110
Rp111
sg38
(lp112
(g103
g101
F0.5
tp113
a(g103
g105
F0.5
tp114
a(g103
g107
F0.5
tp115
a(g101
g105
F0.5
tp116
a(g101
g107
F0.5
tp117
a(g105
g107
F0.5
tp118
assg3
F0.8333333333333334
sg68
(lp119
(lp120
g103
aa(lp121
g101
aa(lp122
g105
aa(lp123
g107
aasg2
F0.6666666666666666
ssI3
(dp124
g1
F-0.3333333333333333
sg7
(lp125
(lp126
S'close'
p127
aa(lp128
S'near'
p129
aa(lp130
S'intimate'
p131
aasg25
(dp132
g27
g28
(g32
S'\x00\x00\x00\x00\x00\x00\xc0?'
p133
tp134
Rp135
sg38
(lp136
(g129
g131
F0.5
tp137
a(g129
g127
F0.5
tp138
a(g131
g127
F0.5
tp139
assg3
F0.3333333333333333
sg68
(lp140
(lp141
g129
aa(lp142
g131
aa(lp143
g127
aasg2
F0.3333333333333333
ssI4
(dp144
g1
F1.0
sg7
(lp145
(lp146
S'nearby'
p147
aa(lp148
S'close'
p149
aa(lp150
S'adjacent'
p151
aasg25
(dp152
g27
g28
(g32
S'\x00\x00\x00\x00\x00\x00\xc0?'
p153
tp154
Rp155
sg38
(lp156
(g147
g149
F0.5
tp157
a(g147
g151
F0.5
tp158
a(g149
g151
F0.5
tp159
assg3
F1.0
sg68
(lp160
(lp161
g147
aa(lp162
g149
aa(lp163
g151
aasg2
F1.0
ssI5
(dp164
g1
F1.0
sg7
(lp165
(lp166
S'near'
p167
aa(lp168
S'close'
p169
aa(lp170
S'adjacent'
p171
aasg25
(dp172
g27
g28
(g32
S'\x00\x00\x00\x00\x00\x00\xc0?'
p173
tp174
Rp175
sg38
(lp176
(g167
g169
F0.5
tp177
a(g167
g171
F0.5
tp178
a(g169
g171
F0.5
tp179
assg3
F1.0
sg68
(lp180
(lp181
g167
aa(lp182
g169
aa(lp183
g171
aasg2
F1.0
ssI6
(dp184
g1
F1.0
sg7
(lp185
(lp186
S'sufficient'
p187
aa(lp188
S'good'
p189
aa(lp190
S'full'
p191
aasg25
(dp192
g27
g28
(g32
S'\x00\x00\x00\x00\x00\x00\xc0?'
p193
tp194
Rp195
sg38
(lp196
(g187
g189
F0.5
tp197
a(g187
g191
F0.5
tp198
a(g189
g191
F0.5
tp199
assg3
F1.0
sg68
(lp200
(lp201
g187
aa(lp202
g189
aa(lp203
g191
aasg2
F1.0
ssI7
(dp204
g1
F0.3333333333333333
sg7
(lp205
(lp206
S'sufficient'
p207
aa(lp208
S'wide'
p209
aa(lp210
S'full'
p211
aasg25
(dp212
g27
g28
(g32
S'\x00\x00\x00\x00\x00\x00\xc0?'
p213
tp214
Rp215
sg38
(lp216
(g209
g207
F0.5
tp217
a(g209
g211
F0.5
tp218
a(g207
g211
F0.5
tp219
assg3
F0.6666666666666666
sg68
(lp220
(lp221
g209
aa(lp222
g207
aa(lp223
g211
aasg2
F0.3333333333333333
ssI8
(dp224
g1
F0.3333333333333333
sg7
(lp225
(lp226
S'real'
p227
aa(lp228
S'solemn'
p229
aa(lp230
S'serious'
p231
aa(lp232
S'grave'
p233
aasg25
(dp234
g27
g28
(g32
S'\x00\x00\x00\x00\x00\x00\x90?'
p235
tp236
Rp237
sg38
(lp238
(g229
g231
F0.5
tp239
a(g229
g227
F0.5
tp240
a(g229
g233
F0.5
tp241
a(g231
g227
F0.5
tp242
a(g231
g233
F0.5
tp243
a(g227
g233
F0.5
tp244
assg3
F0.6666666666666666
sg68
(lp245
(lp246
g229
aa(lp247
g231
aa(lp248
g227
aa(lp249
g233
aasg2
F0.3333333333333333
ssI9
(dp250
g1
F0.3333333333333333
sg7
(lp251
(lp252
S'interesting'
p253
aa(lp254
S'intriguing'
p255
aa(lp256
S'amusing'
p257
aa(lp258
S'fascinating'
p259
aasg25
(dp260
g27
g28
(g32
S'\x00\x00\x00\x00\x00\x00\x90?'
p261
tp262
Rp263
sg38
(lp264
(g255
g253
F0.5
tp265
a(g255
g259
F0.5
tp266
a(g255
g257
F0.5
tp267
a(g253
g259
F0.5
tp268
a(g253
g257
F0.5
tp269
a(g259
g257
F0.5
tp270
assg3
F0.6666666666666666
sg68
(lp271
(lp272
g255
aa(lp273
g253
aa(lp274
g259
aa(lp275
g257
aasg2
F0.3333333333333333
ssI10
(dp276
g1
F0.3333333333333333
sg7
(lp277
(lp278
S'interesting'
p279
aa(lp280
S'intriguing'
p281
aa(lp282
S'entertaining'
p283
aa(lp284
S'exciting'
p285
aasg25
(dp286
g27
g28
(g32
S'\x00\x00\x00\x00\x00\x00\x90?'
p287
tp288
Rp289
sg38
(lp290
(g281
g279
F0.5
tp291
a(g281
g285
F0.5
tp292
a(g281
g283
F0.5
tp293
a(g279
g285
F0.5
tp294
a(g279
g283
F0.5
tp295
a(g285
g283
F0.5
tp296
assg3
F0.6666666666666666
sg68
(lp297
(lp298
g281
aa(lp299
g279
aa(lp300
g285
aa(lp301
g283
aasg2
F0.3333333333333333
ssI11
(dp302
g1
F0.3333333333333333
sg7
(lp303
(lp304
S'interesting'
p305
aa(lp306
S'intriguing'
p307
aa(lp308
S'amusing'
p309
aa(lp310
S'fascinating'
p311
aasg25
(dp312
g27
g28
(g32
S'\x00\x00\x00\x00\x00\x00\x90?'
p313
tp314
Rp315
sg38
(lp316
(g307
g305
F0.5
tp317
a(g307
g311
F0.5
tp318
a(g307
g309
F0.5
tp319
a(g305
g311
F0.5
tp320
a(g305
g309
F0.5
tp321
a(g311
g309
F0.5
tp322
assg3
F0.6666666666666666
sg68
(lp323
(lp324
g307
aa(lp325
g305
aa(lp326
g311
aa(lp327
g309
aasg2
F0.3333333333333333
ssI12
(dp328
g1
F0.3333333333333333
sg7
(lp329
(lp330
S'interesting'
p331
aa(lp332
S'intriguing'
p333
aa(lp334
S'entertaining'
p335
aa(lp336
S'exciting'
p337
aasg25
(dp338
g27
g28
(g32
S'\x00\x00\x00\x00\x00\x00\x90?'
p339
tp340
Rp341
sg38
(lp342
(g333
g331
F0.5
tp343
a(g333
g337
F0.5
tp344
a(g333
g335
F0.5
tp345
a(g331
g337
F0.5
tp346
a(g331
g335
F0.5
tp347
a(g337
g335
F0.5
tp348
assg3
F0.6666666666666666
sg68
(lp349
(lp350
g333
aa(lp351
g331
aa(lp352
g337
aa(lp353
g335
aasg2
F0.3333333333333333
ssI13
(dp354
g1
F-1.0
sg7
(lp355
(lp356
S'far'
p357
aa(lp358
S'further'
p359
aa(lp360
S'removed'
p361
aasg25
(dp362
g27
g28
(g32
S'\x00\x00\x00\x00\x00\x00\xc0?'
p363
tp364
Rp365
sg38
(lp366
(g361
g359
F0.5
tp367
a(g361
g357
F0.5
tp368
a(g359
g357
F0.5
tp369
assg3
F0.0
sg68
(lp370
(lp371
g361
aa(lp372
g359
aa(lp373
g357
aasg2
F1.0
ssI14
(dp374
g1
F-1.0
sg7
(lp375
(lp376
S'far'
p377
aa(lp378
S'farther'
p379
aa(lp380
S'removed'
p381
aasg25
(dp382
g27
g28
(g32
S'\x00\x00\x00\x00\x00\x00\xc0?'
p383
tp384
Rp385
sg38
(lp386
(g381
g379
F0.5
tp387
a(g381
g377
F0.5
tp388
a(g379
g377
F0.5
tp389
assg3
F0.0
sg68
(lp390
(lp391
g381
aa(lp392
g379
aa(lp393
g377
aasg2
F1.0
ssI15
(dp394
g1
F-1.0
sg7
(lp395
(lp396
S'acceptable'
p397
aa(lp398
S'right'
p399
aasg25
(dp400
g27
g28
(g32
S'\x00\x00\x00\x00\x00\x00\xe0?'
p401
tp402
Rp403
sg38
(lp404
(g399
g397
F0.5
tp405
assg3
F0.0
sg68
(lp406
(lp407
g399
aa(lp408
g397
aasg2
F1.0
ssI16
(dp409
g1
F-1.0
sg7
(lp410
(lp411
S'okay'
p412
aa(lp413
S'right'
p414
aasg25
(dp415
g27
g28
(g32
S'\x00\x00\x00\x00\x00\x00\xe0?'
p416
tp417
Rp418
sg38
(lp419
(g414
g412
F0.5
tp420
assg3
F0.0
sg68
(lp421
(lp422
g414
aa(lp423
g412
aasg2
F1.0
ssI17
(dp424
g1
F-1.0
sg7
(lp425
(lp426
S'alright'
p427
aa(lp428
S'right'
p429
aasg25
(dp430
g27
g28
(g32
S'\x00\x00\x00\x00\x00\x00\xe0?'
p431
tp432
Rp433
sg38
(lp434
(g429
g427
F0.5
tp435
assg3
F0.0
sg68
(lp436
(lp437
g429
aa(lp438
g427
aasg2
F1.0
ssI18
(dp439
g1
F-0.3333333333333333
sg7
(lp440
(lp441
S'cracked'
p442
aa(lp443
S'broken'
p444
aa(lp445
S'crushed'
p446
aasg25
(dp447
g27
g28
(g32
S'\x00\x00\x00\x00\x00\x00\xc0?'
p448
tp449
Rp450
sg38
(lp451
(g446
g442
F0.5
tp452
a(g446
g444
F0.5
tp453
a(g442
g444
F0.5
tp454
assg3
F0.3333333333333333
sg68
(lp455
(lp456
g446
aa(lp457
g442
aa(lp458
g444
aasg2
F0.3333333333333333
ssI19
(dp459
g1
F0.0
sg7
(lp460
(lp461
S'full'
p462
aa(lp463
S'stuffed'
p464
aa(lp465
S'overloaded'
p466
aa(lp467
S'overflowing'
p468
aasg25
(dp469
g27
g28
(g32
S'\x00\x00\x00\x00\x00\x00\x90?'
p470
tp471
Rp472
sg38
(lp473
(g464
g466
F0.5
tp474
a(g464
g468
F0.5
tp475
a(g464
g462
F0.5
tp476
a(g466
g468
F0.5
tp477
a(g466
g462
F0.5
tp478
a(g468
g462
F0.5
tp479
assg3
F0.5
sg68
(lp480
(lp481
g464
aa(lp482
g466
aa(lp483
g468
aa(lp484
g462
aasg2
F0.0
ssI20
(dp485
g1
F-0.3333333333333333
sg7
(lp486
(lp487
S'flavorful'
p488
aa(lp489
S'zesty'
p490
aa(lp491
S'hot'
p492
aasg25
(dp493
g27
g28
(g32
S'\x00\x00\x00\x00\x00\x00\xc0?'
p494
tp495
Rp496
sg38
(lp497
(g490
g492
F0.5
tp498
a(g490
g488
F0.5
tp499
a(g492
g488
F0.5
tp500
assg3
F0.3333333333333333
sg68
(lp501
(lp502
g490
aa(lp503
g492
aa(lp504
g488
aasg2
F0.3333333333333333
ssI21
(dp505
g1
F-0.3333333333333333
sg7
(lp506
(lp507
S'flavorful'
p508
aa(lp509
S'zesty'
p510
aa(lp511
S'spicy'
p512
aasg25
(dp513
g27
g28
(g32
S'\x00\x00\x00\x00\x00\x00\xc0?'
p514
tp515
Rp516
sg38
(lp517
(g510
g512
F0.5
tp518
a(g510
g508
F0.5
tp519
a(g512
g508
F0.5
tp520
assg3
F0.3333333333333333
sg68
(lp521
(lp522
g510
aa(lp523
g512
aa(lp524
g508
aasg2
F0.3333333333333333
ssI22
(dp525
g1
F0.3333333333333333
sg7
(lp526
(lp527
S'unstable'
p528
aa(lp529
S'crazy'
p530
aa(lp531
S'insane'
p532
aasg25
(dp533
g27
g28
(g32
S'\x00\x00\x00\x00\x00\x00\xc0?'
p534
tp535
Rp536
sg38
(lp537
(g528
g532
F0.5
tp538
a(g528
g530
F0.5
tp539
a(g532
g530
F0.5
tp540
assg3
F0.6666666666666666
sg68
(lp541
(lp542
g528
aa(lp543
g532
aa(lp544
g530
aasg2
F0.3333333333333333
ssI23
(dp545
g1
F0.3333333333333333
sg7
(lp546
(lp547
S'good'
p548
aa(lp549
S'real'
p550
aa(lp551
S'authentic'
p552
aasg25
(dp553
g27
g28
(g32
S'\x00\x00\x00\x00\x00\x00\xc0?'
p554
tp555
Rp556
sg38
(lp557
(g550
g548
F0.5
tp558
a(g550
g552
F0.5
tp559
a(g548
g552
F0.5
tp560
assg3
F0.6666666666666666
sg68
(lp561
(lp562
g550
aa(lp563
g548
aa(lp564
g552
aasg2
F0.3333333333333333
ssI24
(dp565
g1
F-1.0
sg7
(lp566
(lp567
S'clean'
p568
aa(lp569
S'spotless'
p570
aasg25
(dp571
g27
g28
(g32
S'\x00\x00\x00\x00\x00\x00\xe0?'
p572
tp573
Rp574
sg38
(lp575
(g570
g568
F0.5
tp576
assg3
F0.0
sg68
(lp577
(lp578
g570
aa(lp579
g568
aasg2
F1.0
ssI25
(dp580
g1
F-1.0
sg7
(lp581
(lp582
S'clean'
p583
aa(lp584
S'immaculate'
p585
aasg25
(dp586
g27
g28
(g32
S'\x00\x00\x00\x00\x00\x00\xe0?'
p587
tp588
Rp589
sg38
(lp590
(g585
g583
F0.5
tp591
assg3
F0.0
sg68
(lp592
(lp593
g585
aa(lp594
g583
aasg2
F1.0
ssI26
(dp595
g1
F0.0
sg7
(lp596
(lp597
S'possible'
p598
aa(lp599
S'realistic'
p600
aa(lp601
S'feasible'
p602
aa(lp603
S'practical'
p604
aasg25
(dp605
g27
g28
(g32
S'\x00\x00\x00\x00\x00\x00\x90?'
p606
tp607
Rp608
sg38
(lp609
(g600
g604
F0.5
tp610
a(g600
g598
F0.5
tp611
a(g600
g602
F0.5
tp612
a(g604
g598
F0.5
tp613
a(g604
g602
F0.5
tp614
a(g598
g602
F0.5
tp615
assg3
F0.5
sg68
(lp616
(lp617
g600
aa(lp618
g604
aa(lp619
g598
aa(lp620
g602
aasg2
F0.0
ssI27
(dp621
g1
F1.0
sg7
(lp622
(lp623
S'sick'
p624
aa(lp625
S'impaired'
p626
aa(lp627
S'disabled'
p628
aasg25
(dp629
g27
g28
(g32
S'\x00\x00\x00\x00\x00\x00\xc0?'
p630
tp631
Rp632
sg38
(lp633
(g624
g626
F0.5
tp634
a(g624
g628
F0.5
tp635
a(g626
g628
F0.5
tp636
assg3
F1.0
sg68
(lp637
(lp638
g624
aa(lp639
g626
aa(lp640
g628
aasg2
F1.0
ssI28
(dp641
g1
F0.3333333333333333
sg7
(lp642
(lp643
S'ill'
p644
aa(lp645
S'impaired'
p646
aa(lp647
S'disabled'
p648
aasg25
(dp649
g27
g28
(g32
S'\x00\x00\x00\x00\x00\x00\xc0?'
p650
tp651
Rp652
sg38
(lp653
(g646
g644
F0.5
tp654
a(g646
g648
F0.5
tp655
a(g644
g648
F0.5
tp656
assg3
F0.6666666666666666
sg68
(lp657
(lp658
g646
aa(lp659
g644
aa(lp660
g648
aasg2
F0.3333333333333333
ssI29
(dp661
g1
F0.8
sg7
(lp662
(lp663
S'uncommon'
p664
aa(lp665
S'unusual'
p666
aa(lp667
S'rare'
p668
aa(lp669
S'extraordinary'
p670
aa(lp671
S'exceptional'
p672
aasg25
(dp673
g27
g28
(g32
S'\x00\x00\x00\x00\x00\x00P?'
p674
tp675
Rp676
sg38
(lp677
(g666
g664
F0.5
tp678
a(g666
g668
F0.5
tp679
a(g666
g670
F0.5
tp680
a(g666
g672
F0.5
tp681
a(g664
g668
F0.5
tp682
a(g664
g670
F0.5
tp683
a(g664
g672
F0.5
tp684
a(g668
g670
F0.5
tp685
a(g668
g672
F0.5
tp686
a(g670
g672
F0.5
tp687
assg3
F0.9
sg68
(lp688
(lp689
g666
aa(lp690
g664
aa(lp691
g668
aa(lp692
g670
aa(lp693
g672
aasg2
F0.8
ssI30
(dp694
g1
F0.3333333333333333
sg7
(lp695
(lp696
S'impractical'
p697
aa(lp698
S'unrealistic'
p699
aa(lp700
S'impossible'
p701
aasg25
(dp702
g27
g28
(g32
S'\x00\x00\x00\x00\x00\x00\xc0?'
p703
tp704
Rp705
sg38
(lp706
(g699
g697
F0.5
tp707
a(g699
g701
F0.5
tp708
a(g697
g701
F0.5
tp709
assg3
F0.6666666666666666
sg68
(lp710
(lp711
g699
aa(lp712
g697
aa(lp713
g701
aasg2
F0.3333333333333333
ssI31
(dp714
g1
F1.0
sg7
(lp715
(lp716
S'transnational'
p717
aa(lp718
S'international'
p719
aa(lp720
S'global'
p721
aasg25
(dp722
g27
g28
(g32
S'\x00\x00\x00\x00\x00\x00\xc0?'
p723
tp724
Rp725
sg38
(lp726
(g717
g719
F0.5
tp727
a(g717
g721
F0.5
tp728
a(g719
g721
F0.5
tp729
assg3
F1.0
sg68
(lp730
(lp731
g717
aa(lp732
g719
aa(lp733
g721
aasg2
F1.0
ssI32
(dp734
g1
F-0.3333333333333333
sg7
(lp735
(lp736
S'concerned'
p737
aa(lp738
S'preoccupied'
p739
aa(lp740
S'obsessed'
p741
aasg25
(dp742
g27
g28
(g32
S'\x00\x00\x00\x00\x00\x00\xc0?'
p743
tp744
Rp745
sg38
(lp746
(g739
g741
F0.5
tp747
a(g739
g737
F0.5
tp748
a(g741
g737
F0.5
tp749
assg3
F0.3333333333333333
sg68
(lp750
(lp751
g739
aa(lp752
g741
aa(lp753
g737
aasg2
F0.3333333333333333
ssI33
(dp754
g1
F-0.3333333333333333
sg7
(lp755
(lp756
S'interesting'
p757
aa(lp758
S'moving'
p759
aa(lp760
S'exciting'
p761
aa(lp762
S'thrilling'
p763
aasg25
(dp764
g27
g28
(g32
S'\x00\x00\x00\x00\x00\x00\x90?'
p765
tp766
Rp767
sg38
(lp768
(g763
g759
F0.5
tp769
a(g763
g757
F0.5
tp770
a(g763
g761
F0.5
tp771
a(g759
g757
F0.5
tp772
a(g759
g761
F0.5
tp773
a(g757
g761
F0.5
tp774
assg3
F0.3333333333333333
sg68
(lp775
(lp776
g763
aa(lp777
g759
aa(lp778
g757
aa(lp779
g761
aasg2
F0.3333333333333333
ssI34
(dp780
g1
F-0.3333333333333333
sg7
(lp781
(lp782
S'low'
p783
aa(lp784
S'subdued'
p785
aa(lp786
S'quiet'
p787
aasg25
(dp788
g27
g28
(g32
S'\x00\x00\x00\x00\x00\x00\xc0?'
p789
tp790
Rp791
sg38
(lp792
(g785
g787
F0.5
tp793
a(g785
g783
F0.5
tp794
a(g787
g783
F0.5
tp795
assg3
F0.3333333333333333
sg68
(lp796
(lp797
g785
aa(lp798
g787
aa(lp799
g783
aasg2
F0.3333333333333333
ssI35
(dp800
g1
F-0.3333333333333333
sg7
(lp801
(lp802
S'sweet'
p803
aa(lp804
S'sugary'
p805
aa(lp806
S'syrupy'
p807
aasg25
(dp808
g27
g28
(g32
S'\x00\x00\x00\x00\x00\x00\xc0?'
p809
tp810
Rp811
sg38
(lp812
(g807
g803
F0.5
tp813
a(g807
g805
F0.5
tp814
a(g803
g805
F0.5
tp815
assg3
F0.3333333333333333
sg68
(lp816
(lp817
g807
aa(lp818
g803
aa(lp819
g805
aasg2
F0.3333333333333333
ssI36
(dp820
g1
F-0.4
sg7
(lp821
(lp822
S'strong'
p823
aa(lp824
S'intense'
p825
aa(lp826
S'terrible'
p827
aa(lp828
S'overwhelming'
p829
aa(lp830
S'violent'
p831
aasg25
(dp832
g27
g28
(g32
S'\x00\x00\x00\x00\x00\x00P?'
p833
tp834
Rp835
sg38
(lp836
(g831
g827
F0.5
tp837
a(g831
g823
F0.5
tp838
a(g831
g829
F0.5
tp839
a(g831
g825
F0.5
tp840
a(g827
g823
F0.5
tp841
a(g827
g829
F0.5
tp842
a(g827
g825
F0.5
tp843
a(g823
g829
F0.5
tp844
a(g823
g825
F0.5
tp845
a(g829
g825
F0.5
tp846
assg3
F0.3
sg68
(lp847
(lp848
g831
aa(lp849
g827
aa(lp850
g823
aa(lp851
g829
aa(lp852
g825
aasg2
F0.4
ssI37
(dp853
g1
F-1.0
sg7
(lp854
(lp855
S'bleak'
p856
aa(lp857
S'hopeless'
p858
aasg25
(dp859
g27
g28
(g32
S'\x00\x00\x00\x00\x00\x00\xe0?'
p860
tp861
Rp862
sg38
(lp863
(g858
g856
F0.5
tp864
assg3
F0.0
sg68
(lp865
(lp866
g858
aa(lp867
g856
aasg2
F1.0
ssI38
(dp868
g1
F-1.0
sg7
(lp869
(lp870
S'desperate'
p871
aa(lp872
S'hopeless'
p873
aasg25
(dp874
g27
g28
(g32
S'\x00\x00\x00\x00\x00\x00\xe0?'
p875
tp876
Rp877
sg38
(lp878
(g873
g871
F0.5
tp879
assg3
F0.0
sg68
(lp880
(lp881
g873
aa(lp882
g871
aasg2
F1.0
ssI39
(dp883
g1
F0.3333333333333333
sg7
(lp884
(lp885
S'unfortunate'
p886
aa(lp887
S'disastrous'
p888
aa(lp889
S'fatal'
p890
aasg25
(dp891
g27
g28
(g32
S'\x00\x00\x00\x00\x00\x00\xc0?'
p892
tp893
Rp894
sg38
(lp895
(g886
g890
F0.5
tp896
a(g886
g888
F0.5
tp897
a(g890
g888
F0.5
tp898
assg3
F0.6666666666666666
sg68
(lp899
(lp900
g886
aa(lp901
g890
aa(lp902
g888
aasg2
F0.3333333333333333
ssI40
(dp903
g1
F-0.3333333333333333
sg7
(lp904
(lp905
S'negligent'
p906
aa(lp907
S'careless'
p908
aa(lp909
S'reckless'
p910
aasg25
(dp911
g27
g28
(g32
S'\x00\x00\x00\x00\x00\x00\xc0?'
p912
tp913
Rp914
sg38
(lp915
(g910
g906
F0.5
tp916
a(g910
g908
F0.5
tp917
a(g906
g908
F0.5
tp918
assg3
F0.3333333333333333
sg68
(lp919
(lp920
g910
aa(lp921
g906
aa(lp922
g908
aasg2
F0.3333333333333333
ssI41
(dp923
g1
F0.0
sg7
(lp924
(lp925
S'strange'
p926
aa(lp927
S'unusual'
p928
aa(lp929
S'weird'
p930
aa(lp931
S'eerie'
p932
aasg25
(dp933
g27
g28
(g32
S'\x00\x00\x00\x00\x00\x00\x90?'
p934
tp935
Rp936
sg38
(lp937
(g930
g928
F0.5
tp938
a(g930
g926
F0.5
tp939
a(g930
g932
F0.5
tp940
a(g928
g926
F0.5
tp941
a(g928
g932
F0.5
tp942
a(g926
g932
F0.5
tp943
assg3
F0.5
sg68
(lp944
(lp945
g930
aa(lp946
g928
aa(lp947
g926
aa(lp948
g932
aasg2
F0.0
ssI42
(dp949
g1
F0.0
sg7
(lp950
(lp951
S'funny'
p952
aa(lp953
S'unusual'
p954
aa(lp955
S'weird'
p956
aa(lp957
S'eerie'
p958
aasg25
(dp959
g27
g28
(g32
S'\x00\x00\x00\x00\x00\x00\x90?'
p960
tp961
Rp962
sg38
(lp963
(g956
g954
F0.5
tp964
a(g956
g952
F0.5
tp965
a(g956
g958
F0.5
tp966
a(g954
g952
F0.5
tp967
a(g954
g958
F0.5
tp968
a(g952
g958
F0.5
tp969
assg3
F0.5
sg68
(lp970
(lp971
g956
aa(lp972
g954
aa(lp973
g952
aa(lp974
g958
aasg2
F0.0
ssI43
(dp975
g1
F-0.3333333333333333
sg7
(lp976
(lp977
S'reasonable'
p978
aa(lp979
S'valid'
p980
aa(lp981
S'sound'
p982
aasg25
(dp983
g27
g28
(g32
S'\x00\x00\x00\x00\x00\x00\xc0?'
p984
tp985
Rp986
sg38
(lp987
(g980
g982
F0.5
tp988
a(g980
g978
F0.5
tp989
a(g982
g978
F0.5
tp990
assg3
F0.3333333333333333
sg68
(lp991
(lp992
g980
aa(lp993
g982
aa(lp994
g978
aasg2
F0.3333333333333333
ssI44
(dp995
g1
F-0.3333333333333333
sg7
(lp996
(lp997
S'affordable'
p998
aa(lp999
S'inexpensive'
p1000
aa(lp1001
S'cheap'
p1002
aasg25
(dp1003
g27
g28
(g32
S'\x00\x00\x00\x00\x00\x00\xc0?'
p1004
tp1005
Rp1006
sg38
(lp1007
(g1000
g1002
F0.5
tp1008
a(g1000
g998
F0.5
tp1009
a(g1002
g998
F0.5
tp1010
assg3
F0.3333333333333333
sg68
(lp1011
(lp1012
g1000
aa(lp1013
g1002
aa(lp1014
g998
aasg2
F0.3333333333333333
ssI45
(dp1015
g1
F-0.3333333333333333
sg7
(lp1016
(lp1017
S'available'
p1018
aa(lp1019
S'accessible'
p1020
aa(lp1021
S'visible'
p1022
aasg25
(dp1023
g27
g28
(g32
S'\x00\x00\x00\x00\x00\x00\xc0?'
p1024
tp1025
Rp1026
sg38
(lp1027
(g1022
g1018
F0.5
tp1028
a(g1022
g1020
F0.5
tp1029
a(g1018
g1020
F0.5
tp1030
assg3
F0.3333333333333333
sg68
(lp1031
(lp1032
g1022
aa(lp1033
g1018
aa(lp1034
g1020
aasg2
F0.3333333333333333
ssI46
(dp1035
g1
F-0.6666666666666666
sg7
(lp1036
(lp1037
S'cool'
p1038
aa(lp1039
S'cold'
p1040
aa(lp1041
S'frigid'
p1042
aa(lp1043
S'icy'
p1044
aasg25
(dp1045
g27
g28
(g32
S'\x00\x00\x00\x00\x00\x00\x90?'
p1046
tp1047
Rp1048
sg38
(lp1049
(g1044
g1042
F0.5
tp1050
a(g1044
g1038
F0.5
tp1051
a(g1044
g1040
F0.5
tp1052
a(g1042
g1038
F0.5
tp1053
a(g1042
g1040
F0.5
tp1054
a(g1038
g1040
F0.5
tp1055
assg3
F0.16666666666666666
sg68
(lp1056
(lp1057
g1044
aa(lp1058
g1042
aa(lp1059
g1038
aa(lp1060
g1040
aasg2
F0.6666666666666666
ssI47
(dp1061
g1
F0.0
sg7
(lp1062
(lp1063
S'refrigerated'
p1064
aa(lp1065
S'cold'
p1066
aa(lp1067
S'frigid'
p1068
aa(lp1069
S'frozen'
p1070
aasg25
(dp1071
g27
g28
(g32
S'\x00\x00\x00\x00\x00\x00\x90?'
p1072
tp1073
Rp1074
sg38
(lp1075
(g1064
g1070
F0.5
tp1076
a(g1064
g1068
F0.5
tp1077
a(g1064
g1066
F0.5
tp1078
a(g1070
g1068
F0.5
tp1079
a(g1070
g1066
F0.5
tp1080
a(g1068
g1066
F0.5
tp1081
assg3
F0.5
sg68
(lp1082
(lp1083
g1064
aa(lp1084
g1070
aa(lp1085
g1068
aa(lp1086
g1066
aasg2
F0.0
ssI48
(dp1087
g1
F-1.0
sg7
(lp1088
(lp1089
S'chilly'
p1090
aa(lp1091
S'cold'
p1092
aa(lp1093
S'frigid'
p1094
aa(lp1095
S'icy'
p1096
aasg25
(dp1097
g27
g28
(g32
S'\x00\x00\x00\x00\x00\x00\x90?'
p1098
tp1099
Rp1100
sg38
(lp1101
(g1096
g1094
F0.5
tp1102
a(g1096
g1092
F0.5
tp1103
a(g1096
g1090
F0.5
tp1104
a(g1094
g1092
F0.5
tp1105
a(g1094
g1090
F0.5
tp1106
a(g1092
g1090
F0.5
tp1107
assg3
F0.0
sg68
(lp1108
(lp1109
g1096
aa(lp1110
g1094
aa(lp1111
g1092
aa(lp1112
g1090
aasg2
F1.0
ssI49
(dp1113
g1
F-0.6666666666666666
sg7
(lp1114
(lp1115
S'cool'
p1116
aa(lp1117
S'cold'
p1118
aa(lp1119
S'frigid'
p1120
aa(lp1121
S'frozen'
p1122
aasg25
(dp1123
g27
g28
(g32
S'\x00\x00\x00\x00\x00\x00\x90?'
p1124
tp1125
Rp1126
sg38
(lp1127
(g1122
g1120
F0.5
tp1128
a(g1122
g1116
F0.5
tp1129
a(g1122
g1118
F0.5
tp1130
a(g1120
g1116
F0.5
tp1131
a(g1120
g1118
F0.5
tp1132
a(g1116
g1118
F0.5
tp1133
assg3
F0.16666666666666666
sg68
(lp1134
(lp1135
g1122
aa(lp1136
g1120
aa(lp1137
g1116
aa(lp1138
g1118
aasg2
F0.6666666666666666
ssI50
(dp1139
g1
F0.0
sg7
(lp1140
(lp1141
S'refrigerated'
p1142
aa(lp1143
S'cold'
p1144
aa(lp1145
S'frigid'
p1146
aa(lp1147
S'icy'
p1148
aasg25
(dp1149
g27
g28
(g32
S'\x00\x00\x00\x00\x00\x00\x90?'
p1150
tp1151
Rp1152
sg38
(lp1153
(g1142
g1148
F0.5
tp1154
a(g1142
g1146
F0.5
tp1155
a(g1142
g1144
F0.5
tp1156
a(g1148
g1146
F0.5
tp1157
a(g1148
g1144
F0.5
tp1158
a(g1146
g1144
F0.5
tp1159
assg3
F0.5
sg68
(lp1160
(lp1161
g1142
aa(lp1162
g1148
aa(lp1163
g1146
aa(lp1164
g1144
aasg2
F0.0
ssI51
(dp1165
g1
F-1.0
sg7
(lp1166
(lp1167
S'chilly'
p1168
aa(lp1169
S'cold'
p1170
aa(lp1171
S'frigid'
p1172
aa(lp1173
S'frozen'
p1174
aasg25
(dp1175
g27
g28
(g32
S'\x00\x00\x00\x00\x00\x00\x90?'
p1176
tp1177
Rp1178
sg38
(lp1179
(g1174
g1172
F0.5
tp1180
a(g1174
g1170
F0.5
tp1181
a(g1174
g1168
F0.5
tp1182
a(g1172
g1170
F0.5
tp1183
a(g1172
g1168
F0.5
tp1184
a(g1170
g1168
F0.5
tp1185
assg3
F0.0
sg68
(lp1186
(lp1187
g1174
aa(lp1188
g1172
aa(lp1189
g1170
aa(lp1190
g1168
aasg2
F1.0
ssI52
(dp1191
g1
F-1.0
sg7
(lp1192
(lp1193
S'content'
p1194
aa(lp1195
S'pleased'
p1196
aasg25
(dp1197
g27
g28
(g32
S'\x00\x00\x00\x00\x00\x00\xe0?'
p1198
tp1199
Rp1200
sg38
(lp1201
(g1196
g1194
F0.5
tp1202
assg3
F0.0
sg68
(lp1203
(lp1204
g1196
aa(lp1205
g1194
aasg2
F1.0
ssI53
(dp1206
g1
F1.0
sg7
(lp1207
(lp1208
S'satisfied'
p1209
aa(lp1210
S'happy'
p1211
aasg25
(dp1212
g27
g28
(g32
S'\x00\x00\x00\x00\x00\x00\xe0?'
p1213
tp1214
Rp1215
sg38
(lp1216
(g1209
g1211
F0.5
tp1217
assg3
F1.0
sg68
(lp1218
(lp1219
g1209
aa(lp1220
g1211
aasg2
F1.0
ssI54
(dp1221
g1
F-1.0
sg7
(lp1222
(lp1223
S'content'
p1224
aa(lp1225
S'pleased'
p1226
aasg25
(dp1227
g27
g28
(g32
S'\x00\x00\x00\x00\x00\x00\xe0?'
p1228
tp1229
Rp1230
sg38
(lp1231
(g1226
g1224
F0.5
tp1232
assg3
F0.0
sg68
(lp1233
(lp1234
g1226
aa(lp1235
g1224
aasg2
F1.0
ssI55
(dp1236
g1
F1.0
sg7
(lp1237
(lp1238
S'satisfied'
p1239
aa(lp1240
S'happy'
p1241
aasg25
(dp1242
g27
g28
(g32
S'\x00\x00\x00\x00\x00\x00\xe0?'
p1243
tp1244
Rp1245
sg38
(lp1246
(g1239
g1241
F0.5
tp1247
assg3
F1.0
sg68
(lp1248
(lp1249
g1239
aa(lp1250
g1241
aasg2
F1.0
ssI56
(dp1251
g1
F0.3333333333333333
sg7
(lp1252
(lp1253
S'misleading'
p1254
aa(lp1255
S'deceptive'
p1256
aa(lp1257
S'false'
p1258
aasg25
(dp1259
g27
g28
(g32
S'\x00\x00\x00\x00\x00\x00\xc0?'
p1260
tp1261
Rp1262
sg38
(lp1263
(g1254
g1258
F0.5
tp1264
a(g1254
g1256
F0.5
tp1265
a(g1258
g1256
F0.5
tp1266
assg3
F0.6666666666666666
sg68
(lp1267
(lp1268
g1254
aa(lp1269
g1258
aa(lp1270
g1256
aasg2
F0.3333333333333333
ssI57
(dp1271
g1
F1.0
sg7
(lp1272
(lp1273
S'misleading'
p1274
aa(lp1275
S'fraudulent'
p1276
aa(lp1277
S'false'
p1278
aasg25
(dp1279
g27
g28
(g32
S'\x00\x00\x00\x00\x00\x00\xc0?'
p1280
tp1281
Rp1282
sg38
(lp1283
(g1274
g1276
F0.5
tp1284
a(g1274
g1278
F0.5
tp1285
a(g1276
g1278
F0.5
tp1286
assg3
F1.0
sg68
(lp1287
(lp1288
g1274
aa(lp1289
g1276
aa(lp1290
g1278
aasg2
F1.0
ssI58
(dp1291
g1
F0.3333333333333333
sg7
(lp1292
(lp1293
S'needed'
p1294
aa(lp1295
S'necessary'
p1296
aa(lp1297
S'required'
p1298
aa(lp1299
S'indispensable'
p1300
aasg25
(dp1301
g27
g28
(g32
S'\x00\x00\x00\x00\x00\x00\x90?'
p1302
tp1303
Rp1304
sg38
(lp1305
(g1298
g1294
F0.5
tp1306
a(g1298
g1296
F0.5
tp1307
a(g1298
g1300
F0.5
tp1308
a(g1294
g1296
F0.5
tp1309
a(g1294
g1300
F0.5
tp1310
a(g1296
g1300
F0.5
tp1311
assg3
F0.6666666666666666
sg68
(lp1312
(lp1313
g1298
aa(lp1314
g1294
aa(lp1315
g1296
aa(lp1316
g1300
aasg2
F0.3333333333333333
ssI59
(dp1317
g1
F0.6666666666666666
sg7
(lp1318
(lp1319
S'needed'
p1320
aa(lp1321
S'necessary'
p1322
aa(lp1323
S'essential'
p1324
aa(lp1325
S'indispensable'
p1326
aasg25
(dp1327
g27
g28
(g32
S'\x00\x00\x00\x00\x00\x00\x90?'
p1328
tp1329
Rp1330
sg38
(lp1331
(g1320
g1322
F0.5
tp1332
a(g1320
g1326
F0.5
tp1333
a(g1320
g1324
F0.5
tp1334
a(g1322
g1326
F0.5
tp1335
a(g1322
g1324
F0.5
tp1336
a(g1326
g1324
F0.5
tp1337
assg3
F0.8333333333333334
sg68
(lp1338
(lp1339
g1320
aa(lp1340
g1322
aa(lp1341
g1326
aa(lp1342
g1324
aasg2
F0.6666666666666666
ssI60
(dp1343
g1
F0.6666666666666666
sg7
(lp1344
(lp1345
S'some'
p1346
aa(lp1347
S'many'
p1348
aa(lp1349
S'numerous'
p1350
aa(lp1351
S'galore'
p1352
aasg25
(dp1353
g27
g28
(g32
S'\x00\x00\x00\x00\x00\x00\x90?'
p1354
tp1355
Rp1356
sg38
(lp1357
(g1346
g1350
F0.5
tp1358
a(g1346
g1348
F0.5
tp1359
a(g1346
g1352
F0.5
tp1360
a(g1350
g1348
F0.5
tp1361
a(g1350
g1352
F0.5
tp1362
a(g1348
g1352
F0.5
tp1363
assg3
F0.8333333333333334
sg68
(lp1364
(lp1365
g1346
aa(lp1366
g1350
aa(lp1367
g1348
aa(lp1368
g1352
aasg2
F0.6666666666666666
ssI61
(dp1369
g1
F-0.3333333333333333
sg7
(lp1370
(lp1371
S'quiet'
p1372
aa(lp1373
S'inaudible'
p1374
aa(lp1375
S'silent'
p1376
aasg25
(dp1377
g27
g28
(g32
S'\x00\x00\x00\x00\x00\x00\xc0?'
p1378
tp1379
Rp1380
sg38
(lp1381
(g1376
g1372
F0.5
tp1382
a(g1376
g1374
F0.5
tp1383
a(g1372
g1374
F0.5
tp1384
assg3
F0.3333333333333333
sg68
(lp1385
(lp1386
g1376
aa(lp1387
g1372
aa(lp1388
g1374
aasg2
F0.3333333333333333
ssI62
(dp1389
g1
F-0.3333333333333333
sg7
(lp1390
(lp1391
S'quiet'
p1392
aa(lp1393
S'imperceptible'
p1394
aa(lp1395
S'silent'
p1396
aasg25
(dp1397
g27
g28
(g32
S'\x00\x00\x00\x00\x00\x00\xc0?'
p1398
tp1399
Rp1400
sg38
(lp1401
(g1396
g1392
F0.5
tp1402
a(g1396
g1394
F0.5
tp1403
a(g1392
g1394
F0.5
tp1404
assg3
F0.3333333333333333
sg68
(lp1405
(lp1406
g1396
aa(lp1407
g1392
aa(lp1408
g1394
aasg2
F0.3333333333333333
ssI63
(dp1409
g1
F0.6666666666666666
sg7
(lp1410
(lp1411
S'wrong'
p1412
aa(lp1413
S'immoral'
p1414
aa(lp1415
S'sinful'
p1416
aa(lp1417
S'evil'
p1418
aasg25
(dp1419
g27
g28
(g32
S'\x00\x00\x00\x00\x00\x00\x90?'
p1420
tp1421
Rp1422
sg38
(lp1423
(g1412
g1416
F0.5
tp1424
a(g1412
g1414
F0.5
tp1425
a(g1412
g1418
F0.5
tp1426
a(g1416
g1414
F0.5
tp1427
a(g1416
g1418
F0.5
tp1428
a(g1414
g1418
F0.5
tp1429
assg3
F0.8333333333333334
sg68
(lp1430
(lp1431
g1412
aa(lp1432
g1416
aa(lp1433
g1414
aa(lp1434
g1418
aasg2
F0.6666666666666666
ssI64
(dp1435
g1
F0.3333333333333333
sg7
(lp1436
(lp1437
S'lean'
p1438
aa(lp1439
S'slim'
p1440
aa(lp1441
S'thin'
p1442
aa(lp1443
S'skinny'
p1444
aa(lp1445
S'gaunt'
p1446
aa(lp1447
S'emaciated'
p1448
aa(lp1449
S'skeletal'
p1450
aasg25
(dp1451
g27
g28
(g32
S'\x00\x00\x00\x00\x00\x00\xa0>'
p1452
tp1453
Rp1454
sg38
(lp1455
(g1442
g1440
F0.5
tp1456
a(g1442
g1444
F0.5
tp1457
a(g1442
g1450
F0.5
tp1458
a(g1442
g1438
F0.5
tp1459
a(g1442
g1446
F0.5
tp1460
a(g1442
g1448
F0.5
tp1461
a(g1440
g1444
F0.5
tp1462
a(g1440
g1450
F0.5
tp1463
a(g1440
g1438
F0.5
tp1464
a(g1440
g1446
F0.5
tp1465
a(g1440
g1448
F0.5
tp1466
a(g1444
g1450
F0.5
tp1467
a(g1444
g1438
F0.5
tp1468
a(g1444
g1446
F0.5
tp1469
a(g1444
g1448
F0.5
tp1470
a(g1450
g1438
F0.5
tp1471
a(g1450
g1446
F0.5
tp1472
a(g1450
g1448
F0.5
tp1473
a(g1438
g1446
F0.5
tp1474
a(g1438
g1448
F0.5
tp1475
a(g1446
g1448
F0.5
tp1476
assg3
F0.6666666666666666
sg68
(lp1477
(lp1478
g1442
aa(lp1479
g1440
aa(lp1480
g1444
aa(lp1481
g1450
aa(lp1482
g1438
aa(lp1483
g1446
aa(lp1484
g1448
aasg2
F0.3333333333333333
ssI65
(dp1485
g1
F-0.3333333333333333
sg7
(lp1486
(lp1487
S'statewide'
p1488
aa(lp1489
S'nationwide'
p1490
aa(lp1491
S'worldwide'
p1492
aasg25
(dp1493
g27
g28
(g32
S'\x00\x00\x00\x00\x00\x00\xc0?'
p1494
tp1495
Rp1496
sg38
(lp1497
(g1492
g1488
F0.5
tp1498
a(g1492
g1490
F0.5
tp1499
a(g1488
g1490
F0.5
tp1500
assg3
F0.3333333333333333
sg68
(lp1501
(lp1502
g1492
aa(lp1503
g1488
aa(lp1504
g1490
aasg2
F0.3333333333333333
ssI66
(dp1505
g1
F0.0
sg7
(lp1506
(lp1507
S'warm'
p1508
aa(lp1509
S'hot'
p1510
aa(lp1511
S'overheated'
p1512
aa(lp1513
S'stifling'
p1514
aasg25
(dp1515
g27
g28
(g32
S'\x00\x00\x00\x00\x00\x00\x90?'
p1516
tp1517
Rp1518
sg38
(lp1519
(g1508
g1514
F0.5
tp1520
a(g1508
g1512
F0.5
tp1521
a(g1508
g1510
F0.5
tp1522
a(g1514
g1512
F0.5
tp1523
a(g1514
g1510
F0.5
tp1524
a(g1512
g1510
F0.5
tp1525
assg3
F0.5
sg68
(lp1526
(lp1527
g1508
aa(lp1528
g1514
aa(lp1529
g1512
aa(lp1530
g1510
aasg2
F0.0
ssI67
(dp1531
g1
F0.0
sg7
(lp1532
(lp1533
S'warm'
p1534
aa(lp1535
S'hot'
p1536
aa(lp1537
S'overheated'
p1538
aa(lp1539
S'sultry'
p1540
aasg25
(dp1541
g27
g28
(g32
S'\x00\x00\x00\x00\x00\x00\x90?'
p1542
tp1543
Rp1544
sg38
(lp1545
(g1534
g1540
F0.5
tp1546
a(g1534
g1538
F0.5
tp1547
a(g1534
g1536
F0.5
tp1548
a(g1540
g1538
F0.5
tp1549
a(g1540
g1536
F0.5
tp1550
a(g1538
g1536
F0.5
tp1551
assg3
F0.5
sg68
(lp1552
(lp1553
g1534
aa(lp1554
g1540
aa(lp1555
g1538
aa(lp1556
g1536
aasg2
F0.0
ssI68
(dp1557
g1
F-0.3333333333333333
sg7
(lp1558
(lp1559
S'easy'
p1560
aa(lp1561
S'painless'
p1562
aa(lp1563
S'effortless'
p1564
aasg25
(dp1565
g27
g28
(g32
S'\x00\x00\x00\x00\x00\x00\xc0?'
p1566
tp1567
Rp1568
sg38
(lp1569
(g1562
g1564
F0.5
tp1570
a(g1562
g1560
F0.5
tp1571
a(g1564
g1560
F0.5
tp1572
assg3
F0.3333333333333333
sg68
(lp1573
(lp1574
g1562
aa(lp1575
g1564
aa(lp1576
g1560
aasg2
F0.3333333333333333
ssI69
(dp1577
g1
F1.0
sg7
(lp1578
(lp1579
S'simple'
p1580
aa(lp1581
S'painless'
p1582
aa(lp1583
S'effortless'
p1584
aasg25
(dp1585
g27
g28
(g32
S'\x00\x00\x00\x00\x00\x00\xc0?'
p1586
tp1587
Rp1588
sg38
(lp1589
(g1580
g1582
F0.5
tp1590
a(g1580
g1584
F0.5
tp1591
a(g1582
g1584
F0.5
tp1592
assg3
F1.0
sg68
(lp1593
(lp1594
g1580
aa(lp1595
g1582
aa(lp1596
g1584
aasg2
F1.0
ssI70
(dp1597
g1
F1.0
sg7
(lp1598
(lp1599
S'smooth'
p1600
aa(lp1601
S'painless'
p1602
aa(lp1603
S'effortless'
p1604
aasg25
(dp1605
g27
g28
(g32
S'\x00\x00\x00\x00\x00\x00\xc0?'
p1606
tp1607
Rp1608
sg38
(lp1609
(g1600
g1602
F0.5
tp1610
a(g1600
g1604
F0.5
tp1611
a(g1602
g1604
F0.5
tp1612
assg3
F1.0
sg68
(lp1613
(lp1614
g1600
aa(lp1615
g1602
aa(lp1616
g1604
aasg2
F1.0
ssI71
(dp1617
g1
F-0.3333333333333333
sg7
(lp1618
(lp1619
S'plain'
p1620
aa(lp1621
S'unattractive'
p1622
aa(lp1623
S'ugly'
p1624
aasg25
(dp1625
g27
g28
(g32
S'\x00\x00\x00\x00\x00\x00\xc0?'
p1626
tp1627
Rp1628
sg38
(lp1629
(g1622
g1624
F0.5
tp1630
a(g1622
g1620
F0.5
tp1631
a(g1624
g1620
F0.5
tp1632
assg3
F0.3333333333333333
sg68
(lp1633
(lp1634
g1622
aa(lp1635
g1624
aa(lp1636
g1620
aasg2
F0.3333333333333333
ssI72
(dp1637
g1
F-0.3333333333333333
sg7
(lp1638
(lp1639
S'like'
p1640
aa(lp1641
S'equal'
p1642
aa(lp1643
S'same'
p1644
aasg25
(dp1645
g27
g28
(g32
S'\x00\x00\x00\x00\x00\x00\xc0?'
p1646
tp1647
Rp1648
sg38
(lp1649
(g1644
g1640
F0.5
tp1650
a(g1644
g1642
F0.5
tp1651
a(g1640
g1642
F0.5
tp1652
assg3
F0.3333333333333333
sg68
(lp1653
(lp1654
g1644
aa(lp1655
g1640
aa(lp1656
g1642
aasg2
F0.3333333333333333
ssI73
(dp1657
g1
F-1.0
sg7
(lp1658
(lp1659
S'broad'
p1660
aa(lp1661
S'general'
p1662
aa(lp1663
S'universal'
p1664
aasg25
(dp1665
g27
g28
(g32
S'\x00\x00\x00\x00\x00\x00\xc0?'
p1666
tp1667
Rp1668
sg38
(lp1669
(g1664
g1662
F0.5
tp1670
a(g1664
g1660
F0.5
tp1671
a(g1662
g1660
F0.5
tp1672
assg3
F0.0
sg68
(lp1673
(lp1674
g1664
aa(lp1675
g1662
aa(lp1676
g1660
aasg2
F1.0
ssI74
(dp1677
g1
F0.3333333333333333
sg7
(lp1678
(lp1679
S'widespread'
p1680
aa(lp1681
S'general'
p1682
aa(lp1683
S'universal'
p1684
aasg25
(dp1685
g27
g28
(g32
S'\x00\x00\x00\x00\x00\x00\xc0?'
p1686
tp1687
Rp1688
sg38
(lp1689
(g1680
g1684
F0.5
tp1690
a(g1680
g1682
F0.5
tp1691
a(g1684
g1682
F0.5
tp1692
assg3
F0.6666666666666666
sg68
(lp1693
(lp1694
g1680
aa(lp1695
g1684
aa(lp1696
g1682
aasg2
F0.3333333333333333
ssI75
(dp1697
g1
F-0.3333333333333333
sg7
(lp1698
(lp1699
S'cheap'
p1700
aa(lp1701
S'bad'
p1702
aa(lp1703
S'worst'
p1704
aasg25
(dp1705
g27
g28
(g32
S'\x00\x00\x00\x00\x00\x00\xc0?'
p1706
tp1707
Rp1708
sg38
(lp1709
(g1704
g1700
F0.5
tp1710
a(g1704
g1702
F0.5
tp1711
a(g1700
g1702
F0.5
tp1712
assg3
F0.3333333333333333
sg68
(lp1713
(lp1714
g1704
aa(lp1715
g1700
aa(lp1716
g1702
aasg2
F0.3333333333333333
ssI76
(dp1717
g1
F-0.3333333333333333
sg7
(lp1718
(lp1719
S'mediocre'
p1720
aa(lp1721
S'bad'
p1722
aa(lp1723
S'worst'
p1724
aasg25
(dp1725
g27
g28
(g32
S'\x00\x00\x00\x00\x00\x00\xc0?'
p1726
tp1727
Rp1728
sg38
(lp1729
(g1724
g1720
F0.5
tp1730
a(g1724
g1722
F0.5
tp1731
a(g1720
g1722
F0.5
tp1732
assg3
F0.3333333333333333
sg68
(lp1733
(lp1734
g1724
aa(lp1735
g1720
aa(lp1736
g1722
aasg2
F0.3333333333333333
ssI77
(dp1737
g1
F1.0
sg7
(lp1738
(lp1739
S'handsome'
p1740
aa(lp1741
S'beautiful'
p1742
aasg25
(dp1743
g27
g28
(g32
S'\x00\x00\x00\x00\x00\x00\xe0?'
p1744
tp1745
Rp1746
sg38
(lp1747
(g1740
g1742
F0.5
tp1748
assg3
F1.0
sg68
(lp1749
(lp1750
g1740
aa(lp1751
g1742
aasg2
F1.0
ssI78
(dp1752
g1
F-1.0
sg7
(lp1753
(lp1754
S'lovely'
p1755
aa(lp1756
S'pretty'
p1757
aasg25
(dp1758
g27
g28
(g32
S'\x00\x00\x00\x00\x00\x00\xe0?'
p1759
tp1760
Rp1761
sg38
(lp1762
(g1757
g1755
F0.5
tp1763
assg3
F0.0
sg68
(lp1764
(lp1765
g1757
aa(lp1766
g1755
aasg2
F1.0
ssI79
(dp1767
g1
F1.0
sg7
(lp1768
(lp1769
S'gorgeous'
p1770
aa(lp1771
S'attractive'
p1772
aasg25
(dp1773
g27
g28
(g32
S'\x00\x00\x00\x00\x00\x00\xe0?'
p1774
tp1775
Rp1776
sg38
(lp1777
(g1770
g1772
F0.5
tp1778
assg3
F1.0
sg68
(lp1779
(lp1780
g1770
aa(lp1781
g1772
aasg2
F1.0
ssI80
(dp1782
g1
F1.0
sg7
(lp1783
(lp1784
S'handsome'
p1785
aa(lp1786
S'beautiful'
p1787
aasg25
(dp1788
g27
g28
(g32
S'\x00\x00\x00\x00\x00\x00\xe0?'
p1789
tp1790
Rp1791
sg38
(lp1792
(g1785
g1787
F0.5
tp1793
assg3
F1.0
sg68
(lp1794
(lp1795
g1785
aa(lp1796
g1787
aasg2
F1.0
ssI81
(dp1797
g1
F-1.0
sg7
(lp1798
(lp1799
S'lovely'
p1800
aa(lp1801
S'pretty'
p1802
aasg25
(dp1803
g27
g28
(g32
S'\x00\x00\x00\x00\x00\x00\xe0?'
p1804
tp1805
Rp1806
sg38
(lp1807
(g1802
g1800
F0.5
tp1808
assg3
F0.0
sg68
(lp1809
(lp1810
g1802
aa(lp1811
g1800
aasg2
F1.0
ssI82
(dp1812
g1
F1.0
sg7
(lp1813
(lp1814
S'gorgeous'
p1815
aa(lp1816
S'attractive'
p1817
aasg25
(dp1818
g27
g28
(g32
S'\x00\x00\x00\x00\x00\x00\xe0?'
p1819
tp1820
Rp1821
sg38
(lp1822
(g1815
g1817
F0.5
tp1823
assg3
F1.0
sg68
(lp1824
(lp1825
g1815
aa(lp1826
g1817
aasg2
F1.0
ssI83
(dp1827
g1
F1.0
sg7
(lp1828
(lp1829
S'handsome'
p1830
aa(lp1831
S'beautiful'
p1832
aasg25
(dp1833
g27
g28
(g32
S'\x00\x00\x00\x00\x00\x00\xe0?'
p1834
tp1835
Rp1836
sg38
(lp1837
(g1830
g1832
F0.5
tp1838
assg3
F1.0
sg68
(lp1839
(lp1840
g1830
aa(lp1841
g1832
aasg2
F1.0
ssI84
(dp1842
g1
F-1.0
sg7
(lp1843
(lp1844
S'lovely'
p1845
aa(lp1846
S'pretty'
p1847
aasg25
(dp1848
g27
g28
(g32
S'\x00\x00\x00\x00\x00\x00\xe0?'
p1849
tp1850
Rp1851
sg38
(lp1852
(g1847
g1845
F0.5
tp1853
assg3
F0.0
sg68
(lp1854
(lp1855
g1847
aa(lp1856
g1845
aasg2
F1.0
ssI85
(dp1857
g1
F1.0
sg7
(lp1858
(lp1859
S'gorgeous'
p1860
aa(lp1861
S'attractive'
p1862
aasg25
(dp1863
g27
g28
(g32
S'\x00\x00\x00\x00\x00\x00\xe0?'
p1864
tp1865
Rp1866
sg38
(lp1867
(g1860
g1862
F0.5
tp1868
assg3
F1.0
sg68
(lp1869
(lp1870
g1860
aa(lp1871
g1862
aasg2
F1.0
ssI86
(dp1872
g1
F0.3333333333333333
sg7
(lp1873
(lp1874
S'thick'
p1875
aa(lp1876
S'dense'
p1877
aa(lp1878
S'impenetrable'
p1879
aasg25
(dp1880
g27
g28
(g32
S'\x00\x00\x00\x00\x00\x00\xc0?'
p1881
tp1882
Rp1883
sg38
(lp1884
(g1875
g1879
F0.5
tp1885
a(g1875
g1877
F0.5
tp1886
a(g1879
g1877
F0.5
tp1887
assg3
F0.6666666666666666
sg68
(lp1888
(lp1889
g1875
aa(lp1890
g1879
aa(lp1891
g1877
aasg2
F0.3333333333333333
ssI87
(dp1892
g1
F0.3333333333333333
sg7
(lp1893
(lp1894
S'soft'
p1895
aa(lp1896
S'quiet'
p1897
aa(lp1898
S'inaudible'
p1899
aa(lp1900
S'silent'
p1901
aasg25
(dp1902
g27
g28
(g32
S'\x00\x00\x00\x00\x00\x00\x90?'
p1903
tp1904
Rp1905
sg38
(lp1906
(g1895
g1901
F0.5
tp1907
a(g1895
g1897
F0.5
tp1908
a(g1895
g1899
F0.5
tp1909
a(g1901
g1897
F0.5
tp1910
a(g1901
g1899
F0.5
tp1911
a(g1897
g1899
F0.5
tp1912
assg3
F0.6666666666666666
sg68
(lp1913
(lp1914
g1895
aa(lp1915
g1901
aa(lp1916
g1897
aa(lp1917
g1899
aasg2
F0.3333333333333333
ssI88
(dp1918
g1
F-0.3333333333333333
sg7
(lp1919
(lp1920
S'cool'
p1921
aa(lp1922
S'unfriendly'
p1923
aa(lp1924
S'hostile'
p1925
aasg25
(dp1926
g27
g28
(g32
S'\x00\x00\x00\x00\x00\x00\xc0?'
p1927
tp1928
Rp1929
sg38
(lp1930
(g1923
g1925
F0.5
tp1931
a(g1923
g1921
F0.5
tp1932
a(g1925
g1921
F0.5
tp1933
assg3
F0.3333333333333333
sg68
(lp1934
(lp1935
g1923
aa(lp1936
g1925
aa(lp1937
g1921
aasg2
F0.3333333333333333
ssI89
(dp1938
g1
F-0.3333333333333333
sg7
(lp1939
(lp1940
S'chilly'
p1941
aa(lp1942
S'unfriendly'
p1943
aa(lp1944
S'hostile'
p1945
aasg25
(dp1946
g27
g28
(g32
S'\x00\x00\x00\x00\x00\x00\xc0?'
p1947
tp1948
Rp1949
sg38
(lp1950
(g1943
g1945
F0.5
tp1951
a(g1943
g1941
F0.5
tp1952
a(g1945
g1941
F0.5
tp1953
assg3
F0.3333333333333333
sg68
(lp1954
(lp1955
g1943
aa(lp1956
g1945
aa(lp1957
g1941
aasg2
F0.3333333333333333
ssI90
(dp1958
g1
F0.3333333333333333
sg7
(lp1959
(lp1960
S'sizeable'
p1961
aa(lp1962
S'big'
p1963
aa(lp1964
S'huge'
p1965
aa(lp1966
S'colossal'
p1967
aasg25
(dp1968
g27
g28
(g32
S'\x00\x00\x00\x00\x00\x00\x90?'
p1969
tp1970
Rp1971
sg38
(lp1972
(g1961
g1965
F0.5
tp1973
a(g1961
g1967
F0.5
tp1974
a(g1961
g1963
F0.5
tp1975
a(g1965
g1967
F0.5
tp1976
a(g1965
g1963
F0.5
tp1977
a(g1967
g1963
F0.5
tp1978
assg3
F0.6666666666666666
sg68
(lp1979
(lp1980
g1961
aa(lp1981
g1965
aa(lp1982
g1967
aa(lp1983
g1963
aasg2
F0.3333333333333333
ssI91
(dp1984
g1
F1.0
sg7
(lp1985
(lp1986
S'sizeable'
p1987
aa(lp1988
S'large'
p1989
aa(lp1990
S'huge'
p1991
aa(lp1992
S'colossal'
p1993
aasg25
(dp1994
g27
g28
(g32
S'\x00\x00\x00\x00\x00\x00\x90?'
p1995
tp1996
Rp1997
sg38
(lp1998
(g1987
g1989
F0.5
tp1999
a(g1987
g1991
F0.5
tp2000
a(g1987
g1993
F0.5
tp2001
a(g1989
g1991
F0.5
tp2002
a(g1989
g1993
F0.5
tp2003
a(g1991
g1993
F0.5
tp2004
assg3
F1.0
sg68
(lp2005
(lp2006
g1987
aa(lp2007
g1989
aa(lp2008
g1991
aa(lp2009
g1993
aasg2
F1.0
ssI92
(dp2010
g1
F-0.3333333333333333
sg7
(lp2011
(lp2012
S'dual'
p2013
aa(lp2014
S'triple'
p2015
aa(lp2016
S'quadruple'
p2017
aasg25
(dp2018
g27
g28
(g32
S'\x00\x00\x00\x00\x00\x00\xc0?'
p2019
tp2020
Rp2021
sg38
(lp2022
(g2015
g2017
F0.5
tp2023
a(g2015
g2013
F0.5
tp2024
a(g2017
g2013
F0.5
tp2025
assg3
F0.3333333333333333
sg68
(lp2026
(lp2027
g2015
aa(lp2028
g2017
aa(lp2029
g2013
aasg2
F0.3333333333333333
ssI93
(dp2030
g1
F-0.3333333333333333
sg7
(lp2031
(lp2032
S'double'
p2033
aa(lp2034
S'treble'
p2035
aa(lp2036
S'quadruple'
p2037
aasg25
(dp2038
g27
g28
(g32
S'\x00\x00\x00\x00\x00\x00\xc0?'
p2039
tp2040
Rp2041
sg38
(lp2042
(g2035
g2037
F0.5
tp2043
a(g2035
g2033
F0.5
tp2044
a(g2037
g2033
F0.5
tp2045
assg3
F0.3333333333333333
sg68
(lp2046
(lp2047
g2035
aa(lp2048
g2037
aa(lp2049
g2033
aasg2
F0.3333333333333333
ssI94
(dp2050
g1
F-0.3333333333333333
sg7
(lp2051
(lp2052
S'doubled'
p2053
aa(lp2054
S'triple'
p2055
aa(lp2056
S'quadruple'
p2057
aasg25
(dp2058
g27
g28
(g32
S'\x00\x00\x00\x00\x00\x00\xc0?'
p2059
tp2060
Rp2061
sg38
(lp2062
(g2055
g2057
F0.5
tp2063
a(g2055
g2053
F0.5
tp2064
a(g2057
g2053
F0.5
tp2065
assg3
F0.3333333333333333
sg68
(lp2066
(lp2067
g2055
aa(lp2068
g2057
aa(lp2069
g2053
aasg2
F0.3333333333333333
ssI95
(dp2070
g1
F-0.3333333333333333
sg7
(lp2071
(lp2072
S'dual'
p2073
aa(lp2074
S'treble'
p2075
aa(lp2076
S'quadruple'
p2077
aasg25
(dp2078
g27
g28
(g32
S'\x00\x00\x00\x00\x00\x00\xc0?'
p2079
tp2080
Rp2081
sg38
(lp2082
(g2075
g2077
F0.5
tp2083
a(g2075
g2073
F0.5
tp2084
a(g2077
g2073
F0.5
tp2085
assg3
F0.3333333333333333
sg68
(lp2086
(lp2087
g2075
aa(lp2088
g2077
aa(lp2089
g2073
aasg2
F0.3333333333333333
ssI96
(dp2090
g1
F-0.3333333333333333
sg7
(lp2091
(lp2092
S'double'
p2093
aa(lp2094
S'triple'
p2095
aa(lp2096
S'quadruple'
p2097
aasg25
(dp2098
g27
g28
(g32
S'\x00\x00\x00\x00\x00\x00\xc0?'
p2099
tp2100
Rp2101
sg38
(lp2102
(g2095
g2097
F0.5
tp2103
a(g2095
g2093
F0.5
tp2104
a(g2097
g2093
F0.5
tp2105
assg3
F0.3333333333333333
sg68
(lp2106
(lp2107
g2095
aa(lp2108
g2097
aa(lp2109
g2093
aasg2
F0.3333333333333333
ssI97
(dp2110
g1
F-0.3333333333333333
sg7
(lp2111
(lp2112
S'doubled'
p2113
aa(lp2114
S'treble'
p2115
aa(lp2116
S'quadruple'
p2117
aasg25
(dp2118
g27
g28
(g32
S'\x00\x00\x00\x00\x00\x00\xc0?'
p2119
tp2120
Rp2121
sg38
(lp2122
(g2115
g2117
F0.5
tp2123
a(g2115
g2113
F0.5
tp2124
a(g2117
g2113
F0.5
tp2125
assg3
F0.3333333333333333
sg68
(lp2126
(lp2127
g2115
aa(lp2128
g2117
aa(lp2129
g2113
aasg2
F0.3333333333333333
ssI98
(dp2130
g1
F-0.6666666666666666
sg7
(lp2131
(lp2132
S'creepy'
p2133
aa(lp2134
S'scary'
p2135
aa(lp2136
S'terrifying'
p2137
aa(lp2138
S'sinister'
p2139
aasg25
(dp2140
g27
g28
(g32
S'\x00\x00\x00\x00\x00\x00\x90?'
p2141
tp2142
Rp2143
sg38
(lp2144
(g2137
g2139
F0.5
tp2145
a(g2137
g2135
F0.5
tp2146
a(g2137
g2133
F0.5
tp2147
a(g2139
g2135
F0.5
tp2148
a(g2139
g2133
F0.5
tp2149
a(g2135
g2133
F0.5
tp2150
assg3
F0.16666666666666666
sg68
(lp2151
(lp2152
g2137
aa(lp2153
g2139
aa(lp2154
g2135
aa(lp2155
g2133
aasg2
F0.6666666666666666
ssI99
(dp2156
g1
F-0.6666666666666666
sg7
(lp2157
(lp2158
S'creepy'
p2159
aa(lp2160
S'frightening'
p2161
aa(lp2162
S'terrifying'
p2163
aa(lp2164
S'sinister'
p2165
aasg25
(dp2166
g27
g28
(g32
S'\x00\x00\x00\x00\x00\x00\x90?'
p2167
tp2168
Rp2169
sg38
(lp2170
(g2163
g2165
F0.5
tp2171
a(g2163
g2161
F0.5
tp2172
a(g2163
g2159
F0.5
tp2173
a(g2165
g2161
F0.5
tp2174
a(g2165
g2159
F0.5
tp2175
a(g2161
g2159
F0.5
tp2176
assg3
F0.16666666666666666
sg68
(lp2177
(lp2178
g2163
aa(lp2179
g2165
aa(lp2180
g2161
aa(lp2181
g2159
aasg2
F0.6666666666666666
ssI100
(dp2182
g1
F0.3333333333333333
sg7
(lp2183
(lp2184
S'some'
p2185
aa(lp2186
S'few'
p2187
aa(lp2188
S'fewer'
p2189
aasg25
(dp2190
g27
g28
(g32
S'\x00\x00\x00\x00\x00\x00\xc0?'
p2191
tp2192
Rp2193
sg38
(lp2194
(g2185
g2189
F0.5
tp2195
a(g2185
g2187
F0.5
tp2196
a(g2189
g2187
F0.5
tp2197
assg3
F0.6666666666666666
sg68
(lp2198
(lp2199
g2185
aa(lp2200
g2189
aa(lp2201
g2187
aasg2
F0.3333333333333333
ssI101
(dp2202
g1
F1.0
sg7
(lp2203
(lp2204
S'neglected'
p2205
aa(lp2206
S'ignored'
p2207
aa(lp2208
S'forgotten'
p2209
aasg25
(dp2210
g27
g28
(g32
S'\x00\x00\x00\x00\x00\x00\xc0?'
p2211
tp2212
Rp2213
sg38
(lp2214
(g2205
g2207
F0.5
tp2215
a(g2205
g2209
F0.5
tp2216
a(g2207
g2209
F0.5
tp2217
assg3
F1.0
sg68
(lp2218
(lp2219
g2205
aa(lp2220
g2207
aa(lp2221
g2209
aasg2
F1.0
ssI102
(dp2222
g1
F0.3333333333333333
sg7
(lp2223
(lp2224
S'neglected'
p2225
aa(lp2226
S'overlooked'
p2227
aa(lp2228
S'forgotten'
p2229
aasg25
(dp2230
g27
g28
(g32
S'\x00\x00\x00\x00\x00\x00\xc0?'
p2231
tp2232
Rp2233
sg38
(lp2234
(g2227
g2225
F0.5
tp2235
a(g2227
g2229
F0.5
tp2236
a(g2225
g2229
F0.5
tp2237
assg3
F0.6666666666666666
sg68
(lp2238
(lp2239
g2227
aa(lp2240
g2225
aa(lp2241
g2229
aasg2
F0.3333333333333333
ssI103
(dp2242
g1
F1.0
sg7
(lp2243
(lp2244
S'old'
p2245
aa(lp2246
S'obsolete'
p2247
aasg25
(dp2248
g27
g28
(g32
S'\x00\x00\x00\x00\x00\x00\xe0?'
p2249
tp2250
Rp2251
sg38
(lp2252
(g2245
g2247
F0.5
tp2253
assg3
F1.0
sg68
(lp2254
(lp2255
g2245
aa(lp2256
g2247
aasg2
F1.0
ssI104
(dp2257
g1
F-1.0
sg7
(lp2258
(lp2259
S'old'
p2260
aa(lp2261
S'outdated'
p2262
aasg25
(dp2263
g27
g28
(g32
S'\x00\x00\x00\x00\x00\x00\xe0?'
p2264
tp2265
Rp2266
sg38
(lp2267
(g2262
g2260
F0.5
tp2268
assg3
F0.0
sg68
(lp2269
(lp2270
g2262
aa(lp2271
g2260
aasg2
F1.0
ssI105
(dp2272
g1
F0.6666666666666666
sg7
(lp2273
(lp2274
S'necessary'
p2275
aa(lp2276
S'vital'
p2277
aa(lp2278
S'indispensable'
p2279
aa(lp2280
S'critical'
p2281
aasg25
(dp2282
g27
g28
(g32
S'\x00\x00\x00\x00\x00\x00\x90?'
p2283
tp2284
Rp2285
sg38
(lp2286
(g2277
g2275
F0.5
tp2287
a(g2277
g2279
F0.5
tp2288
a(g2277
g2281
F0.5
tp2289
a(g2275
g2279
F0.5
tp2290
a(g2275
g2281
F0.5
tp2291
a(g2279
g2281
F0.5
tp2292
assg3
F0.8333333333333334
sg68
(lp2293
(lp2294
g2277
aa(lp2295
g2275
aa(lp2296
g2279
aa(lp2297
g2281
aasg2
F0.6666666666666666
ssI106
(dp2298
g1
F-1.0
sg7
(lp2299
(lp2300
S'attractive'
p2301
aa(lp2302
S'beautiful'
p2303
aa(lp2304
S'mesmerizing'
p2305
aasg25
(dp2306
g27
g28
(g32
S'\x00\x00\x00\x00\x00\x00\xc0?'
p2307
tp2308
Rp2309
sg38
(lp2310
(g2305
g2303
F0.5
tp2311
a(g2305
g2301
F0.5
tp2312
a(g2303
g2301
F0.5
tp2313
assg3
F0.0
sg68
(lp2314
(lp2315
g2305
aa(lp2316
g2303
aa(lp2317
g2301
aasg2
F1.0
ssI107
(dp2318
g1
F-1.0
sg7
(lp2319
(lp2320
S'attractive'
p2321
aa(lp2322
S'beautiful'
p2323
aa(lp2324
S'seductive'
p2325
aasg25
(dp2326
g27
g28
(g32
S'\x00\x00\x00\x00\x00\x00\xc0?'
p2327
tp2328
Rp2329
sg38
(lp2330
(g2325
g2323
F0.5
tp2331
a(g2325
g2321
F0.5
tp2332
a(g2323
g2321
F0.5
tp2333
assg3
F0.0
sg68
(lp2334
(lp2335
g2325
aa(lp2336
g2323
aa(lp2337
g2321
aasg2
F1.0
ssI108
(dp2338
g1
F-0.3333333333333333
sg7
(lp2339
(lp2340
S'closed'
p2341
aa(lp2342
S'shut'
p2343
aa(lp2344
S'sealed'
p2345
aasg25
(dp2346
g27
g28
(g32
S'\x00\x00\x00\x00\x00\x00\xc0?'
p2347
tp2348
Rp2349
sg38
(lp2350
(g2343
g2345
F0.5
tp2351
a(g2343
g2341
F0.5
tp2352
a(g2345
g2341
F0.5
tp2353
assg3
F0.3333333333333333
sg68
(lp2354
(lp2355
g2343
aa(lp2356
g2345
aa(lp2357
g2341
aasg2
F0.3333333333333333
ssI109
(dp2358
g1
F1.0
sg7
(lp2359
(lp2360
S'unexpected'
p2361
aa(lp2362
S'astonishing'
p2363
aasg25
(dp2364
g27
g28
(g32
S'\x00\x00\x00\x00\x00\x00\xe0?'
p2365
tp2366
Rp2367
sg38
(lp2368
(g2361
g2363
F0.5
tp2369
assg3
F1.0
sg68
(lp2370
(lp2371
g2361
aa(lp2372
g2363
aasg2
F1.0
ssI110
(dp2373
g1
F1.0
sg7
(lp2374
(lp2375
S'unexpected'
p2376
aa(lp2377
S'stunning'
p2378
aasg25
(dp2379
g27
g28
(g32
S'\x00\x00\x00\x00\x00\x00\xe0?'
p2380
tp2381
Rp2382
sg38
(lp2383
(g2376
g2378
F0.5
tp2384
assg3
F1.0
sg68
(lp2385
(lp2386
g2376
aa(lp2387
g2378
aasg2
F1.0
ssI111
(dp2388
g1
F-0.3333333333333333
sg7
(lp2389
(lp2390
S'indecent'
p2391
aa(lp2392
S'profane'
p2393
aa(lp2394
S'obscene'
p2395
aasg25
(dp2396
g27
g28
(g32
S'\x00\x00\x00\x00\x00\x00\xc0?'
p2397
tp2398
Rp2399
sg38
(lp2400
(g2393
g2395
F0.5
tp2401
a(g2393
g2391
F0.5
tp2402
a(g2395
g2391
F0.5
tp2403
assg3
F0.3333333333333333
sg68
(lp2404
(lp2405
g2393
aa(lp2406
g2395
aa(lp2407
g2391
aasg2
F0.3333333333333333
ssI112
(dp2408
g1
F-0.3333333333333333
sg7
(lp2409
(lp2410
S'attractive'
p2411
aa(lp2412
S'sexy'
p2413
aa(lp2414
S'seductive'
p2415
aasg25
(dp2416
g27
g28
(g32
S'\x00\x00\x00\x00\x00\x00\xc0?'
p2417
tp2418
Rp2419
sg38
(lp2420
(g2413
g2415
F0.5
tp2421
a(g2413
g2411
F0.5
tp2422
a(g2415
g2411
F0.5
tp2423
assg3
F0.3333333333333333
sg68
(lp2424
(lp2425
g2413
aa(lp2426
g2415
aa(lp2427
g2411
aasg2
F0.3333333333333333
ssI113
(dp2428
g1
F0.3333333333333333
sg7
(lp2429
(lp2430
S'humbled'
p2431
aa(lp2432
S'humiliated'
p2433
aa(lp2434
S'crushed'
p2435
aasg25
(dp2436
g27
g28
(g32
S'\x00\x00\x00\x00\x00\x00\xc0?'
p2437
tp2438
Rp2439
sg38
(lp2440
(g2433
g2431
F0.5
tp2441
a(g2433
g2435
F0.5
tp2442
a(g2431
g2435
F0.5
tp2443
assg3
F0.6666666666666666
sg68
(lp2444
(lp2445
g2433
aa(lp2446
g2431
aa(lp2447
g2435
aasg2
F0.3333333333333333
ssI114
(dp2448
g1
F-1.0
sg7
(lp2449
(lp2450
S'bright'
p2451
aa(lp2452
S'brilliant'
p2453
aasg25
(dp2454
g27
g28
(g32
S'\x00\x00\x00\x00\x00\x00\xe0?'
p2455
tp2456
Rp2457
sg38
(lp2458
(g2453
g2451
F0.5
tp2459
assg3
F0.0
sg68
(lp2460
(lp2461
g2453
aa(lp2462
g2451
aasg2
F1.0
ssI115
(dp2463
g1
F1.0
sg7
(lp2464
(lp2465
S'intelligent'
p2466
aa(lp2467
S'brilliant'
p2468
aasg25
(dp2469
g27
g28
(g32
S'\x00\x00\x00\x00\x00\x00\xe0?'
p2470
tp2471
Rp2472
sg38
(lp2473
(g2466
g2468
F0.5
tp2474
assg3
F1.0
sg68
(lp2475
(lp2476
g2466
aa(lp2477
g2468
aasg2
F1.0
ssI116
(dp2478
g1
F1.0
sg7
(lp2479
(lp2480
S'smart'
p2481
aa(lp2482
S'brilliant'
p2483
aasg25
(dp2484
g27
g28
(g32
S'\x00\x00\x00\x00\x00\x00\xe0?'
p2485
tp2486
Rp2487
sg38
(lp2488
(g2481
g2483
F0.5
tp2489
assg3
F1.0
sg68
(lp2490
(lp2491
g2481
aa(lp2492
g2483
aasg2
F1.0
ssI117
(dp2493
g1
F1.0
sg7
(lp2494
(lp2495
S'clever'
p2496
aa(lp2497
S'brilliant'
p2498
aasg25
(dp2499
g27
g28
(g32
S'\x00\x00\x00\x00\x00\x00\xe0?'
p2500
tp2501
Rp2502
sg38
(lp2503
(g2496
g2498
F0.5
tp2504
assg3
F1.0
sg68
(lp2505
(lp2506
g2496
aa(lp2507
g2498
aasg2
F1.0
ssI118
(dp2508
g1
F1.0
sg7
(lp2509
(lp2510
S'violent'
p2511
aa(lp2512
S'homicidal'
p2513
aasg25
(dp2514
g27
g28
(g32
S'\x00\x00\x00\x00\x00\x00\xe0?'
p2515
tp2516
Rp2517
sg38
(lp2518
(g2511
g2513
F0.5
tp2519
assg3
F1.0
sg68
(lp2520
(lp2521
g2511
aa(lp2522
g2513
aasg2
F1.0
ssI119
(dp2523
g1
F1.0
sg7
(lp2524
(lp2525
S'violent'
p2526
aa(lp2527
S'murderous'
p2528
aasg25
(dp2529
g27
g28
(g32
S'\x00\x00\x00\x00\x00\x00\xe0?'
p2530
tp2531
Rp2532
sg38
(lp2533
(g2526
g2528
F0.5
tp2534
assg3
F1.0
sg68
(lp2535
(lp2536
g2526
aa(lp2537
g2528
aasg2
F1.0
ssI120
(dp2538
g1
F-1.0
sg7
(lp2539
(lp2540
S'personal'
p2541
aa(lp2542
S'private'
p2543
aa(lp2544
S'secret'
p2545
aasg25
(dp2546
g27
g28
(g32
S'\x00\x00\x00\x00\x00\x00\xc0?'
p2547
tp2548
Rp2549
sg38
(lp2550
(g2545
g2543
F0.5
tp2551
a(g2545
g2541
F0.5
tp2552
a(g2543
g2541
F0.5
tp2553
assg3
F0.0
sg68
(lp2554
(lp2555
g2545
aa(lp2556
g2543
aa(lp2557
g2541
aasg2
F1.0
ssI121
(dp2558
g1
F-1.0
sg7
(lp2559
(lp2560
S'high'
p2561
aa(lp2562
S'higher'
p2563
aa(lp2564
S'soaring'
p2565
aasg25
(dp2566
g27
g28
(g32
S'\x00\x00\x00\x00\x00\x00\xc0?'
p2567
tp2568
Rp2569
sg38
(lp2570
(g2565
g2563
F0.5
tp2571
a(g2565
g2561
F0.5
tp2572
a(g2563
g2561
F0.5
tp2573
assg3
F0.0
sg68
(lp2574
(lp2575
g2565
aa(lp2576
g2563
aa(lp2577
g2561
aasg2
F1.0
ssI122
(dp2578
g1
F0.3333333333333333
sg7
(lp2579
(lp2580
S'harmful'
p2581
aa(lp2582
S'toxic'
p2583
aa(lp2584
S'deadly'
p2585
aasg25
(dp2586
g27
g28
(g32
S'\x00\x00\x00\x00\x00\x00\xc0?'
p2587
tp2588
Rp2589
sg38
(lp2590
(g2583
g2581
F0.5
tp2591
a(g2583
g2585
F0.5
tp2592
a(g2581
g2585
F0.5
tp2593
assg3
F0.6666666666666666
sg68
(lp2594
(lp2595
g2583
aa(lp2596
g2581
aa(lp2597
g2585
aasg2
F0.3333333333333333
ssI123
(dp2598
g1
F0.2
sg7
(lp2599
(lp2600
S'small'
p2601
aa(lp2602
S'smaller'
p2603
aa(lp2604
S'midget'
p2605
aa(lp2606
S'minute'
p2607
aa(lp2608
S'tiny'
p2609
aa(lp2610
S'micro'
p2611
aasg25
(dp2612
g27
g28
(g32
S'\x00\x00\x00\x00\x00\x00\x00?'
p2613
tp2614
Rp2615
sg38
(lp2616
(g2609
g2603
F0.5
tp2617
a(g2609
g2601
F0.5
tp2618
a(g2609
g2607
F0.5
tp2619
a(g2609
g2605
F0.5
tp2620
a(g2609
g2611
F0.5
tp2621
a(g2603
g2601
F0.5
tp2622
a(g2603
g2607
F0.5
tp2623
a(g2603
g2605
F0.5
tp2624
a(g2603
g2611
F0.5
tp2625
a(g2601
g2607
F0.5
tp2626
a(g2601
g2605
F0.5
tp2627
a(g2601
g2611
F0.5
tp2628
a(g2607
g2605
F0.5
tp2629
a(g2607
g2611
F0.5
tp2630
a(g2605
g2611
F0.5
tp2631
assg3
F0.6
sg68
(lp2632
(lp2633
g2609
aa(lp2634
g2603
aa(lp2635
g2601
aa(lp2636
g2607
aa(lp2637
g2605
aa(lp2638
g2611
aasg2
F0.2
ssI124
(dp2639
g1
F0.6
sg7
(lp2640
(lp2641
S'small'
p2642
aa(lp2643
S'smaller'
p2644
aa(lp2645
S'midget'
p2646
aa(lp2647
S'minute'
p2648
aa(lp2649
S'minuscule'
p2650
aa(lp2651
S'microscopic'
p2652
aasg25
(dp2653
g27
g28
(g32
S'\x00\x00\x00\x00\x00\x00\x00?'
p2654
tp2655
Rp2656
sg38
(lp2657
(g2644
g2642
F0.5
tp2658
a(g2644
g2648
F0.5
tp2659
a(g2644
g2650
F0.5
tp2660
a(g2644
g2646
F0.5
tp2661
a(g2644
g2652
F0.5
tp2662
a(g2642
g2648
F0.5
tp2663
a(g2642
g2650
F0.5
tp2664
a(g2642
g2646
F0.5
tp2665
a(g2642
g2652
F0.5
tp2666
a(g2648
g2650
F0.5
tp2667
a(g2648
g2646
F0.5
tp2668
a(g2648
g2652
F0.5
tp2669
a(g2650
g2646
F0.5
tp2670
a(g2650
g2652
F0.5
tp2671
a(g2646
g2652
F0.5
tp2672
assg3
F0.8
sg68
(lp2673
(lp2674
g2644
aa(lp2675
g2642
aa(lp2676
g2648
aa(lp2677
g2650
aa(lp2678
g2646
aa(lp2679
g2652
aasg2
F0.6
ssI125
(dp2680
g1
F0.2
sg7
(lp2681
(lp2682
S'small'
p2683
aa(lp2684
S'smaller'
p2685
aa(lp2686
S'midget'
p2687
aa(lp2688
S'minute'
p2689
aa(lp2690
S'tiny'
p2691
aa(lp2692
S'micro'
p2693
aasg25
(dp2694
g27
g28
(g32
S'\x00\x00\x00\x00\x00\x00\x00?'
p2695
tp2696
Rp2697
sg38
(lp2698
(g2691
g2685
F0.5
tp2699
a(g2691
g2683
F0.5
tp2700
a(g2691
g2689
F0.5
tp2701
a(g2691
g2687
F0.5
tp2702
a(g2691
g2693
F0.5
tp2703
a(g2685
g2683
F0.5
tp2704
a(g2685
g2689
F0.5
tp2705
a(g2685
g2687
F0.5
tp2706
a(g2685
g2693
F0.5
tp2707
a(g2683
g2689
F0.5
tp2708
a(g2683
g2687
F0.5
tp2709
a(g2683
g2693
F0.5
tp2710
a(g2689
g2687
F0.5
tp2711
a(g2689
g2693
F0.5
tp2712
a(g2687
g2693
F0.5
tp2713
assg3
F0.6
sg68
(lp2714
(lp2715
g2691
aa(lp2716
g2685
aa(lp2717
g2683
aa(lp2718
g2689
aa(lp2719
g2687
aa(lp2720
g2693
aasg2
F0.2
ssI126
(dp2721
g1
F0.6
sg7
(lp2722
(lp2723
S'small'
p2724
aa(lp2725
S'smaller'
p2726
aa(lp2727
S'midget'
p2728
aa(lp2729
S'minute'
p2730
aa(lp2731
S'minuscule'
p2732
aa(lp2733
S'microscopic'
p2734
aasg25
(dp2735
g27
g28
(g32
S'\x00\x00\x00\x00\x00\x00\x00?'
p2736
tp2737
Rp2738
sg38
(lp2739
(g2726
g2724
F0.5
tp2740
a(g2726
g2730
F0.5
tp2741
a(g2726
g2732
F0.5
tp2742
a(g2726
g2728
F0.5
tp2743
a(g2726
g2734
F0.5
tp2744
a(g2724
g2730
F0.5
tp2745
a(g2724
g2732
F0.5
tp2746
a(g2724
g2728
F0.5
tp2747
a(g2724
g2734
F0.5
tp2748
a(g2730
g2732
F0.5
tp2749
a(g2730
g2728
F0.5
tp2750
a(g2730
g2734
F0.5
tp2751
a(g2732
g2728
F0.5
tp2752
a(g2732
g2734
F0.5
tp2753
a(g2728
g2734
F0.5
tp2754
assg3
F0.8
sg68
(lp2755
(lp2756
g2726
aa(lp2757
g2724
aa(lp2758
g2730
aa(lp2759
g2732
aa(lp2760
g2728
aa(lp2761
g2734
aasg2
F0.6
ssI127
(dp2762
g1
F0.3333333333333333
sg7
(lp2763
(lp2764
S'impractical'
p2765
aa(lp2766
S'unrealistic'
p2767
aa(lp2768
S'infeasible'
p2769
aa(lp2770
S'impossible'
p2771
aasg25
(dp2772
g27
g28
(g32
S'\x00\x00\x00\x00\x00\x00\x90?'
p2773
tp2774
Rp2775
sg38
(lp2776
(g2767
g2769
F0.5
tp2777
a(g2767
g2765
F0.5
tp2778
a(g2767
g2771
F0.5
tp2779
a(g2769
g2765
F0.5
tp2780
a(g2769
g2771
F0.5
tp2781
a(g2765
g2771
F0.5
tp2782
assg3
F0.6666666666666666
sg68
(lp2783
(lp2784
g2767
aa(lp2785
g2769
aa(lp2786
g2765
aa(lp2787
g2771
aasg2
F0.3333333333333333
ssI128
(dp2788
g1
F0.3333333333333333
sg7
(lp2789
(lp2790
S'impracticable'
p2791
aa(lp2792
S'unrealistic'
p2793
aa(lp2794
S'infeasible'
p2795
aa(lp2796
S'impossible'
p2797
aasg25
(dp2798
g27
g28
(g32
S'\x00\x00\x00\x00\x00\x00\x90?'
p2799
tp2800
Rp2801
sg38
(lp2802
(g2793
g2795
F0.5
tp2803
a(g2793
g2791
F0.5
tp2804
a(g2793
g2797
F0.5
tp2805
a(g2795
g2791
F0.5
tp2806
a(g2795
g2797
F0.5
tp2807
a(g2791
g2797
F0.5
tp2808
assg3
F0.6666666666666666
sg68
(lp2809
(lp2810
g2793
aa(lp2811
g2795
aa(lp2812
g2791
aa(lp2813
g2797
aasg2
F0.3333333333333333
ssI129
(dp2814
g1
F-0.3333333333333333
sg7
(lp2815
(lp2816
S'mature'
p2817
aa(lp2818
S'ripe'
p2819
aa(lp2820
S'overripe'
p2821
aasg25
(dp2822
g27
g28
(g32
S'\x00\x00\x00\x00\x00\x00\xc0?'
p2823
tp2824
Rp2825
sg38
(lp2826
(g2819
g2821
F0.5
tp2827
a(g2819
g2817
F0.5
tp2828
a(g2821
g2817
F0.5
tp2829
assg3
F0.3333333333333333
sg68
(lp2830
(lp2831
g2819
aa(lp2832
g2821
aa(lp2833
g2817
aasg2
F0.3333333333333333
ssI130
(dp2834
g1
F0.0
sg7
(lp2835
(lp2836
S'overweight'
p2837
aa(lp2838
S'chubby'
p2839
aa(lp2840
S'fat'
p2841
aa(lp2842
S'obese'
p2843
aasg25
(dp2844
g27
g28
(g32
S'\x00\x00\x00\x00\x00\x00\x90?'
p2845
tp2846
Rp2847
sg38
(lp2848
(g2837
g2843
F0.5
tp2849
a(g2837
g2841
F0.5
tp2850
a(g2837
g2839
F0.5
tp2851
a(g2843
g2841
F0.5
tp2852
a(g2843
g2839
F0.5
tp2853
a(g2841
g2839
F0.5
tp2854
assg3
F0.5
sg68
(lp2855
(lp2856
g2837
aa(lp2857
g2843
aa(lp2858
g2841
aa(lp2859
g2839
aasg2
F0.0
ssI131
(dp2860
g1
F0.3333333333333333
sg7
(lp2861
(lp2862
S'uncomfortable'
p2863
aa(lp2864
S'uneasy'
p2865
aa(lp2866
S'painful'
p2867
aasg25
(dp2868
g27
g28
(g32
S'\x00\x00\x00\x00\x00\x00\xc0?'
p2869
tp2870
Rp2871
sg38
(lp2872
(g2865
g2863
F0.5
tp2873
a(g2865
g2867
F0.5
tp2874
a(g2863
g2867
F0.5
tp2875
assg3
F0.6666666666666666
sg68
(lp2876
(lp2877
g2865
aa(lp2878
g2863
aa(lp2879
g2867
aasg2
F0.3333333333333333
ssI132
(dp2880
g1
F-0.3333333333333333
sg7
(lp2881
(lp2882
S'friendly'
p2883
aa(lp2884
S'warm'
p2885
aa(lp2886
S'intimate'
p2887
aasg25
(dp2888
g27
g28
(g32
S'\x00\x00\x00\x00\x00\x00\xc0?'
p2889
tp2890
Rp2891
sg38
(lp2892
(g2885
g2887
F0.5
tp2893
a(g2885
g2883
F0.5
tp2894
a(g2887
g2883
F0.5
tp2895
assg3
F0.3333333333333333
sg68
(lp2896
(lp2897
g2885
aa(lp2898
g2887
aa(lp2899
g2883
aasg2
F0.3333333333333333
ssI133
(dp2900
g1
F-0.3333333333333333
sg7
(lp2901
(lp2902
S'cordial'
p2903
aa(lp2904
S'warm'
p2905
aa(lp2906
S'intimate'
p2907
aasg25
(dp2908
g27
g28
(g32
S'\x00\x00\x00\x00\x00\x00\xc0?'
p2909
tp2910
Rp2911
sg38
(lp2912
(g2905
g2907
F0.5
tp2913
a(g2905
g2903
F0.5
tp2914
a(g2907
g2903
F0.5
tp2915
assg3
F0.3333333333333333
sg68
(lp2916
(lp2917
g2905
aa(lp2918
g2907
aa(lp2919
g2903
aasg2
F0.3333333333333333
ssI134
(dp2920
g1
F-0.6666666666666666
sg7
(lp2921
(lp2922
S'cool'
p2923
aa(lp2924
S'cold'
p2925
aa(lp2926
S'frigid'
p2927
aa(lp2928
S'icy'
p2929
aasg25
(dp2930
g27
g28
(g32
S'\x00\x00\x00\x00\x00\x00\x90?'
p2931
tp2932
Rp2933
sg38
(lp2934
(g2929
g2927
F0.5
tp2935
a(g2929
g2923
F0.5
tp2936
a(g2929
g2925
F0.5
tp2937
a(g2927
g2923
F0.5
tp2938
a(g2927
g2925
F0.5
tp2939
a(g2923
g2925
F0.5
tp2940
assg3
F0.16666666666666666
sg68
(lp2941
(lp2942
g2929
aa(lp2943
g2927
aa(lp2944
g2923
aa(lp2945
g2925
aasg2
F0.6666666666666666
ssI135
(dp2946
g1
F-0.6666666666666666
sg7
(lp2947
(lp2948
S'cool'
p2949
aa(lp2950
S'cold'
p2951
aa(lp2952
S'frigid'
p2953
aa(lp2954
S'frozen'
p2955
aasg25
(dp2956
g27
g28
(g32
S'\x00\x00\x00\x00\x00\x00\x90?'
p2957
tp2958
Rp2959
sg38
(lp2960
(g2955
g2953
F0.5
tp2961
a(g2955
g2949
F0.5
tp2962
a(g2955
g2951
F0.5
tp2963
a(g2953
g2949
F0.5
tp2964
a(g2953
g2951
F0.5
tp2965
a(g2949
g2951
F0.5
tp2966
assg3
F0.16666666666666666
sg68
(lp2967
(lp2968
g2955
aa(lp2969
g2953
aa(lp2970
g2949
aa(lp2971
g2951
aasg2
F0.6666666666666666
ssI136
(dp2972
g1
F0.3333333333333333
sg7
(lp2973
(lp2974
S'disappointed'
p2975
aa(lp2976
S'frustrated'
p2977
aa(lp2978
S'defeated'
p2979
aasg25
(dp2980
g27
g28
(g32
S'\x00\x00\x00\x00\x00\x00\xc0?'
p2981
tp2982
Rp2983
sg38
(lp2984
(g2977
g2975
F0.5
tp2985
a(g2977
g2979
F0.5
tp2986
a(g2975
g2979
F0.5
tp2987
assg3
F0.6666666666666666
sg68
(lp2988
(lp2989
g2977
aa(lp2990
g2975
aa(lp2991
g2979
aasg2
F0.3333333333333333
ssI137
(dp2992
g1
F-0.3333333333333333
sg7
(lp2993
(lp2994
S'close'
p2995
aa(lp2996
S'tight'
p2997
aa(lp2998
S'snug'
p2999
aasg25
(dp3000
g27
g28
(g32
S'\x00\x00\x00\x00\x00\x00\xc0?'
p3001
tp3002
Rp3003
sg38
(lp3004
(g2997
g2999
F0.5
tp3005
a(g2997
g2995
F0.5
tp3006
a(g2999
g2995
F0.5
tp3007
assg3
F0.3333333333333333
sg68
(lp3008
(lp3009
g2997
aa(lp3010
g2999
aa(lp3011
g2995
aasg2
F0.3333333333333333
ssI138
(dp3012
g1
F0.0
sg7
(lp3013
(lp3014
S'general'
p3015
aa(lp3016
S'extensive'
p3017
aa(lp3018
S'complete'
p3019
aa(lp3020
S'universal'
p3021
aasg25
(dp3022
g27
g28
(g32
S'\x00\x00\x00\x00\x00\x00\x90?'
p3023
tp3024
Rp3025
sg38
(lp3026
(g3021
g3015
F0.5
tp3027
a(g3021
g3017
F0.5
tp3028
a(g3021
g3019
F0.5
tp3029
a(g3015
g3017
F0.5
tp3030
a(g3015
g3019
F0.5
tp3031
a(g3017
g3019
F0.5
tp3032
assg3
F0.5
sg68
(lp3033
(lp3034
g3021
aa(lp3035
g3015
aa(lp3036
g3017
aa(lp3037
g3019
aasg2
F0.0
ssI139
(dp3038
g1
F0.0
sg7
(lp3039
(lp3040
S'general'
p3041
aa(lp3042
S'extensive'
p3043
aa(lp3044
S'comprehensive'
p3045
aa(lp3046
S'universal'
p3047
aasg25
(dp3048
g27
g28
(g32
S'\x00\x00\x00\x00\x00\x00\x90?'
p3049
tp3050
Rp3051
sg38
(lp3052
(g3047
g3041
F0.5
tp3053
a(g3047
g3043
F0.5
tp3054
a(g3047
g3045
F0.5
tp3055
a(g3041
g3043
F0.5
tp3056
a(g3041
g3045
F0.5
tp3057
a(g3043
g3045
F0.5
tp3058
assg3
F0.5
sg68
(lp3059
(lp3060
g3047
aa(lp3061
g3041
aa(lp3062
g3043
aa(lp3063
g3045
aasg2
F0.0
ssI140
(dp3064
g1
F-1.0
sg7
(lp3065
(lp3066
S'alive'
p3067
aa(lp3068
S'awake'
p3069
aa(lp3070
S'aware'
p3071
aasg25
(dp3072
g27
g28
(g32
S'\x00\x00\x00\x00\x00\x00\xc0?'
p3073
tp3074
Rp3075
sg38
(lp3076
(g3071
g3069
F0.5
tp3077
a(g3071
g3067
F0.5
tp3078
a(g3069
g3067
F0.5
tp3079
assg3
F0.0
sg68
(lp3080
(lp3081
g3071
aa(lp3082
g3069
aa(lp3083
g3067
aasg2
F1.0
ssI141
(dp3084
g1
F-1.0
sg7
(lp3085
(lp3086
S'alive'
p3087
aa(lp3088
S'awake'
p3089
aa(lp3090
S'conscious'
p3091
aasg25
(dp3092
g27
g28
(g32
S'\x00\x00\x00\x00\x00\x00\xc0?'
p3093
tp3094
Rp3095
sg38
(lp3096
(g3091
g3089
F0.5
tp3097
a(g3091
g3087
F0.5
tp3098
a(g3089
g3087
F0.5
tp3099
assg3
F0.0
sg68
(lp3100
(lp3101
g3091
aa(lp3102
g3089
aa(lp3103
g3087
aasg2
F1.0
ssI142
(dp3104
g1
F-0.3333333333333333
sg7
(lp3105
(lp3106
S'interested'
p3107
aa(lp3108
S'concerned'
p3109
aa(lp3110
S'involved'
p3111
aasg25
(dp3112
g27
g28
(g32
S'\x00\x00\x00\x00\x00\x00\xc0?'
p3113
tp3114
Rp3115
sg38
(lp3116
(g3111
g3107
F0.5
tp3117
a(g3111
g3109
F0.5
tp3118
a(g3107
g3109
F0.5
tp3119
assg3
F0.3333333333333333
sg68
(lp3120
(lp3121
g3111
aa(lp3122
g3107
aa(lp3123
g3109
aasg2
F0.3333333333333333
ssI143
(dp3124
g1
F-0.3333333333333333
sg7
(lp3125
(lp3126
S'critical'
p3127
aa(lp3128
S'negative'
p3129
aa(lp3130
S'hostile'
p3131
aasg25
(dp3132
g27
g28
(g32
S'\x00\x00\x00\x00\x00\x00\xc0?'
p3133
tp3134
Rp3135
sg38
(lp3136
(g3129
g3131
F0.5
tp3137
a(g3129
g3127
F0.5
tp3138
a(g3131
g3127
F0.5
tp3139
assg3
F0.3333333333333333
sg68
(lp3140
(lp3141
g3129
aa(lp3142
g3131
aa(lp3143
g3127
aasg2
F0.3333333333333333
ssI144
(dp3144
g1
F-0.3333333333333333
sg7
(lp3145
(lp3146
S'hard'
p3147
aa(lp3148
S'painful'
p3149
aa(lp3150
S'hopeless'
p3151
aasg25
(dp3152
g27
g28
(g32
S'\x00\x00\x00\x00\x00\x00\xc0?'
p3153
tp3154
Rp3155
sg38
(lp3156
(g3149
g3151
F0.5
tp3157
a(g3149
g3147
F0.5
tp3158
a(g3151
g3147
F0.5
tp3159
assg3
F0.3333333333333333
sg68
(lp3160
(lp3161
g3149
aa(lp3162
g3151
aa(lp3163
g3147
aasg2
F0.3333333333333333
ssI145
(dp3164
g1
F1.0
sg7
(lp3165
(lp3166
S'happy'
p3167
aa(lp3168
S'euphoric'
p3169
aasg25
(dp3170
g27
g28
(g32
S'\x00\x00\x00\x00\x00\x00\xe0?'
p3171
tp3172
Rp3173
sg38
(lp3174
(g3167
g3169
F0.5
tp3175
assg3
F1.0
sg68
(lp3176
(lp3177
g3167
aa(lp3178
g3169
aasg2
F1.0
ssI146
(dp3179
g1
F-1.0
sg7
(lp3180
(lp3181
S'content'
p3182
aa(lp3183
S'euphoric'
p3184
aasg25
(dp3185
g27
g28
(g32
S'\x00\x00\x00\x00\x00\x00\xe0?'
p3186
tp3187
Rp3188
sg38
(lp3189
(g3184
g3182
F0.5
tp3190
assg3
F0.0
sg68
(lp3191
(lp3192
g3184
aa(lp3193
g3182
aasg2
F1.0
ssI147
(dp3194
g1
F-1.0
sg7
(lp3195
(lp3196
S'calm'
p3197
aa(lp3198
S'serene'
p3199
aasg25
(dp3200
g27
g28
(g32
S'\x00\x00\x00\x00\x00\x00\xe0?'
p3201
tp3202
Rp3203
sg38
(lp3204
(g3199
g3197
F0.5
tp3205
assg3
F0.0
sg68
(lp3206
(lp3207
g3199
aa(lp3208
g3197
aasg2
F1.0
ssI148
(dp3209
g1
F-1.0
sg7
(lp3210
(lp3211
S'cool'
p3212
aa(lp3213
S'serene'
p3214
aasg25
(dp3215
g27
g28
(g32
S'\x00\x00\x00\x00\x00\x00\xe0?'
p3216
tp3217
Rp3218
sg38
(lp3219
(g3214
g3212
F0.5
tp3220
assg3
F0.0
sg68
(lp3221
(lp3222
g3214
aa(lp3223
g3212
aasg2
F1.0
ssI149
(dp3224
g1
F0.3333333333333333
sg7
(lp3225
(lp3226
S'unreliable'
p3227
aa(lp3228
S'dangerous'
p3229
aa(lp3230
S'suicidal'
p3231
aasg25
(dp3232
g27
g28
(g32
S'\x00\x00\x00\x00\x00\x00\xc0?'
p3233
tp3234
Rp3235
sg38
(lp3236
(g3227
g3231
F0.5
tp3237
a(g3227
g3229
F0.5
tp3238
a(g3231
g3229
F0.5
tp3239
assg3
F0.6666666666666666
sg68
(lp3240
(lp3241
g3227
aa(lp3242
g3231
aa(lp3243
g3229
aasg2
F0.3333333333333333
ssI150
(dp3244
g1
F0.3333333333333333
sg7
(lp3245
(lp3246
S'unreliable'
p3247
aa(lp3248
S'risky'
p3249
aa(lp3250
S'suicidal'
p3251
aasg25
(dp3252
g27
g28
(g32
S'\x00\x00\x00\x00\x00\x00\xc0?'
p3253
tp3254
Rp3255
sg38
(lp3256
(g3247
g3251
F0.5
tp3257
a(g3247
g3249
F0.5
tp3258
a(g3251
g3249
F0.5
tp3259
assg3
F0.6666666666666666
sg68
(lp3260
(lp3261
g3247
aa(lp3262
g3251
aa(lp3263
g3249
aasg2
F0.3333333333333333
sss.