(dp0
S'tau'
p1
F-0.6638655462184874
sS'|tau|'
p2
F1.0
sS'pairwise'
p3
F0.16806722689075632
sS'ranking'
p4
(dp5
I0
(dp6
g1
F-1.0
sS'gold'
p7
(lp8
(lp9
S'large'
p10
aa(lp11
S'larger'
p12
aasS'raw'
p13
(dp14
S'prob*'
p15
cnumpy.core.multiarray
scalar
p16
(cnumpy
dtype
p17
(S'f8'
p18
I0
I1
tp19
Rp20
(I3
S'<'
p21
NNNI-1
I-1
I0
tp22
bS'\x00\x00\x00\x00\x00\x00\xe0?'
p23
tp24
Rp25
sS'link-probs'
p26
(lp27
(g12
g10
F0.5
tp28
assg3
F0.0
sS'algo'
p29
(lp30
(lp31
g12
aa(lp32
g10
aasg2
F1.0
ssI1
(dp33
g1
F-1.0
sg7
(lp34
(lp35
S'mean'
p36
aa(lp37
S'meaner'
p38
aasg13
(dp39
g15
g16
(g20
S'\x00\x00\x00\x00\x00\x00\xe0?'
p40
tp41
Rp42
sg26
(lp43
(g38
g36
F0.5
tp44
assg3
F0.0
sg29
(lp45
(lp46
g38
aa(lp47
g36
aasg2
F1.0
ssI2
(dp48
g1
F1.0
sg7
(lp49
(lp50
S'easy'
p51
aa(lp52
S'easier'
p53
aasg13
(dp54
g15
g16
(g20
S'\x00\x00\x00\x00\x00\x00\xe0?'
p55
tp56
Rp57
sg26
(lp58
(g51
g53
F0.5
tp59
assg3
F1.0
sg29
(lp60
(lp61
g51
aa(lp62
g53
aasg2
F1.0
ssI3
(dp63
g1
F-1.0
sg7
(lp64
(lp65
S'pure'
p66
aa(lp67
S'purer'
p68
aasg13
(dp69
g15
g16
(g20
S'\x00\x00\x00\x00\x00\x00\xe0?'
p70
tp71
Rp72
sg26
(lp73
(g68
g66
F0.5
tp74
assg3
F0.0
sg29
(lp75
(lp76
g68
aa(lp77
g66
aasg2
F1.0
ssI4
(dp78
g1
F-1.0
sg7
(lp79
(lp80
S'bold'
p81
aa(lp82
S'bolder'
p83
aasg13
(dp84
g15
g16
(g20
S'\x00\x00\x00\x00\x00\x00\xe0?'
p85
tp86
Rp87
sg26
(lp88
(g83
g81
F0.5
tp89
assg3
F0.0
sg29
(lp90
(lp91
g83
aa(lp92
g81
aasg2
F1.0
ssI5
(dp93
g1
F-1.0
sg7
(lp94
(lp95
S'stark'
p96
aa(lp97
S'starker'
p98
aasg13
(dp99
g15
g16
(g20
S'\x00\x00\x00\x00\x00\x00\xe0?'
p100
tp101
Rp102
sg26
(lp103
(g98
g96
F0.5
tp104
assg3
F0.0
sg29
(lp105
(lp106
g98
aa(lp107
g96
aasg2
F1.0
ssI6
(dp108
g1
F-1.0
sg7
(lp109
(lp110
S'close'
p111
aa(lp112
S'closer'
p113
aasg13
(dp114
g15
g16
(g20
S'\x00\x00\x00\x00\x00\x00\xe0?'
p115
tp116
Rp117
sg26
(lp118
(g113
g111
F0.5
tp119
assg3
F0.0
sg29
(lp120
(lp121
g113
aa(lp122
g111
aasg2
F1.0
ssI7
(dp123
g1
F-1.0
sg7
(lp124
(lp125
S'bright'
p126
aa(lp127
S'brighter'
p128
aasg13
(dp129
g15
g16
(g20
S'\x00\x00\x00\x00\x00\x00\xe0?'
p130
tp131
Rp132
sg26
(lp133
(g128
g126
F0.5
tp134
assg3
F0.0
sg29
(lp135
(lp136
g128
aa(lp137
g126
aasg2
F1.0
ssI8
(dp138
g1
F-1.0
sg7
(lp139
(lp140
S'smooth'
p141
aa(lp142
S'smoother'
p143
aasg13
(dp144
g15
g16
(g20
S'\x00\x00\x00\x00\x00\x00\xe0?'
p145
tp146
Rp147
sg26
(lp148
(g143
g141
F0.5
tp149
assg3
F0.0
sg29
(lp150
(lp151
g143
aa(lp152
g141
aasg2
F1.0
ssI9
(dp153
g1
F-1.0
sg7
(lp154
(lp155
S'many'
p156
aa(lp157
S'more'
p158
aasg13
(dp159
g15
g16
(g20
S'\x00\x00\x00\x00\x00\x00\xe0?'
p160
tp161
Rp162
sg26
(lp163
(g158
g156
F0.5
tp164
assg3
F0.0
sg29
(lp165
(lp166
g158
aa(lp167
g156
aasg2
F1.0
ssI10
(dp168
g1
F-1.0
sg7
(lp169
(lp170
S'cool'
p171
aa(lp172
S'cooler'
p173
aasg13
(dp174
g15
g16
(g20
S'\x00\x00\x00\x00\x00\x00\xe0?'
p175
tp176
Rp177
sg26
(lp178
(g173
g171
F0.5
tp179
assg3
F0.0
sg29
(lp180
(lp181
g173
aa(lp182
g171
aasg2
F1.0
ssI11
(dp183
g1
F-1.0
sg7
(lp184
(lp185
S'slow'
p186
aa(lp187
S'slower'
p188
aasg13
(dp189
g15
g16
(g20
S'\x00\x00\x00\x00\x00\x00\xe0?'
p190
tp191
Rp192
sg26
(lp193
(g188
g186
F0.5
tp194
assg3
F0.0
sg29
(lp195
(lp196
g188
aa(lp197
g186
aasg2
F1.0
ssI12
(dp198
g1
F-1.0
sg7
(lp199
(lp200
S'good'
p201
aa(lp202
S'great'
p203
aasg13
(dp204
g15
g16
(g20
S'\x00\x00\x00\x00\x00\x00\xe0?'
p205
tp206
Rp207
sg26
(lp208
(g203
g201
F0.5
tp209
assg3
F0.0
sg29
(lp210
(lp211
g203
aa(lp212
g201
aasg2
F1.0
ssI13
(dp213
g1
F-1.0
sg7
(lp214
(lp215
S'long'
p216
aa(lp217
S'longer'
p218
aasg13
(dp219
g15
g16
(g20
S'\x00\x00\x00\x00\x00\x00\xe0?'
p220
tp221
Rp222
sg26
(lp223
(g218
g216
F0.5
tp224
assg3
F0.0
sg29
(lp225
(lp226
g218
aa(lp227
g216
aasg2
F1.0
ssI14
(dp228
g1
F-1.0
sg7
(lp229
(lp230
S'light'
p231
aa(lp232
S'lighter'
p233
aasg13
(dp234
g15
g16
(g20
S'\x00\x00\x00\x00\x00\x00\xe0?'
p235
tp236
Rp237
sg26
(lp238
(g233
g231
F0.5
tp239
assg3
F0.0
sg29
(lp240
(lp241
g233
aa(lp242
g231
aasg2
F1.0
ssI15
(dp243
g1
F-1.0
sg7
(lp244
(lp245
S'hot'
p246
aa(lp247
S'hotter'
p248
aasg13
(dp249
g15
g16
(g20
S'\x00\x00\x00\x00\x00\x00\xe0?'
p250
tp251
Rp252
sg26
(lp253
(g248
g246
F0.5
tp254
assg3
F0.0
sg29
(lp255
(lp256
g248
aa(lp257
g246
aasg2
F1.0
ssI16
(dp258
g1
F-1.0
sg7
(lp259
(lp260
S'dre'
p261
aa(lp262
S'drier'
p263
aasg13
(dp264
g15
g16
(g20
S'\x00\x00\x00\x00\x00\x00\xe0?'
p265
tp266
Rp267
sg26
(lp268
(g263
g261
F0.5
tp269
assg3
F0.0
sg29
(lp270
(lp271
g263
aa(lp272
g261
aasg2
F1.0
ssI17
(dp273
g1
F1.0
sg7
(lp274
(lp275
S'some'
p276
aa(lp277
S'more'
p278
aasg13
(dp279
g15
g16
(g20
S'\x00\x00\x00\x00\x00\x00\xe0?'
p280
tp281
Rp282
sg26
(lp283
(g276
g278
F0.5
tp284
assg3
F1.0
sg29
(lp285
(lp286
g276
aa(lp287
g278
aasg2
F1.0
ssI18
(dp288
g1
F-1.0
sg7
(lp289
(lp290
S'less'
p291
aa(lp292
S'lesser'
p293
aasg13
(dp294
g15
g16
(g20
S'\x00\x00\x00\x00\x00\x00\xe0?'
p295
tp296
Rp297
sg26
(lp298
(g293
g291
F0.5
tp299
assg3
F0.0
sg29
(lp300
(lp301
g293
aa(lp302
g291
aasg2
F1.0
ssI19
(dp303
g1
F1.0
sg7
(lp304
(lp305
S'holy'
p306
aa(lp307
S'holier'
p308
aasg13
(dp309
g15
g16
(g20
S'\x00\x00\x00\x00\x00\x00\xe0?'
p310
tp311
Rp312
sg26
(lp313
(g306
g308
F0.5
tp314
assg3
F1.0
sg29
(lp315
(lp316
g306
aa(lp317
g308
aasg2
F1.0
ssI20
(dp318
g1
F-1.0
sg7
(lp319
(lp320
S'stupid'
p321
aa(lp322
S'stupider'
p323
aasg13
(dp324
g15
g16
(g20
S'\x00\x00\x00\x00\x00\x00\xe0?'
p325
tp326
Rp327
sg26
(lp328
(g323
g321
F0.5
tp329
assg3
F0.0
sg29
(lp330
(lp331
g323
aa(lp332
g321
aasg2
F1.0
ssI21
(dp333
g1
F1.0
sg7
(lp334
(lp335
S'pretty'
p336
aa(lp337
S'prettier'
p338
aasg13
(dp339
g15
g16
(g20
S'\x00\x00\x00\x00\x00\x00\xe0?'
p340
tp341
Rp342
sg26
(lp343
(g336
g338
F0.5
tp344
assg3
F1.0
sg29
(lp345
(lp346
g336
aa(lp347
g338
aasg2
F1.0
ssI22
(dp348
g1
F-1.0
sg7
(lp349
(lp350
S'rich'
p351
aa(lp352
S'richer'
p353
aasg13
(dp354
g15
g16
(g20
S'\x00\x00\x00\x00\x00\x00\xe0?'
p355
tp356
Rp357
sg26
(lp358
(g353
g351
F0.5
tp359
assg3
F0.0
sg29
(lp360
(lp361
g353
aa(lp362
g351
aasg2
F1.0
ssI23
(dp363
g1
F1.0
sg7
(lp364
(lp365
S'happy'
p366
aa(lp367
S'happier'
p368
aasg13
(dp369
g15
g16
(g20
S'\x00\x00\x00\x00\x00\x00\xe0?'
p370
tp371
Rp372
sg26
(lp373
(g366
g368
F0.5
tp374
assg3
F1.0
sg29
(lp375
(lp376
g366
aa(lp377
g368
aasg2
F1.0
ssI24
(dp378
g1
F-1.0
sg7
(lp379
(lp380
S'stupide'
p381
aa(lp382
S'stupider'
p383
aasg13
(dp384
g15
g16
(g20
S'\x00\x00\x00\x00\x00\x00\xe0?'
p385
tp386
Rp387
sg26
(lp388
(g383
g381
F0.5
tp389
assg3
F0.0
sg29
(lp390
(lp391
g383
aa(lp392
g381
aasg2
F1.0
ssI25
(dp393
g1
F-1.0
sg7
(lp394
(lp395
S'narrow'
p396
aa(lp397
S'narrower'
p398
aasg13
(dp399
g15
g16
(g20
S'\x00\x00\x00\x00\x00\x00\xe0?'
p400
tp401
Rp402
sg26
(lp403
(g398
g396
F0.5
tp404
assg3
F0.0
sg29
(lp405
(lp406
g398
aa(lp407
g396
aasg2
F1.0
ssI26
(dp408
g1
F-1.0
sg7
(lp409
(lp410
S'safe'
p411
aa(lp412
S'safer'
p413
aasg13
(dp414
g15
g16
(g20
S'\x00\x00\x00\x00\x00\x00\xe0?'
p415
tp416
Rp417
sg26
(lp418
(g413
g411
F0.5
tp419
assg3
F0.0
sg29
(lp420
(lp421
g413
aa(lp422
g411
aasg2
F1.0
ssI27
(dp423
g1
F-1.0
sg7
(lp424
(lp425
S'sick'
p426
aa(lp427
S'sicker'
p428
aasg13
(dp429
g15
g16
(g20
S'\x00\x00\x00\x00\x00\x00\xe0?'
p430
tp431
Rp432
sg26
(lp433
(g428
g426
F0.5
tp434
assg3
F0.0
sg29
(lp435
(lp436
g428
aa(lp437
g426
aasg2
F1.0
ssI28
(dp438
g1
F-1.0
sg7
(lp439
(lp440
S'grave'
p441
aa(lp442
S'graver'
p443
aasg13
(dp444
g15
g16
(g20
S'\x00\x00\x00\x00\x00\x00\xe0?'
p445
tp446
Rp447
sg26
(lp448
(g443
g441
F0.5
tp449
assg3
F0.0
sg29
(lp450
(lp451
g443
aa(lp452
g441
aasg2
F1.0
ssI29
(dp453
g1
F1.0
sg7
(lp454
(lp455
S'lovely'
p456
aa(lp457
S'lovelier'
p458
aasg13
(dp459
g15
g16
(g20
S'\x00\x00\x00\x00\x00\x00\xe0?'
p460
tp461
Rp462
sg26
(lp463
(g456
g458
F0.5
tp464
assg3
F1.0
sg29
(lp465
(lp466
g456
aa(lp467
g458
aasg2
F1.0
ssI30
(dp468
g1
F-1.0
sg7
(lp469
(lp470
S'subtle'
p471
aa(lp472
S'subtler'
p473
aasg13
(dp474
g15
g16
(g20
S'\x00\x00\x00\x00\x00\x00\xe0?'
p475
tp476
Rp477
sg26
(lp478
(g473
g471
F0.5
tp479
assg3
F0.0
sg29
(lp480
(lp481
g473
aa(lp482
g471
aasg2
F1.0
ssI31
(dp483
g1
F1.0
sg7
(lp484
(lp485
S'east'
p486
aa(lp487
S'easier'
p488
aasg13
(dp489
g15
g16
(g20
S'\x00\x00\x00\x00\x00\x00\xe0?'
p490
tp491
Rp492
sg26
(lp493
(g486
g488
F0.5
tp494
assg3
F1.0
sg29
(lp495
(lp496
g486
aa(lp497
g488
aasg2
F1.0
ssI32
(dp498
g1
F1.0
sg7
(lp499
(lp500
S'heavy'
p501
aa(lp502
S'heavier'
p503
aasg13
(dp504
g15
g16
(g20
S'\x00\x00\x00\x00\x00\x00\xe0?'
p505
tp506
Rp507
sg26
(lp508
(g501
g503
F0.5
tp509
assg3
F1.0
sg29
(lp510
(lp511
g501
aa(lp512
g503
aasg2
F1.0
ssI33
(dp513
g1
F-1.0
sg7
(lp514
(lp515
S'sweet'
p516
aa(lp517
S'sweeter'
p518
aasg13
(dp519
g15
g16
(g20
S'\x00\x00\x00\x00\x00\x00\xe0?'
p520
tp521
Rp522
sg26
(lp523
(g518
g516
F0.5
tp524
assg3
F0.0
sg29
(lp525
(lp526
g518
aa(lp527
g516
aasg2
F1.0
ssI34
(dp528
g1
F-1.0
sg7
(lp529
(lp530
S'weak'
p531
aa(lp532
S'weaker'
p533
aasg13
(dp534
g15
g16
(g20
S'\x00\x00\x00\x00\x00\x00\xe0?'
p535
tp536
Rp537
sg26
(lp538
(g533
g531
F0.5
tp539
assg3
F0.0
sg29
(lp540
(lp541
g533
aa(lp542
g531
aasg2
F1.0
ssI35
(dp543
g1
F-1.0
sg7
(lp544
(lp545
S'far'
p546
aa(lp547
S'further'
p548
aasg13
(dp549
g15
g16
(g20
S'\x00\x00\x00\x00\x00\x00\xe0?'
p550
tp551
Rp552
sg26
(lp553
(g548
g546
F0.5
tp554
assg3
F0.0
sg29
(lp555
(lp556
g548
aa(lp557
g546
aasg2
F1.0
ssI36
(dp558
g1
F-1.0
sg7
(lp559
(lp560
S'strange'
p561
aa(lp562
S'stranger'
p563
aasg13
(dp564
g15
g16
(g20
S'\x00\x00\x00\x00\x00\x00\xe0?'
p565
tp566
Rp567
sg26
(lp568
(g563
g561
F0.5
tp569
assg3
F0.0
sg29
(lp570
(lp571
g563
aa(lp572
g561
aasg2
F1.0
ssI37
(dp573
g1
F-1.0
sg7
(lp574
(lp575
S'far'
p576
aa(lp577
S'farther'
p578
aasg13
(dp579
g15
g16
(g20
S'\x00\x00\x00\x00\x00\x00\xe0?'
p580
tp581
Rp582
sg26
(lp583
(g578
g576
F0.5
tp584
assg3
F0.0
sg29
(lp585
(lp586
g578
aa(lp587
g576
aasg2
F1.0
ssI38
(dp588
g1
F1.0
sg7
(lp589
(lp590
S'lucky'
p591
aa(lp592
S'luckier'
p593
aasg13
(dp594
g15
g16
(g20
S'\x00\x00\x00\x00\x00\x00\xe0?'
p595
tp596
Rp597
sg26
(lp598
(g591
g593
F0.5
tp599
assg3
F1.0
sg29
(lp600
(lp601
g591
aa(lp602
g593
aasg2
F1.0
ssI39
(dp603
g1
F-1.0
sg7
(lp604
(lp605
S'new'
p606
aa(lp607
S'newer'
p608
aasg13
(dp609
g15
g16
(g20
S'\x00\x00\x00\x00\x00\x00\xe0?'
p610
tp611
Rp612
sg26
(lp613
(g608
g606
F0.5
tp614
assg3
F0.0
sg29
(lp615
(lp616
g608
aa(lp617
g606
aasg2
F1.0
ssI40
(dp618
g1
F-1.0
sg7
(lp619
(lp620
S'old'
p621
aa(lp622
S'older'
p623
aasg13
(dp624
g15
g16
(g20
S'\x00\x00\x00\x00\x00\x00\xe0?'
p625
tp626
Rp627
sg26
(lp628
(g623
g621
F0.5
tp629
assg3
F0.0
sg29
(lp630
(lp631
g623
aa(lp632
g621
aasg2
F1.0
ssI41
(dp633
g1
F-1.0
sg7
(lp634
(lp635
S'simple'
p636
aa(lp637
S'simpler'
p638
aasg13
(dp639
g15
g16
(g20
S'\x00\x00\x00\x00\x00\x00\xe0?'
p640
tp641
Rp642
sg26
(lp643
(g638
g636
F0.5
tp644
assg3
F0.0
sg29
(lp645
(lp646
g638
aa(lp647
g636
aasg2
F1.0
ssI42
(dp648
g1
F1.0
sg7
(lp649
(lp650
S'costly'
p651
aa(lp652
S'costlier'
p653
aasg13
(dp654
g15
g16
(g20
S'\x00\x00\x00\x00\x00\x00\xe0?'
p655
tp656
Rp657
sg26
(lp658
(g651
g653
F0.5
tp659
assg3
F1.0
sg29
(lp660
(lp661
g651
aa(lp662
g653
aasg2
F1.0
ssI43
(dp663
g1
F-1.0
sg7
(lp664
(lp665
S'scarce'
p666
aa(lp667
S'scarcer'
p668
aasg13
(dp669
g15
g16
(g20
S'\x00\x00\x00\x00\x00\x00\xe0?'
p670
tp671
Rp672
sg26
(lp673
(g668
g666
F0.5
tp674
assg3
F0.0
sg29
(lp675
(lp676
g668
aa(lp677
g666
aasg2
F1.0
ssI44
(dp678
g1
F-1.0
sg7
(lp679
(lp680
S'few'
p681
aa(lp682
S'fewer'
p683
aasg13
(dp684
g15
g16
(g20
S'\x00\x00\x00\x00\x00\x00\xe0?'
p685
tp686
Rp687
sg26
(lp688
(g683
g681
F0.5
tp689
assg3
F0.0
sg29
(lp690
(lp691
g683
aa(lp692
g681
aasg2
F1.0
ssI45
(dp693
g1
F-1.0
sg7
(lp694
(lp695
S'up'
p696
aa(lp697
S'upper'
p698
aasg13
(dp699
g15
g16
(g20
S'\x00\x00\x00\x00\x00\x00\xe0?'
p700
tp701
Rp702
sg26
(lp703
(g698
g696
F0.5
tp704
assg3
F0.0
sg29
(lp705
(lp706
g698
aa(lp707
g696
aasg2
F1.0
ssI46
(dp708
g1
F1.0
sg7
(lp709
(lp710
S'dirty'
p711
aa(lp712
S'dirtier'
p713
aasg13
(dp714
g15
g16
(g20
S'\x00\x00\x00\x00\x00\x00\xe0?'
p715
tp716
Rp717
sg26
(lp718
(g711
g713
F0.5
tp719
assg3
F1.0
sg29
(lp720
(lp721
g711
aa(lp722
g713
aasg2
F1.0
ssI47
(dp723
g1
F-1.0
sg7
(lp724
(lp725
S'low'
p726
aa(lp727
S'lower'
p728
aasg13
(dp729
g15
g16
(g20
S'\x00\x00\x00\x00\x00\x00\xe0?'
p730
tp731
Rp732
sg26
(lp733
(g728
g726
F0.5
tp734
assg3
F0.0
sg29
(lp735
(lp736
g728
aa(lp737
g726
aasg2
F1.0
ssI48
(dp738
g1
F-1.0
sg7
(lp739
(lp740
S'nice'
p741
aa(lp742
S'nicer'
p743
aasg13
(dp744
g15
g16
(g20
S'\x00\x00\x00\x00\x00\x00\xe0?'
p745
tp746
Rp747
sg26
(lp748
(g743
g741
F0.5
tp749
assg3
F0.0
sg29
(lp750
(lp751
g743
aa(lp752
g741
aasg2
F1.0
ssI49
(dp753
g1
F-1.0
sg7
(lp754
(lp755
S'sure'
p756
aa(lp757
S'surer'
p758
aasg13
(dp759
g15
g16
(g20
S'\x00\x00\x00\x00\x00\x00\xe0?'
p760
tp761
Rp762
sg26
(lp763
(g758
g756
F0.5
tp764
assg3
F0.0
sg29
(lp765
(lp766
g758
aa(lp767
g756
aasg2
F1.0
ssI50
(dp768
g1
F-1.0
sg7
(lp769
(lp770
S'cold'
p771
aa(lp772
S'colder'
p773
aasg13
(dp774
g15
g16
(g20
S'\x00\x00\x00\x00\x00\x00\xe0?'
p775
tp776
Rp777
sg26
(lp778
(g773
g771
F0.5
tp779
assg3
F0.0
sg29
(lp780
(lp781
g773
aa(lp782
g771
aasg2
F1.0
ssI51
(dp783
g1
F-1.0
sg7
(lp784
(lp785
S'rare'
p786
aa(lp787
S'rarer'
p788
aasg13
(dp789
g15
g16
(g20
S'\x00\x00\x00\x00\x00\x00\xe0?'
p790
tp791
Rp792
sg26
(lp793
(g788
g786
F0.5
tp794
assg3
F0.0
sg29
(lp795
(lp796
g788
aa(lp797
g786
aasg2
F1.0
ssI52
(dp798
g1
F-1.0
sg7
(lp799
(lp800
S'brave'
p801
aa(lp802
S'braver'
p803
aasg13
(dp804
g15
g16
(g20
S'\x00\x00\x00\x00\x00\x00\xe0?'
p805
tp806
Rp807
sg26
(lp808
(g803
g801
F0.5
tp809
assg3
F0.0
sg29
(lp810
(lp811
g803
aa(lp812
g801
aasg2
F1.0
ssI53
(dp813
g1
F-1.0
sg7
(lp814
(lp815
S'proud'
p816
aa(lp817
S'prouder'
p818
aasg13
(dp819
g15
g16
(g20
S'\x00\x00\x00\x00\x00\x00\xe0?'
p820
tp821
Rp822
sg26
(lp823
(g818
g816
F0.5
tp824
assg3
F0.0
sg29
(lp825
(lp826
g818
aa(lp827
g816
aasg2
F1.0
ssI54
(dp828
g1
F-1.0
sg7
(lp829
(lp830
S'clean'
p831
aa(lp832
S'cleaner'
p833
aasg13
(dp834
g15
g16
(g20
S'\x00\x00\x00\x00\x00\x00\xe0?'
p835
tp836
Rp837
sg26
(lp838
(g833
g831
F0.5
tp839
assg3
F0.0
sg29
(lp840
(lp841
g833
aa(lp842
g831
aasg2
F1.0
ssI55
(dp843
g1
F1.0
sg7
(lp844
(lp845
S'much'
p846
aa(lp847
S'more'
p848
aasg13
(dp849
g15
g16
(g20
S'\x00\x00\x00\x00\x00\x00\xe0?'
p850
tp851
Rp852
sg26
(lp853
(g846
g848
F0.5
tp854
assg3
F1.0
sg29
(lp855
(lp856
g846
aa(lp857
g848
aasg2
F1.0
ssI56
(dp858
g1
F-1.0
sg7
(lp859
(lp860
S'noble'
p861
aa(lp862
S'nobler'
p863
aasg13
(dp864
g15
g16
(g20
S'\x00\x00\x00\x00\x00\x00\xe0?'
p865
tp866
Rp867
sg26
(lp868
(g863
g861
F0.5
tp869
assg3
F0.0
sg29
(lp870
(lp871
g863
aa(lp872
g861
aasg2
F1.0
ssI57
(dp873
g1
F-1.0
sg7
(lp874
(lp875
S'fast'
p876
aa(lp877
S'faster'
p878
aasg13
(dp879
g15
g16
(g20
S'\x00\x00\x00\x00\x00\x00\xe0?'
p880
tp881
Rp882
sg26
(lp883
(g878
g876
F0.5
tp884
assg3
F0.0
sg29
(lp885
(lp886
g878
aa(lp887
g876
aasg2
F1.0
ssI58
(dp888
g1
F-1.0
sg7
(lp889
(lp890
S'deep'
p891
aa(lp892
S'deeper'
p893
aasg13
(dp894
g15
g16
(g20
S'\x00\x00\x00\x00\x00\x00\xe0?'
p895
tp896
Rp897
sg26
(lp898
(g893
g891
F0.5
tp899
assg3
F0.0
sg29
(lp900
(lp901
g893
aa(lp902
g891
aasg2
F1.0
ssI59
(dp903
g1
F-1.0
sg7
(lp904
(lp905
S'moist'
p906
aa(lp907
S'moister'
p908
aasg13
(dp909
g15
g16
(g20
S'\x00\x00\x00\x00\x00\x00\xe0?'
p910
tp911
Rp912
sg26
(lp913
(g908
g906
F0.5
tp914
assg3
F0.0
sg29
(lp915
(lp916
g908
aa(lp917
g906
aasg2
F1.0
ssI60
(dp918
g1
F-1.0
sg7
(lp919
(lp920
S'weird'
p921
aa(lp922
S'weirder'
p923
aasg13
(dp924
g15
g16
(g20
S'\x00\x00\x00\x00\x00\x00\xe0?'
p925
tp926
Rp927
sg26
(lp928
(g923
g921
F0.5
tp929
assg3
F0.0
sg29
(lp930
(lp931
g923
aa(lp932
g921
aasg2
F1.0
ssI61
(dp933
g1
F-1.0
sg7
(lp934
(lp935
S'wise'
p936
aa(lp937
S'wiser'
p938
aasg13
(dp939
g15
g16
(g20
S'\x00\x00\x00\x00\x00\x00\xe0?'
p940
tp941
Rp942
sg26
(lp943
(g938
g936
F0.5
tp944
assg3
F0.0
sg29
(lp945
(lp946
g938
aa(lp947
g936
aasg2
F1.0
ssI62
(dp948
g1
F-1.0
sg7
(lp949
(lp950
S'sound'
p951
aa(lp952
S'sounder'
p953
aasg13
(dp954
g15
g16
(g20
S'\x00\x00\x00\x00\x00\x00\xe0?'
p955
tp956
Rp957
sg26
(lp958
(g953
g951
F0.5
tp959
assg3
F0.0
sg29
(lp960
(lp961
g953
aa(lp962
g951
aasg2
F1.0
ssI63
(dp963
g1
F-1.0
sg7
(lp964
(lp965
S'soft'
p966
aa(lp967
S'softer'
p968
aasg13
(dp969
g15
g16
(g20
S'\x00\x00\x00\x00\x00\x00\xe0?'
p970
tp971
Rp972
sg26
(lp973
(g968
g966
F0.5
tp974
assg3
F0.0
sg29
(lp975
(lp976
g968
aa(lp977
g966
aasg2
F1.0
ssI64
(dp978
g1
F1.0
sg7
(lp979
(lp980
S'mighty'
p981
aa(lp982
S'mightier'
p983
aasg13
(dp984
g15
g16
(g20
S'\x00\x00\x00\x00\x00\x00\xe0?'
p985
tp986
Rp987
sg26
(lp988
(g981
g983
F0.5
tp989
assg3
F1.0
sg29
(lp990
(lp991
g981
aa(lp992
g983
aasg2
F1.0
ssI65
(dp993
g1
F1.0
sg7
(lp994
(lp995
S'little'
p996
aa(lp997
S'less'
p998
aasg13
(dp999
g15
g16
(g20
S'\x00\x00\x00\x00\x00\x00\xe0?'
p1000
tp1001
Rp1002
sg26
(lp1003
(g996
g998
F0.5
tp1004
assg3
F1.0
sg29
(lp1005
(lp1006
g996
aa(lp1007
g998
aasg2
F1.0
ssI66
(dp1008
g1
F-1.0
sg7
(lp1009
(lp1010
S'tough'
p1011
aa(lp1012
S'tougher'
p1013
aasg13
(dp1014
g15
g16
(g20
S'\x00\x00\x00\x00\x00\x00\xe0?'
p1015
tp1016
Rp1017
sg26
(lp1018
(g1013
g1011
F0.5
tp1019
assg3
F0.0
sg29
(lp1020
(lp1021
g1013
aa(lp1022
g1011
aasg2
F1.0
ssI67
(dp1023
g1
F-1.0
sg7
(lp1024
(lp1025
S'quiet'
p1026
aa(lp1027
S'quieter'
p1028
aasg13
(dp1029
g15
g16
(g20
S'\x00\x00\x00\x00\x00\x00\xe0?'
p1030
tp1031
Rp1032
sg26
(lp1033
(g1028
g1026
F0.5
tp1034
assg3
F0.0
sg29
(lp1035
(lp1036
g1028
aa(lp1037
g1026
aasg2
F1.0
ssI68
(dp1038
g1
F-1.0
sg7
(lp1039
(lp1040
S'broad'
p1041
aa(lp1042
S'broader'
p1043
aasg13
(dp1044
g15
g16
(g20
S'\x00\x00\x00\x00\x00\x00\xe0?'
p1045
tp1046
Rp1047
sg26
(lp1048
(g1043
g1041
F0.5
tp1049
assg3
F0.0
sg29
(lp1050
(lp1051
g1043
aa(lp1052
g1041
aasg2
F1.0
ssI69
(dp1053
g1
F1.0
sg7
(lp1054
(lp1055
S'healthy'
p1056
aa(lp1057
S'healthier'
p1058
aasg13
(dp1059
g15
g16
(g20
S'\x00\x00\x00\x00\x00\x00\xe0?'
p1060
tp1061
Rp1062
sg26
(lp1063
(g1056
g1058
F0.5
tp1064
assg3
F1.0
sg29
(lp1065
(lp1066
g1056
aa(lp1067
g1058
aasg2
F1.0
ssI70
(dp1068
g1
F-1.0
sg7
(lp1069
(lp1070
S'wide'
p1071
aa(lp1072
S'wider'
p1073
aasg13
(dp1074
g15
g16
(g20
S'\x00\x00\x00\x00\x00\x00\xe0?'
p1075
tp1076
Rp1077
sg26
(lp1078
(g1073
g1071
F0.5
tp1079
assg3
F0.0
sg29
(lp1080
(lp1081
g1073
aa(lp1082
g1071
aasg2
F1.0
ssI71
(dp1083
g1
F1.0
sg7
(lp1084
(lp1085
S'timely'
p1086
aa(lp1087
S'timelier'
p1088
aasg13
(dp1089
g15
g16
(g20
S'\x00\x00\x00\x00\x00\x00\xe0?'
p1090
tp1091
Rp1092
sg26
(lp1093
(g1086
g1088
F0.5
tp1094
assg3
F1.0
sg29
(lp1095
(lp1096
g1086
aa(lp1097
g1088
aasg2
F1.0
ssI72
(dp1098
g1
F-1.0
sg7
(lp1099
(lp1100
S'soon'
p1101
aa(lp1102
S'sooner'
p1103
aasg13
(dp1104
g15
g16
(g20
S'\x00\x00\x00\x00\x00\x00\xe0?'
p1105
tp1106
Rp1107
sg26
(lp1108
(g1103
g1101
F0.5
tp1109
assg3
F0.0
sg29
(lp1110
(lp1111
g1103
aa(lp1112
g1101
aasg2
F1.0
ssI73
(dp1113
g1
F1.0
sg7
(lp1114
(lp1115
S'busy'
p1116
aa(lp1117
S'busier'
p1118
aasg13
(dp1119
g15
g16
(g20
S'\x00\x00\x00\x00\x00\x00\xe0?'
p1120
tp1121
Rp1122
sg26
(lp1123
(g1116
g1118
F0.5
tp1124
assg3
F1.0
sg29
(lp1125
(lp1126
g1116
aa(lp1127
g1118
aasg2
F1.0
ssI74
(dp1128
g1
F1.0
sg7
(lp1129
(lp1130
S'sunny'
p1131
aa(lp1132
S'sunnier'
p1133
aasg13
(dp1134
g15
g16
(g20
S'\x00\x00\x00\x00\x00\x00\xe0?'
p1135
tp1136
Rp1137
sg26
(lp1138
(g1131
g1133
F0.5
tp1139
assg3
F1.0
sg29
(lp1140
(lp1141
g1131
aa(lp1142
g1133
aasg2
F1.0
ssI75
(dp1143
g1
F-1.0
sg7
(lp1144
(lp1145
S'dumb'
p1146
aa(lp1147
S'dumber'
p1148
aasg13
(dp1149
g15
g16
(g20
S'\x00\x00\x00\x00\x00\x00\xe0?'
p1150
tp1151
Rp1152
sg26
(lp1153
(g1148
g1146
F0.5
tp1154
assg3
F0.0
sg29
(lp1155
(lp1156
g1148
aa(lp1157
g1146
aasg2
F1.0
ssI76
(dp1158
g1
F-1.0
sg7
(lp1159
(lp1160
S'fine'
p1161
aa(lp1162
S'finer'
p1163
aasg13
(dp1164
g15
g16
(g20
S'\x00\x00\x00\x00\x00\x00\xe0?'
p1165
tp1166
Rp1167
sg26
(lp1168
(g1163
g1161
F0.5
tp1169
assg3
F0.0
sg29
(lp1170
(lp1171
g1163
aa(lp1172
g1161
aasg2
F1.0
ssI77
(dp1173
g1
F-1.0
sg7
(lp1174
(lp1175
S'short'
p1176
aa(lp1177
S'shorter'
p1178
aasg13
(dp1179
g15
g16
(g20
S'\x00\x00\x00\x00\x00\x00\xe0?'
p1180
tp1181
Rp1182
sg26
(lp1183
(g1178
g1176
F0.5
tp1184
assg3
F0.0
sg29
(lp1185
(lp1186
g1178
aa(lp1187
g1176
aasg2
F1.0
ssI78
(dp1188
g1
F-1.0
sg7
(lp1189
(lp1190
S'hard'
p1191
aa(lp1192
S'harder'
p1193
aasg13
(dp1194
g15
g16
(g20
S'\x00\x00\x00\x00\x00\x00\xe0?'
p1195
tp1196
Rp1197
sg26
(lp1198
(g1193
g1191
F0.5
tp1199
assg3
F0.0
sg29
(lp1200
(lp1201
g1193
aa(lp1202
g1191
aasg2
F1.0
ssI79
(dp1203
g1
F-1.0
sg7
(lp1204
(lp1205
S'grim'
p1206
aa(lp1207
S'grimmer'
p1208
aasg13
(dp1209
g15
g16
(g20
S'\x00\x00\x00\x00\x00\x00\xe0?'
p1210
tp1211
Rp1212
sg26
(lp1213
(g1208
g1206
F0.5
tp1214
assg3
F0.0
sg29
(lp1215
(lp1216
g1208
aa(lp1217
g1206
aasg2
F1.0
ssI80
(dp1218
g1
F-1.0
sg7
(lp1219
(lp1220
S'sad'
p1221
aa(lp1222
S'sadder'
p1223
aasg13
(dp1224
g15
g16
(g20
S'\x00\x00\x00\x00\x00\x00\xe0?'
p1225
tp1226
Rp1227
sg26
(lp1228
(g1223
g1221
F0.5
tp1229
assg3
F0.0
sg29
(lp1230
(lp1231
g1223
aa(lp1232
g1221
aasg2
F1.0
ssI81
(dp1233
g1
F-1.0
sg7
(lp1234
(lp1235
S'late'
p1236
aa(lp1237
S'later'
p1238
aasg13
(dp1239
g15
g16
(g20
S'\x00\x00\x00\x00\x00\x00\xe0?'
p1240
tp1241
Rp1242
sg26
(lp1243
(g1238
g1236
F0.5
tp1244
assg3
F0.0
sg29
(lp1245
(lp1246
g1238
aa(lp1247
g1236
aasg2
F1.0
ssI82
(dp1248
g1
F-1.0
sg7
(lp1249
(lp1250
S'high'
p1251
aa(lp1252
S'higher'
p1253
aasg13
(dp1254
g15
g16
(g20
S'\x00\x00\x00\x00\x00\x00\xe0?'
p1255
tp1256
Rp1257
sg26
(lp1258
(g1253
g1251
F0.5
tp1259
assg3
F0.0
sg29
(lp1260
(lp1261
g1253
aa(lp1262
g1251
aasg2
F1.0
ssI83
(dp1263
g1
F-1.0
sg7
(lp1264
(lp1265
S'bad'
p1266
aa(lp1267
S'worse'
p1268
aasg13
(dp1269
g15
g16
(g20
S'\x00\x00\x00\x00\x00\x00\xe0?'
p1270
tp1271
Rp1272
sg26
(lp1273
(g1268
g1266
F0.5
tp1274
assg3
F0.0
sg29
(lp1275
(lp1276
g1268
aa(lp1277
g1266
aasg2
F1.0
ssI84
(dp1278
g1
F-1.0
sg7
(lp1279
(lp1280
S'tight'
p1281
aa(lp1282
S'tighter'
p1283
aasg13
(dp1284
g15
g16
(g20
S'\x00\x00\x00\x00\x00\x00\xe0?'
p1285
tp1286
Rp1287
sg26
(lp1288
(g1283
g1281
F0.5
tp1289
assg3
F0.0
sg29
(lp1290
(lp1291
g1283
aa(lp1292
g1281
aasg2
F1.0
ssI85
(dp1293
g1
F-1.0
sg7
(lp1294
(lp1295
S'thin'
p1296
aa(lp1297
S'thinner'
p1298
aasg13
(dp1299
g15
g16
(g20
S'\x00\x00\x00\x00\x00\x00\xe0?'
p1300
tp1301
Rp1302
sg26
(lp1303
(g1298
g1296
F0.5
tp1304
assg3
F0.0
sg29
(lp1305
(lp1306
g1298
aa(lp1307
g1296
aasg2
F1.0
ssI86
(dp1308
g1
F1.0
sg7
(lp1309
(lp1310
S'wealthy'
p1311
aa(lp1312
S'wealthier'
p1313
aasg13
(dp1314
g15
g16
(g20
S'\x00\x00\x00\x00\x00\x00\xe0?'
p1315
tp1316
Rp1317
sg26
(lp1318
(g1311
g1313
F0.5
tp1319
assg3
F1.0
sg29
(lp1320
(lp1321
g1311
aa(lp1322
g1313
aasg2
F1.0
ssI87
(dp1323
g1
F-1.0
sg7
(lp1324
(lp1325
S'quick'
p1326
aa(lp1327
S'quicker'
p1328
aasg13
(dp1329
g15
g16
(g20
S'\x00\x00\x00\x00\x00\x00\xe0?'
p1330
tp1331
Rp1332
sg26
(lp1333
(g1328
g1326
F0.5
tp1334
assg3
F0.0
sg29
(lp1335
(lp1336
g1328
aa(lp1337
g1326
aasg2
F1.0
ssI88
(dp1338
g1
F-1.0
sg7
(lp1339
(lp1340
S'tall'
p1341
aa(lp1342
S'taller'
p1343
aasg13
(dp1344
g15
g16
(g20
S'\x00\x00\x00\x00\x00\x00\xe0?'
p1345
tp1346
Rp1347
sg26
(lp1348
(g1343
g1341
F0.5
tp1349
assg3
F0.0
sg29
(lp1350
(lp1351
g1343
aa(lp1352
g1341
aasg2
F1.0
ssI89
(dp1353
g1
F-1.0
sg7
(lp1354
(lp1355
S'dead'
p1356
aa(lp1357
S'deader'
p1358
aasg13
(dp1359
g15
g16
(g20
S'\x00\x00\x00\x00\x00\x00\xe0?'
p1360
tp1361
Rp1362
sg26
(lp1363
(g1358
g1356
F0.5
tp1364
assg3
F0.0
sg29
(lp1365
(lp1366
g1358
aa(lp1367
g1356
aasg2
F1.0
ssI90
(dp1368
g1
F-1.0
sg7
(lp1369
(lp1370
S'true'
p1371
aa(lp1372
S'truer'
p1373
aasg13
(dp1374
g15
g16
(g20
S'\x00\x00\x00\x00\x00\x00\xe0?'
p1375
tp1376
Rp1377
sg26
(lp1378
(g1373
g1371
F0.5
tp1379
assg3
F0.0
sg29
(lp1380
(lp1381
g1373
aa(lp1382
g1371
aasg2
F1.0
ssI91
(dp1383
g1
F-1.0
sg7
(lp1384
(lp1385
S'steep'
p1386
aa(lp1387
S'steeper'
p1388
aasg13
(dp1389
g15
g16
(g20
S'\x00\x00\x00\x00\x00\x00\xe0?'
p1390
tp1391
Rp1392
sg26
(lp1393
(g1388
g1386
F0.5
tp1394
assg3
F0.0
sg29
(lp1395
(lp1396
g1388
aa(lp1397
g1386
aasg2
F1.0
ssI92
(dp1398
g1
F-1.0
sg7
(lp1399
(lp1400
S'big'
p1401
aa(lp1402
S'bigger'
p1403
aasg13
(dp1404
g15
g16
(g20
S'\x00\x00\x00\x00\x00\x00\xe0?'
p1405
tp1406
Rp1407
sg26
(lp1408
(g1403
g1401
F0.5
tp1409
assg3
F0.0
sg29
(lp1410
(lp1411
g1403
aa(lp1412
g1401
aasg2
F1.0
ssI93
(dp1413
g1
F-1.0
sg7
(lp1414
(lp1415
S'strict'
p1416
aa(lp1417
S'stricter'
p1418
aasg13
(dp1419
g15
g16
(g20
S'\x00\x00\x00\x00\x00\x00\xe0?'
p1420
tp1421
Rp1422
sg26
(lp1423
(g1418
g1416
F0.5
tp1424
assg3
F0.0
sg29
(lp1425
(lp1426
g1418
aa(lp1427
g1416
aasg2
F1.0
ssI94
(dp1428
g1
F-1.0
sg7
(lp1429
(lp1430
S'clear'
p1431
aa(lp1432
S'clearer'
p1433
aasg13
(dp1434
g15
g16
(g20
S'\x00\x00\x00\x00\x00\x00\xe0?'
p1435
tp1436
Rp1437
sg26
(lp1438
(g1433
g1431
F0.5
tp1439
assg3
F0.0
sg29
(lp1440
(lp1441
g1433
aa(lp1442
g1431
aasg2
F1.0
ssI95
(dp1443
g1
F-1.0
sg7
(lp1444
(lp1445
S'ill'
p1446
aa(lp1447
S'worse'
p1448
aasg13
(dp1449
g15
g16
(g20
S'\x00\x00\x00\x00\x00\x00\xe0?'
p1450
tp1451
Rp1452
sg26
(lp1453
(g1448
g1446
F0.5
tp1454
assg3
F0.0
sg29
(lp1455
(lp1456
g1448
aa(lp1457
g1446
aasg2
F1.0
ssI96
(dp1458
g1
F-1.0
sg7
(lp1459
(lp1460
S'young'
p1461
aa(lp1462
S'younger'
p1463
aasg13
(dp1464
g15
g16
(g20
S'\x00\x00\x00\x00\x00\x00\xe0?'
p1465
tp1466
Rp1467
sg26
(lp1468
(g1463
g1461
F0.5
tp1469
assg3
F0.0
sg29
(lp1470
(lp1471
g1463
aa(lp1472
g1461
aasg2
F1.0
ssI97
(dp1473
g1
F-1.0
sg7
(lp1474
(lp1475
S'loose'
p1476
aa(lp1477
S'looser'
p1478
aasg13
(dp1479
g15
g16
(g20
S'\x00\x00\x00\x00\x00\x00\xe0?'
p1480
tp1481
Rp1482
sg26
(lp1483
(g1478
g1476
F0.5
tp1484
assg3
F0.0
sg29
(lp1485
(lp1486
g1478
aa(lp1487
g1476
aasg2
F1.0
ssI98
(dp1488
g1
F-1.0
sg7
(lp1489
(lp1490
S'smart'
p1491
aa(lp1492
S'smarter'
p1493
aasg13
(dp1494
g15
g16
(g20
S'\x00\x00\x00\x00\x00\x00\xe0?'
p1495
tp1496
Rp1497
sg26
(lp1498
(g1493
g1491
F0.5
tp1499
assg3
F0.0
sg29
(lp1500
(lp1501
g1493
aa(lp1502
g1491
aasg2
F1.0
ssI99
(dp1503
g1
F-1.0
sg7
(lp1504
(lp1505
S'green'
p1506
aa(lp1507
S'greener'
p1508
aasg13
(dp1509
g15
g16
(g20
S'\x00\x00\x00\x00\x00\x00\xe0?'
p1510
tp1511
Rp1512
sg26
(lp1513
(g1508
g1506
F0.5
tp1514
assg3
F0.0
sg29
(lp1515
(lp1516
g1508
aa(lp1517
g1506
aasg2
F1.0
ssI100
(dp1518
g1
F-1.0
sg7
(lp1519
(lp1520
S'wet'
p1521
aa(lp1522
S'wetter'
p1523
aasg13
(dp1524
g15
g16
(g20
S'\x00\x00\x00\x00\x00\x00\xe0?'
p1525
tp1526
Rp1527
sg26
(lp1528
(g1523
g1521
F0.5
tp1529
assg3
F0.0
sg29
(lp1530
(lp1531
g1523
aa(lp1532
g1521
aasg2
F1.0
ssI101
(dp1533
g1
F-1.0
sg7
(lp1534
(lp1535
S'dense'
p1536
aa(lp1537
S'denser'
p1538
aasg13
(dp1539
g15
g16
(g20
S'\x00\x00\x00\x00\x00\x00\xe0?'
p1540
tp1541
Rp1542
sg26
(lp1543
(g1538
g1536
F0.5
tp1544
assg3
F0.0
sg29
(lp1545
(lp1546
g1538
aa(lp1547
g1536
aasg2
F1.0
ssI102
(dp1548
g1
F-1.0
sg7
(lp1549
(lp1550
S'fair'
p1551
aa(lp1552
S'fairer'
p1553
aasg13
(dp1554
g15
g16
(g20
S'\x00\x00\x00\x00\x00\x00\xe0?'
p1555
tp1556
Rp1557
sg26
(lp1558
(g1553
g1551
F0.5
tp1559
assg3
F0.0
sg29
(lp1560
(lp1561
g1553
aa(lp1562
g1551
aasg2
F1.0
ssI103
(dp1563
g1
F-1.0
sg7
(lp1564
(lp1565
S'warm'
p1566
aa(lp1567
S'warmer'
p1568
aasg13
(dp1569
g15
g16
(g20
S'\x00\x00\x00\x00\x00\x00\xe0?'
p1570
tp1571
Rp1572
sg26
(lp1573
(g1568
g1566
F0.5
tp1574
assg3
F0.0
sg29
(lp1575
(lp1576
g1568
aa(lp1577
g1566
aasg2
F1.0
ssI104
(dp1578
g1
F1.0
sg7
(lp1579
(lp1580
S'friendly'
p1581
aa(lp1582
S'friendlier'
p1583
aasg13
(dp1584
g15
g16
(g20
S'\x00\x00\x00\x00\x00\x00\xe0?'
p1585
tp1586
Rp1587
sg26
(lp1588
(g1581
g1583
F0.5
tp1589
assg3
F1.0
sg29
(lp1590
(lp1591
g1581
aa(lp1592
g1583
aasg2
F1.0
ssI105
(dp1593
g1
F-1.0
sg7
(lp1594
(lp1595
S'swift'
p1596
aa(lp1597
S'swifter'
p1598
aasg13
(dp1599
g15
g16
(g20
S'\x00\x00\x00\x00\x00\x00\xe0?'
p1600
tp1601
Rp1602
sg26
(lp1603
(g1598
g1596
F0.5
tp1604
assg3
F0.0
sg29
(lp1605
(lp1606
g1598
aa(lp1607
g1596
aasg2
F1.0
ssI106
(dp1608
g1
F-1.0
sg7
(lp1609
(lp1610
S'dark'
p1611
aa(lp1612
S'darker'
p1613
aasg13
(dp1614
g15
g16
(g20
S'\x00\x00\x00\x00\x00\x00\xe0?'
p1615
tp1616
Rp1617
sg26
(lp1618
(g1613
g1611
F0.5
tp1619
assg3
F0.0
sg29
(lp1620
(lp1621
g1613
aa(lp1622
g1611
aasg2
F1.0
ssI107
(dp1623
g1
F-1.0
sg7
(lp1624
(lp1625
S'poor'
p1626
aa(lp1627
S'poorer'
p1628
aasg13
(dp1629
g15
g16
(g20
S'\x00\x00\x00\x00\x00\x00\xe0?'
p1630
tp1631
Rp1632
sg26
(lp1633
(g1628
g1626
F0.5
tp1634
assg3
F0.0
sg29
(lp1635
(lp1636
g1628
aa(lp1637
g1626
aasg2
F1.0
ssI108
(dp1638
g1
F-1.0
sg7
(lp1639
(lp1640
S'full'
p1641
aa(lp1642
S'fuller'
p1643
aasg13
(dp1644
g15
g16
(g20
S'\x00\x00\x00\x00\x00\x00\xe0?'
p1645
tp1646
Rp1647
sg26
(lp1648
(g1643
g1641
F0.5
tp1649
assg3
F0.0
sg29
(lp1650
(lp1651
g1643
aa(lp1652
g1641
aasg2
F1.0
ssI109
(dp1653
g1
F-1.0
sg7
(lp1654
(lp1655
S'thick'
p1656
aa(lp1657
S'thicker'
p1658
aasg13
(dp1659
g15
g16
(g20
S'\x00\x00\x00\x00\x00\x00\xe0?'
p1660
tp1661
Rp1662
sg26
(lp1663
(g1658
g1656
F0.5
tp1664
assg3
F0.0
sg29
(lp1665
(lp1666
g1658
aa(lp1667
g1656
aasg2
F1.0
ssI110
(dp1668
g1
F-1.0
sg7
(lp1669
(lp1670
S'fierce'
p1671
aa(lp1672
S'fiercer'
p1673
aasg13
(dp1674
g15
g16
(g20
S'\x00\x00\x00\x00\x00\x00\xe0?'
p1675
tp1676
Rp1677
sg26
(lp1678
(g1673
g1671
F0.5
tp1679
assg3
F0.0
sg29
(lp1680
(lp1681
g1673
aa(lp1682
g1671
aasg2
F1.0
ssI111
(dp1683
g1
F-1.0
sg7
(lp1684
(lp1685
S'great'
p1686
aa(lp1687
S'greater'
p1688
aasg13
(dp1689
g15
g16
(g20
S'\x00\x00\x00\x00\x00\x00\xe0?'
p1690
tp1691
Rp1692
sg26
(lp1693
(g1688
g1686
F0.5
tp1694
assg3
F0.0
sg29
(lp1695
(lp1696
g1688
aa(lp1697
g1686
aasg2
F1.0
ssI112
(dp1698
g1
F1.0
sg7
(lp1699
(lp1700
S'speedy'
p1701
aa(lp1702
S'speedier'
p1703
aasg13
(dp1704
g15
g16
(g20
S'\x00\x00\x00\x00\x00\x00\xe0?'
p1705
tp1706
Rp1707
sg26
(lp1708
(g1701
g1703
F0.5
tp1709
assg3
F1.0
sg29
(lp1710
(lp1711
g1701
aa(lp1712
g1703
aasg2
F1.0
ssI113
(dp1713
g1
F1.0
sg7
(lp1714
(lp1715
S'early'
p1716
aa(lp1717
S'earlier'
p1718
aasg13
(dp1719
g15
g16
(g20
S'\x00\x00\x00\x00\x00\x00\xe0?'
p1720
tp1721
Rp1722
sg26
(lp1723
(g1716
g1718
F0.5
tp1724
assg3
F1.0
sg29
(lp1725
(lp1726
g1716
aa(lp1727
g1718
aasg2
F1.0
ssI114
(dp1728
g1
F-1.0
sg7
(lp1729
(lp1730
S'dear'
p1731
aa(lp1732
S'dearer'
p1733
aasg13
(dp1734
g15
g16
(g20
S'\x00\x00\x00\x00\x00\x00\xe0?'
p1735
tp1736
Rp1737
sg26
(lp1738
(g1733
g1731
F0.5
tp1739
assg3
F0.0
sg29
(lp1740
(lp1741
g1733
aa(lp1742
g1731
aasg2
F1.0
ssI115
(dp1743
g1
F-1.0
sg7
(lp1744
(lp1745
S'strong'
p1746
aa(lp1747
S'stronger'
p1748
aasg13
(dp1749
g15
g16
(g20
S'\x00\x00\x00\x00\x00\x00\xe0?'
p1750
tp1751
Rp1752
sg26
(lp1753
(g1748
g1746
F0.5
tp1754
assg3
F0.0
sg29
(lp1755
(lp1756
g1748
aa(lp1757
g1746
aasg2
F1.0
ssI116
(dp1758
g1
F1.0
sg7
(lp1759
(lp1760
S'lengthy'
p1761
aa(lp1762
S'lengthier'
p1763
aasg13
(dp1764
g15
g16
(g20
S'\x00\x00\x00\x00\x00\x00\xe0?'
p1765
tp1766
Rp1767
sg26
(lp1768
(g1761
g1763
F0.5
tp1769
assg3
F1.0
sg29
(lp1770
(lp1771
g1761
aa(lp1772
g1763
aasg2
F1.0
ssI117
(dp1773
g1
F-1.0
sg7
(lp1774
(lp1775
S'sharp'
p1776
aa(lp1777
S'sharper'
p1778
aasg13
(dp1779
g15
g16
(g20
S'\x00\x00\x00\x00\x00\x00\xe0?'
p1780
tp1781
Rp1782
sg26
(lp1783
(g1778
g1776
F0.5
tp1784
assg3
F0.0
sg29
(lp1785
(lp1786
g1778
aa(lp1787
g1776
aasg2
F1.0
ssI118
(dp1788
g1
F-1.0
sg7
(lp1789
(lp1790
S'cheap'
p1791
aa(lp1792
S'cheaper'
p1793
aasg13
(dp1794
g15
g16
(g20
S'\x00\x00\x00\x00\x00\x00\xe0?'
p1795
tp1796
Rp1797
sg26
(lp1798
(g1793
g1791
F0.5
tp1799
assg3
F0.0
sg29
(lp1800
(lp1801
g1793
aa(lp1802
g1791
aasg2
F1.0
ssI119
(dp1803
g1
F1.0
sg7
(lp1804
(lp1805
S'well'
p1806
aa(lp1807
S'better'
p1808
aasg13
(dp1809
g15
g16
(g20
S'\x00\x00\x00\x00\x00\x00\xe0?'
p1810
tp1811
Rp1812
sg26
(lp1813
(g1806
g1808
F0.5
tp1814
assg3
F1.0
sg29
(lp1815
(lp1816
g1806
aa(lp1817
g1808
aasg2
F1.0
ssI120
(dp1818
g1
F1.0
sg7
(lp1819
(lp1820
S'good'
p1821
aa(lp1822
S'better'
p1823
aasg13
(dp1824
g15
g16
(g20
S'\x00\x00\x00\x00\x00\x00\xe0?'
p1825
tp1826
Rp1827
sg26
(lp1828
(g1821
g1823
F0.5
tp1829
assg3
F1.0
sg29
(lp1830
(lp1831
g1821
aa(lp1832
g1823
aasg2
F1.0
ssI121
(dp1833
g1
F1.0
sg7
(lp1834
(lp1835
S'funny'
p1836
aa(lp1837
S'funnier'
p1838
aasg13
(dp1839
g15
g16
(g20
S'\x00\x00\x00\x00\x00\x00\xe0?'
p1840
tp1841
Rp1842
sg26
(lp1843
(g1836
g1838
F0.5
tp1844
assg3
F1.0
sg29
(lp1845
(lp1846
g1836
aa(lp1847
g1838
aasg2
F1.0
ssI122
(dp1848
g1
F-1.0
sg7
(lp1849
(lp1850
S'mild'
p1851
aa(lp1852
S'milder'
p1853
aasg13
(dp1854
g15
g16
(g20
S'\x00\x00\x00\x00\x00\x00\xe0?'
p1855
tp1856
Rp1857
sg26
(lp1858
(g1853
g1851
F0.5
tp1859
assg3
F0.0
sg29
(lp1860
(lp1861
g1853
aa(lp1862
g1851
aasg2
F1.0
ssI123
(dp1863
g1
F-1.0
sg7
(lp1864
(lp1865
S'firm'
p1866
aa(lp1867
S'firmer'
p1868
aasg13
(dp1869
g15
g16
(g20
S'\x00\x00\x00\x00\x00\x00\xe0?'
p1870
tp1871
Rp1872
sg26
(lp1873
(g1868
g1866
F0.5
tp1874
assg3
F0.0
sg29
(lp1875
(lp1876
g1868
aa(lp1877
g1866
aasg2
F1.0
ssI124
(dp1878
g1
F-1.0
sg7
(lp1879
(lp1880
S'slim'
p1881
aa(lp1882
S'slimmer'
p1883
aasg13
(dp1884
g15
g16
(g20
S'\x00\x00\x00\x00\x00\x00\xe0?'
p1885
tp1886
Rp1887
sg26
(lp1888
(g1883
g1881
F0.5
tp1889
assg3
F0.0
sg29
(lp1890
(lp1891
g1883
aa(lp1892
g1881
aasg2
F1.0
ssI125
(dp1893
g1
F-1.0
sg7
(lp1894
(lp1895
S'small'
p1896
aa(lp1897
S'smaller'
p1898
aasg13
(dp1899
g15
g16
(g20
S'\x00\x00\x00\x00\x00\x00\xe0?'
p1900
tp1901
Rp1902
sg26
(lp1903
(g1898
g1896
F0.5
tp1904
assg3
F0.0
sg29
(lp1905
(lp1906
g1898
aa(lp1907
g1896
aasg2
F1.0
ssI126
(dp1908
g1
F-1.0
sg7
(lp1909
(lp1910
S'fat'
p1911
aa(lp1912
S'fatter'
p1913
aasg13
(dp1914
g15
g16
(g20
S'\x00\x00\x00\x00\x00\x00\xe0?'
p1915
tp1916
Rp1917
sg26
(lp1918
(g1913
g1911
F0.5
tp1919
assg3
F0.0
sg29
(lp1920
(lp1921
g1913
aa(lp1922
g1911
aasg2
F1.0
ssI127
(dp1923
g1
F-1.0
sg7
(lp1924
(lp1925
S'free'
p1926
aa(lp1927
S'freer'
p1928
aasg13
(dp1929
g15
g16
(g20
S'\x00\x00\x00\x00\x00\x00\xe0?'
p1930
tp1931
Rp1932
sg26
(lp1933
(g1928
g1926
F0.5
tp1934
assg3
F0.0
sg29
(lp1935
(lp1936
g1928
aa(lp1937
g1926
aasg2
F1.0
ssI128
(dp1938
g1
F1.0
sg7
(lp1939
(lp1940
S'dry'
p1941
aa(lp1942
S'drier'
p1943
aasg13
(dp1944
g15
g16
(g20
S'\x00\x00\x00\x00\x00\x00\xe0?'
p1945
tp1946
Rp1947
sg26
(lp1948
(g1941
g1943
F0.5
tp1949
assg3
F1.0
sg29
(lp1950
(lp1951
g1941
aa(lp1952
g1943
aasg2
F1.0
ssI129
(dp1953
g1
F-1.0
sg7
(lp1954
(lp1955
S'cute'
p1956
aa(lp1957
S'cuter'
p1958
aasg13
(dp1959
g15
g16
(g20
S'\x00\x00\x00\x00\x00\x00\xe0?'
p1960
tp1961
Rp1962
sg26
(lp1963
(g1958
g1956
F0.5
tp1964
assg3
F0.0
sg29
(lp1965
(lp1966
g1958
aa(lp1967
g1956
aasg2
F1.0
ssI130
(dp1968
g1
F-1.0
sg7
(lp1969
(lp1970
S'clever'
p1971
aa(lp1972
S'cleverer'
p1973
aasg13
(dp1974
g15
g16
(g20
S'\x00\x00\x00\x00\x00\x00\xe0?'
p1975
tp1976
Rp1977
sg26
(lp1978
(g1973
g1971
F0.5
tp1979
assg3
F0.0
sg29
(lp1980
(lp1981
g1973
aa(lp1982
g1971
aasg2
F1.0
ssI131
(dp1983
g1
F-1.0
sg7
(lp1984
(lp1985
S'loud'
p1986
aa(lp1987
S'louder'
p1988
aasg13
(dp1989
g15
g16
(g20
S'\x00\x00\x00\x00\x00\x00\xe0?'
p1990
tp1991
Rp1992
sg26
(lp1993
(g1988
g1986
F0.5
tp1994
assg3
F0.0
sg29
(lp1995
(lp1996
g1988
aa(lp1997
g1986
aasg2
F1.0
ssI132
(dp1998
g1
F-1.0
sg7
(lp1999
(lp2000
S'clear'
p2001
aa(lp2002
S'clearest'
p2003
aasg13
(dp2004
g15
g16
(g20
S'\x00\x00\x00\x00\x00\x00\xe0?'
p2005
tp2006
Rp2007
sg26
(lp2008
(g2003
g2001
F0.5
tp2009
assg3
F0.0
sg29
(lp2010
(lp2011
g2003
aa(lp2012
g2001
aasg2
F1.0
ssI133
(dp2013
g1
F-1.0
sg7
(lp2014
(lp2015
S'long'
p2016
aa(lp2017
S'longest'
p2018
aasg13
(dp2019
g15
g16
(g20
S'\x00\x00\x00\x00\x00\x00\xe0?'
p2020
tp2021
Rp2022
sg26
(lp2023
(g2018
g2016
F0.5
tp2024
assg3
F0.0
sg29
(lp2025
(lp2026
g2018
aa(lp2027
g2016
aasg2
F1.0
ssI134
(dp2028
g1
F-1.0
sg7
(lp2029
(lp2030
S'fair'
p2031
aa(lp2032
S'fairest'
p2033
aasg13
(dp2034
g15
g16
(g20
S'\x00\x00\x00\x00\x00\x00\xe0?'
p2035
tp2036
Rp2037
sg26
(lp2038
(g2033
g2031
F0.5
tp2039
assg3
F0.0
sg29
(lp2040
(lp2041
g2033
aa(lp2042
g2031
aasg2
F1.0
ssI135
(dp2043
g1
F-1.0
sg7
(lp2044
(lp2045
S'great'
p2046
aa(lp2047
S'greatest'
p2048
aasg13
(dp2049
g15
g16
(g20
S'\x00\x00\x00\x00\x00\x00\xe0?'
p2050
tp2051
Rp2052
sg26
(lp2053
(g2048
g2046
F0.5
tp2054
assg3
F0.0
sg29
(lp2055
(lp2056
g2048
aa(lp2057
g2046
aasg2
F1.0
ssI136
(dp2058
g1
F-1.0
sg7
(lp2059
(lp2060
S'safe'
p2061
aa(lp2062
S'safest'
p2063
aasg13
(dp2064
g15
g16
(g20
S'\x00\x00\x00\x00\x00\x00\xe0?'
p2065
tp2066
Rp2067
sg26
(lp2068
(g2063
g2061
F0.5
tp2069
assg3
F0.0
sg29
(lp2070
(lp2071
g2063
aa(lp2072
g2061
aasg2
F1.0
ssI137
(dp2073
g1
F-1.0
sg7
(lp2074
(lp2075
S'small'
p2076
aa(lp2077
S'smallest'
p2078
aasg13
(dp2079
g15
g16
(g20
S'\x00\x00\x00\x00\x00\x00\xe0?'
p2080
tp2081
Rp2082
sg26
(lp2083
(g2078
g2076
F0.5
tp2084
assg3
F0.0
sg29
(lp2085
(lp2086
g2078
aa(lp2087
g2076
aasg2
F1.0
ssI138
(dp2088
g1
F-1.0
sg7
(lp2089
(lp2090
S'old'
p2091
aa(lp2092
S'oldest'
p2093
aasg13
(dp2094
g15
g16
(g20
S'\x00\x00\x00\x00\x00\x00\xe0?'
p2095
tp2096
Rp2097
sg26
(lp2098
(g2093
g2091
F0.5
tp2099
assg3
F0.0
sg29
(lp2100
(lp2101
g2093
aa(lp2102
g2091
aasg2
F1.0
ssI139
(dp2103
g1
F-1.0
sg7
(lp2104
(lp2105
S'fine'
p2106
aa(lp2107
S'finest'
p2108
aasg13
(dp2109
g15
g16
(g20
S'\x00\x00\x00\x00\x00\x00\xe0?'
p2110
tp2111
Rp2112
sg26
(lp2113
(g2108
g2106
F0.5
tp2114
assg3
F0.0
sg29
(lp2115
(lp2116
g2108
aa(lp2117
g2106
aasg2
F1.0
ssI140
(dp2118
g1
F-1.0
sg7
(lp2119
(lp2120
S'wide'
p2121
aa(lp2122
S'widest'
p2123
aasg13
(dp2124
g15
g16
(g20
S'\x00\x00\x00\x00\x00\x00\xe0?'
p2125
tp2126
Rp2127
sg26
(lp2128
(g2123
g2121
F0.5
tp2129
assg3
F0.0
sg29
(lp2130
(lp2131
g2123
aa(lp2132
g2121
aasg2
F1.0
ssI141
(dp2133
g1
F-1.0
sg7
(lp2134
(lp2135
S'ill'
p2136
aa(lp2137
S'worst'
p2138
aasg13
(dp2139
g15
g16
(g20
S'\x00\x00\x00\x00\x00\x00\xe0?'
p2140
tp2141
Rp2142
sg26
(lp2143
(g2138
g2136
F0.5
tp2144
assg3
F0.0
sg29
(lp2145
(lp2146
g2138
aa(lp2147
g2136
aasg2
F1.0
ssI142
(dp2148
g1
F-1.0
sg7
(lp2149
(lp2150
S'free'
p2151
aa(lp2152
S'freest'
p2153
aasg13
(dp2154
g15
g16
(g20
S'\x00\x00\x00\x00\x00\x00\xe0?'
p2155
tp2156
Rp2157
sg26
(lp2158
(g2153
g2151
F0.5
tp2159
assg3
F0.0
sg29
(lp2160
(lp2161
g2153
aa(lp2162
g2151
aasg2
F1.0
ssI143
(dp2163
g1
F-1.0
sg7
(lp2164
(lp2165
S'bright'
p2166
aa(lp2167
S'brightest'
p2168
aasg13
(dp2169
g15
g16
(g20
S'\x00\x00\x00\x00\x00\x00\xe0?'
p2170
tp2171
Rp2172
sg26
(lp2173
(g2168
g2166
F0.5
tp2174
assg3
F0.0
sg29
(lp2175
(lp2176
g2168
aa(lp2177
g2166
aasg2
F1.0
ssI144
(dp2178
g1
F1.0
sg7
(lp2179
(lp2180
S'little'
p2181
aa(lp2182
S'least'
p2183
aasg13
(dp2184
g15
g16
(g20
S'\x00\x00\x00\x00\x00\x00\xe0?'
p2185
tp2186
Rp2187
sg26
(lp2188
(g2181
g2183
F0.5
tp2189
assg3
F1.0
sg29
(lp2190
(lp2191
g2181
aa(lp2192
g2183
aasg2
F1.0
ssI145
(dp2193
g1
F-1.0
sg7
(lp2194
(lp2195
S'short'
p2196
aa(lp2197
S'shortest'
p2198
aasg13
(dp2199
g15
g16
(g20
S'\x00\x00\x00\x00\x00\x00\xe0?'
p2200
tp2201
Rp2202
sg26
(lp2203
(g2198
g2196
F0.5
tp2204
assg3
F0.0
sg29
(lp2205
(lp2206
g2198
aa(lp2207
g2196
aasg2
F1.0
ssI146
(dp2208
g1
F-1.0
sg7
(lp2209
(lp2210
S'grave'
p2211
aa(lp2212
S'gravest'
p2213
aasg13
(dp2214
g15
g16
(g20
S'\x00\x00\x00\x00\x00\x00\xe0?'
p2215
tp2216
Rp2217
sg26
(lp2218
(g2213
g2211
F0.5
tp2219
assg3
F0.0
sg29
(lp2220
(lp2221
g2213
aa(lp2222
g2211
aasg2
F1.0
ssI147
(dp2223
g1
F1.0
sg7
(lp2224
(lp2225
S'heavy'
p2226
aa(lp2227
S'heaviest'
p2228
aasg13
(dp2229
g15
g16
(g20
S'\x00\x00\x00\x00\x00\x00\xe0?'
p2230
tp2231
Rp2232
sg26
(lp2233
(g2226
g2228
F0.5
tp2234
assg3
F1.0
sg29
(lp2235
(lp2236
g2226
aa(lp2237
g2228
aasg2
F1.0
ssI148
(dp2238
g1
F-1.0
sg7
(lp2239
(lp2240
S'cheap'
p2241
aa(lp2242
S'cheapest'
p2243
aasg13
(dp2244
g15
g16
(g20
S'\x00\x00\x00\x00\x00\x00\xe0?'
p2245
tp2246
Rp2247
sg26
(lp2248
(g2243
g2241
F0.5
tp2249
assg3
F0.0
sg29
(lp2250
(lp2251
g2243
aa(lp2252
g2241
aasg2
F1.0
ssI149
(dp2253
g1
F1.0
sg7
(lp2254
(lp2255
S'much'
p2256
aa(lp2257
S'most'
p2258
aasg13
(dp2259
g15
g16
(g20
S'\x00\x00\x00\x00\x00\x00\xe0?'
p2260
tp2261
Rp2262
sg26
(lp2263
(g2256
g2258
F0.5
tp2264
assg3
F1.0
sg29
(lp2265
(lp2266
g2256
aa(lp2267
g2258
aasg2
F1.0
ssI150
(dp2268
g1
F-1.0
sg7
(lp2269
(lp2270
S'close'
p2271
aa(lp2272
S'closest'
p2273
aasg13
(dp2274
g15
g16
(g20
S'\x00\x00\x00\x00\x00\x00\xe0?'
p2275
tp2276
Rp2277
sg26
(lp2278
(g2273
g2271
F0.5
tp2279
assg3
F0.0
sg29
(lp2280
(lp2281
g2273
aa(lp2282
g2271
aasg2
F1.0
ssI151
(dp2283
g1
F-1.0
sg7
(lp2284
(lp2285
S'dark'
p2286
aa(lp2287
S'darkest'
p2288
aasg13
(dp2289
g15
g16
(g20
S'\x00\x00\x00\x00\x00\x00\xe0?'
p2290
tp2291
Rp2292
sg26
(lp2293
(g2288
g2286
F0.5
tp2294
assg3
F0.0
sg29
(lp2295
(lp2296
g2288
aa(lp2297
g2286
aasg2
F1.0
ssI152
(dp2298
g1
F-1.0
sg7
(lp2299
(lp2300
S'weak'
p2301
aa(lp2302
S'weakest'
p2303
aasg13
(dp2304
g15
g16
(g20
S'\x00\x00\x00\x00\x00\x00\xe0?'
p2305
tp2306
Rp2307
sg26
(lp2308
(g2303
g2301
F0.5
tp2309
assg3
F0.0
sg29
(lp2310
(lp2311
g2303
aa(lp2312
g2301
aasg2
F1.0
ssI153
(dp2313
g1
F-1.0
sg7
(lp2314
(lp2315
S'broad'
p2316
aa(lp2317
S'broadest'
p2318
aasg13
(dp2319
g15
g16
(g20
S'\x00\x00\x00\x00\x00\x00\xe0?'
p2320
tp2321
Rp2322
sg26
(lp2323
(g2318
g2316
F0.5
tp2324
assg3
F0.0
sg29
(lp2325
(lp2326
g2318
aa(lp2327
g2316
aasg2
F1.0
ssI154
(dp2328
g1
F1.0
sg7
(lp2329
(lp2330
S'easy'
p2331
aa(lp2332
S'easiest'
p2333
aasg13
(dp2334
g15
g16
(g20
S'\x00\x00\x00\x00\x00\x00\xe0?'
p2335
tp2336
Rp2337
sg26
(lp2338
(g2331
g2333
F0.5
tp2339
assg3
F1.0
sg29
(lp2340
(lp2341
g2331
aa(lp2342
g2333
aasg2
F1.0
ssI155
(dp2343
g1
F-1.0
sg7
(lp2344
(lp2345
S'brave'
p2346
aa(lp2347
S'bravest'
p2348
aasg13
(dp2349
g15
g16
(g20
S'\x00\x00\x00\x00\x00\x00\xe0?'
p2350
tp2351
Rp2352
sg26
(lp2353
(g2348
g2346
F0.5
tp2354
assg3
F0.0
sg29
(lp2355
(lp2356
g2348
aa(lp2357
g2346
aasg2
F1.0
ssI156
(dp2358
g1
F-1.0
sg7
(lp2359
(lp2360
S'late'
p2361
aa(lp2362
S'latest'
p2363
aasg13
(dp2364
g15
g16
(g20
S'\x00\x00\x00\x00\x00\x00\xe0?'
p2365
tp2366
Rp2367
sg26
(lp2368
(g2363
g2361
F0.5
tp2369
assg3
F0.0
sg29
(lp2370
(lp2371
g2363
aa(lp2372
g2361
aasg2
F1.0
ssI157
(dp2373
g1
F-1.0
sg7
(lp2374
(lp2375
S'quick'
p2376
aa(lp2377
S'quickest'
p2378
aasg13
(dp2379
g15
g16
(g20
S'\x00\x00\x00\x00\x00\x00\xe0?'
p2380
tp2381
Rp2382
sg26
(lp2383
(g2378
g2376
F0.5
tp2384
assg3
F0.0
sg29
(lp2385
(lp2386
g2378
aa(lp2387
g2376
aasg2
F1.0
ssI158
(dp2388
g1
F-1.0
sg7
(lp2389
(lp2390
S'big'
p2391
aa(lp2392
S'biggest'
p2393
aasg13
(dp2394
g15
g16
(g20
S'\x00\x00\x00\x00\x00\x00\xe0?'
p2395
tp2396
Rp2397
sg26
(lp2398
(g2393
g2391
F0.5
tp2399
assg3
F0.0
sg29
(lp2400
(lp2401
g2393
aa(lp2402
g2391
aasg2
F1.0
ssI159
(dp2403
g1
F-1.0
sg7
(lp2404
(lp2405
S'new'
p2406
aa(lp2407
S'newest'
p2408
aasg13
(dp2409
g15
g16
(g20
S'\x00\x00\x00\x00\x00\x00\xe0?'
p2410
tp2411
Rp2412
sg26
(lp2413
(g2408
g2406
F0.5
tp2414
assg3
F0.0
sg29
(lp2415
(lp2416
g2408
aa(lp2417
g2406
aasg2
F1.0
ssI160
(dp2418
g1
F-1.0
sg7
(lp2419
(lp2420
S'far'
p2421
aa(lp2422
S'furthest'
p2423
aasg13
(dp2424
g15
g16
(g20
S'\x00\x00\x00\x00\x00\x00\xe0?'
p2425
tp2426
Rp2427
sg26
(lp2428
(g2423
g2421
F0.5
tp2429
assg3
F0.0
sg29
(lp2430
(lp2431
g2423
aa(lp2432
g2421
aasg2
F1.0
ssI161
(dp2433
g1
F1.0
sg7
(lp2434
(lp2435
S'good'
p2436
aa(lp2437
S'excellent'
p2438
aasg13
(dp2439
g15
g16
(g20
S'\x00\x00\x00\x00\x00\x00\xe0?'
p2440
tp2441
Rp2442
sg26
(lp2443
(g2436
g2438
F0.5
tp2444
assg3
F1.0
sg29
(lp2445
(lp2446
g2436
aa(lp2447
g2438
aasg2
F1.0
ssI162
(dp2448
g1
F-1.0
sg7
(lp2449
(lp2450
S'large'
p2451
aa(lp2452
S'largest'
p2453
aasg13
(dp2454
g15
g16
(g20
S'\x00\x00\x00\x00\x00\x00\xe0?'
p2455
tp2456
Rp2457
sg26
(lp2458
(g2453
g2451
F0.5
tp2459
assg3
F0.0
sg29
(lp2460
(lp2461
g2453
aa(lp2462
g2451
aasg2
F1.0
ssI163
(dp2463
g1
F-1.0
sg7
(lp2464
(lp2465
S'poor'
p2466
aa(lp2467
S'poorest'
p2468
aasg13
(dp2469
g15
g16
(g20
S'\x00\x00\x00\x00\x00\x00\xe0?'
p2470
tp2471
Rp2472
sg26
(lp2473
(g2468
g2466
F0.5
tp2474
assg3
F0.0
sg29
(lp2475
(lp2476
g2468
aa(lp2477
g2466
aasg2
F1.0
ssI164
(dp2478
g1
F-1.0
sg7
(lp2479
(lp2480
S'cruel'
p2481
aa(lp2482
S'cruellest'
p2483
aasg13
(dp2484
g15
g16
(g20
S'\x00\x00\x00\x00\x00\x00\xe0?'
p2485
tp2486
Rp2487
sg26
(lp2488
(g2483
g2481
F0.5
tp2489
assg3
F0.0
sg29
(lp2490
(lp2491
g2483
aa(lp2492
g2481
aasg2
F1.0
ssI165
(dp2493
g1
F-1.0
sg7
(lp2494
(lp2495
S'many'
p2496
aa(lp2497
S'most'
p2498
aasg13
(dp2499
g15
g16
(g20
S'\x00\x00\x00\x00\x00\x00\xe0?'
p2500
tp2501
Rp2502
sg26
(lp2503
(g2498
g2496
F0.5
tp2504
assg3
F0.0
sg29
(lp2505
(lp2506
g2498
aa(lp2507
g2496
aasg2
F1.0
ssI166
(dp2508
g1
F-1.0
sg7
(lp2509
(lp2510
S'deep'
p2511
aa(lp2512
S'deepest'
p2513
aasg13
(dp2514
g15
g16
(g20
S'\x00\x00\x00\x00\x00\x00\xe0?'
p2515
tp2516
Rp2517
sg26
(lp2518
(g2513
g2511
F0.5
tp2519
assg3
F0.0
sg29
(lp2520
(lp2521
g2513
aa(lp2522
g2511
aasg2
F1.0
ssI167
(dp2523
g1
F-1.0
sg7
(lp2524
(lp2525
S'full'
p2526
aa(lp2527
S'fullest'
p2528
aasg13
(dp2529
g15
g16
(g20
S'\x00\x00\x00\x00\x00\x00\xe0?'
p2530
tp2531
Rp2532
sg26
(lp2533
(g2528
g2526
F0.5
tp2534
assg3
F0.0
sg29
(lp2535
(lp2536
g2528
aa(lp2537
g2526
aasg2
F1.0
ssI168
(dp2538
g1
F-1.0
sg7
(lp2539
(lp2540
S'smart'
p2541
aa(lp2542
S'smartest'
p2543
aasg13
(dp2544
g15
g16
(g20
S'\x00\x00\x00\x00\x00\x00\xe0?'
p2545
tp2546
Rp2547
sg26
(lp2548
(g2543
g2541
F0.5
tp2549
assg3
F0.0
sg29
(lp2550
(lp2551
g2543
aa(lp2552
g2541
aasg2
F1.0
ssI169
(dp2553
g1
F-1.0
sg7
(lp2554
(lp2555
S'bad'
p2556
aa(lp2557
S'worst'
p2558
aasg13
(dp2559
g15
g16
(g20
S'\x00\x00\x00\x00\x00\x00\xe0?'
p2560
tp2561
Rp2562
sg26
(lp2563
(g2558
g2556
F0.5
tp2564
assg3
F0.0
sg29
(lp2565
(lp2566
g2558
aa(lp2567
g2556
aasg2
F1.0
ssI170
(dp2568
g1
F-1.0
sg7
(lp2569
(lp2570
S'strict'
p2571
aa(lp2572
S'strictest'
p2573
aasg13
(dp2574
g15
g16
(g20
S'\x00\x00\x00\x00\x00\x00\xe0?'
p2575
tp2576
Rp2577
sg26
(lp2578
(g2573
g2571
F0.5
tp2579
assg3
F0.0
sg29
(lp2580
(lp2581
g2573
aa(lp2582
g2571
aasg2
F1.0
ssI171
(dp2583
g1
F1.0
sg7
(lp2584
(lp2585
S'good'
p2586
aa(lp2587
S'best'
p2588
aasg13
(dp2589
g15
g16
(g20
S'\x00\x00\x00\x00\x00\x00\xe0?'
p2590
tp2591
Rp2592
sg26
(lp2593
(g2586
g2588
F0.5
tp2594
assg3
F1.0
sg29
(lp2595
(lp2596
g2586
aa(lp2597
g2588
aasg2
F1.0
ssI172
(dp2598
g1
F1.0
sg7
(lp2599
(lp2600
S'wealthy'
p2601
aa(lp2602
S'wealthiest'
p2603
aasg13
(dp2604
g15
g16
(g20
S'\x00\x00\x00\x00\x00\x00\xe0?'
p2605
tp2606
Rp2607
sg26
(lp2608
(g2601
g2603
F0.5
tp2609
assg3
F1.0
sg29
(lp2610
(lp2611
g2601
aa(lp2612
g2603
aasg2
F1.0
ssI173
(dp2613
g1
F-1.0
sg7
(lp2614
(lp2615
S'rich'
p2616
aa(lp2617
S'richest'
p2618
aasg13
(dp2619
g15
g16
(g20
S'\x00\x00\x00\x00\x00\x00\xe0?'
p2620
tp2621
Rp2622
sg26
(lp2623
(g2618
g2616
F0.5
tp2624
assg3
F0.0
sg29
(lp2625
(lp2626
g2618
aa(lp2627
g2616
aasg2
F1.0
ssI174
(dp2628
g1
F-1.0
sg7
(lp2629
(lp2630
S'rare'
p2631
aa(lp2632
S'rarest'
p2633
aasg13
(dp2634
g15
g16
(g20
S'\x00\x00\x00\x00\x00\x00\xe0?'
p2635
tp2636
Rp2637
sg26
(lp2638
(g2633
g2631
F0.5
tp2639
assg3
F0.0
sg29
(lp2640
(lp2641
g2633
aa(lp2642
g2631
aasg2
F1.0
ssI175
(dp2643
g1
F-1.0
sg7
(lp2644
(lp2645
S'fast'
p2646
aa(lp2647
S'fastest'
p2648
aasg13
(dp2649
g15
g16
(g20
S'\x00\x00\x00\x00\x00\x00\xe0?'
p2650
tp2651
Rp2652
sg26
(lp2653
(g2648
g2646
F0.5
tp2654
assg3
F0.0
sg29
(lp2655
(lp2656
g2648
aa(lp2657
g2646
aasg2
F1.0
ssI176
(dp2658
g1
F-1.0
sg7
(lp2659
(lp2660
S'low'
p2661
aa(lp2662
S'lowest'
p2663
aasg13
(dp2664
g15
g16
(g20
S'\x00\x00\x00\x00\x00\x00\xe0?'
p2665
tp2666
Rp2667
sg26
(lp2668
(g2663
g2661
F0.5
tp2669
assg3
F0.0
sg29
(lp2670
(lp2671
g2663
aa(lp2672
g2661
aasg2
F1.0
ssI177
(dp2673
g1
F-1.0
sg7
(lp2674
(lp2675
S'simple'
p2676
aa(lp2677
S'simplest'
p2678
aasg13
(dp2679
g15
g16
(g20
S'\x00\x00\x00\x00\x00\x00\xe0?'
p2680
tp2681
Rp2682
sg26
(lp2683
(g2678
g2676
F0.5
tp2684
assg3
F0.0
sg29
(lp2685
(lp2686
g2678
aa(lp2687
g2676
aasg2
F1.0
ssI178
(dp2688
g1
F-1.0
sg7
(lp2689
(lp2690
S'clean'
p2691
aa(lp2692
S'cleanest'
p2693
aasg13
(dp2694
g15
g16
(g20
S'\x00\x00\x00\x00\x00\x00\xe0?'
p2695
tp2696
Rp2697
sg26
(lp2698
(g2693
g2691
F0.5
tp2699
assg3
F0.0
sg29
(lp2700
(lp2701
g2693
aa(lp2702
g2691
aasg2
F1.0
ssI179
(dp2703
g1
F1.0
sg7
(lp2704
(lp2705
S'happy'
p2706
aa(lp2707
S'happiest'
p2708
aasg13
(dp2709
g15
g16
(g20
S'\x00\x00\x00\x00\x00\x00\xe0?'
p2710
tp2711
Rp2712
sg26
(lp2713
(g2706
g2708
F0.5
tp2714
assg3
F1.0
sg29
(lp2715
(lp2716
g2706
aa(lp2717
g2708
aasg2
F1.0
ssI180
(dp2718
g1
F-1.0
sg7
(lp2719
(lp2720
S'hard'
p2721
aa(lp2722
S'hardest'
p2723
aasg13
(dp2724
g15
g16
(g20
S'\x00\x00\x00\x00\x00\x00\xe0?'
p2725
tp2726
Rp2727
sg26
(lp2728
(g2723
g2721
F0.5
tp2729
assg3
F0.0
sg29
(lp2730
(lp2731
g2723
aa(lp2732
g2721
aasg2
F1.0
ssI181
(dp2733
g1
F1.0
sg7
(lp2734
(lp2735
S'well'
p2736
aa(lp2737
S'best'
p2738
aasg13
(dp2739
g15
g16
(g20
S'\x00\x00\x00\x00\x00\x00\xe0?'
p2740
tp2741
Rp2742
sg26
(lp2743
(g2736
g2738
F0.5
tp2744
assg3
F1.0
sg29
(lp2745
(lp2746
g2736
aa(lp2747
g2738
aasg2
F1.0
ssI182
(dp2748
g1
F1.0
sg7
(lp2749
(lp2750
S'early'
p2751
aa(lp2752
S'earliest'
p2753
aasg13
(dp2754
g15
g16
(g20
S'\x00\x00\x00\x00\x00\x00\xe0?'
p2755
tp2756
Rp2757
sg26
(lp2758
(g2751
g2753
F0.5
tp2759
assg3
F1.0
sg29
(lp2760
(lp2761
g2751
aa(lp2762
g2753
aasg2
F1.0
ssI183
(dp2763
g1
F-1.0
sg7
(lp2764
(lp2765
S'high'
p2766
aa(lp2767
S'highest'
p2768
aasg13
(dp2769
g15
g16
(g20
S'\x00\x00\x00\x00\x00\x00\xe0?'
p2770
tp2771
Rp2772
sg26
(lp2773
(g2768
g2766
F0.5
tp2774
assg3
F0.0
sg29
(lp2775
(lp2776
g2768
aa(lp2777
g2766
aasg2
F1.0
ssI184
(dp2778
g1
F1.0
sg7
(lp2779
(lp2780
S'some'
p2781
aa(lp2782
S'most'
p2783
aasg13
(dp2784
g15
g16
(g20
S'\x00\x00\x00\x00\x00\x00\xe0?'
p2785
tp2786
Rp2787
sg26
(lp2788
(g2781
g2783
F0.5
tp2789
assg3
F1.0
sg29
(lp2790
(lp2791
g2781
aa(lp2792
g2783
aasg2
F1.0
ssI185
(dp2793
g1
F-1.0
sg7
(lp2794
(lp2795
S'hon'
p2796
aa(lp2797
S'honest'
p2798
aasg13
(dp2799
g15
g16
(g20
S'\x00\x00\x00\x00\x00\x00\xe0?'
p2800
tp2801
Rp2802
sg26
(lp2803
(g2798
g2796
F0.5
tp2804
assg3
F0.0
sg29
(lp2805
(lp2806
g2798
aa(lp2807
g2796
aasg2
F1.0
ssI186
(dp2808
g1
F-1.0
sg7
(lp2809
(lp2810
S'warm'
p2811
aa(lp2812
S'warmest'
p2813
aasg13
(dp2814
g15
g16
(g20
S'\x00\x00\x00\x00\x00\x00\xe0?'
p2815
tp2816
Rp2817
sg26
(lp2818
(g2813
g2811
F0.5
tp2819
assg3
F0.0
sg29
(lp2820
(lp2821
g2813
aa(lp2822
g2811
aasg2
F1.0
ssI187
(dp2823
g1
F-1.0
sg7
(lp2824
(lp2825
S'young'
p2826
aa(lp2827
S'youngest'
p2828
aasg13
(dp2829
g15
g16
(g20
S'\x00\x00\x00\x00\x00\x00\xe0?'
p2830
tp2831
Rp2832
sg26
(lp2833
(g2828
g2826
F0.5
tp2834
assg3
F0.0
sg29
(lp2835
(lp2836
g2828
aa(lp2837
g2826
aasg2
F1.0
ssI188
(dp2838
g1
F-1.0
sg7
(lp2839
(lp2840
S'strong'
p2841
aa(lp2842
S'strongest'
p2843
aasg13
(dp2844
g15
g16
(g20
S'\x00\x00\x00\x00\x00\x00\xe0?'
p2845
tp2846
Rp2847
sg26
(lp2848
(g2843
g2841
F0.5
tp2849
assg3
F0.0
sg29
(lp2850
(lp2851
g2843
aa(lp2852
g2841
aasg2
F1.0
ssI189
(dp2853
g1
F-1.0
sg7
(lp2854
(lp2855
S'near'
p2856
aa(lp2857
S'nearest'
p2858
aasg13
(dp2859
g15
g16
(g20
S'\x00\x00\x00\x00\x00\x00\xe0?'
p2860
tp2861
Rp2862
sg26
(lp2863
(g2858
g2856
F0.5
tp2864
assg3
F0.0
sg29
(lp2865
(lp2866
g2858
aa(lp2867
g2856
aasg2
F1.0
ssI190
(dp2868
g1
F1.0
sg7
(lp2869
(lp2870
S'east'
p2871
aa(lp2872
S'easiest'
p2873
aasg13
(dp2874
g15
g16
(g20
S'\x00\x00\x00\x00\x00\x00\xe0?'
p2875
tp2876
Rp2877
sg26
(lp2878
(g2871
g2873
F0.5
tp2879
assg3
F1.0
sg29
(lp2880
(lp2881
g2871
aa(lp2882
g2873
aasg2
F1.0
ssI191
(dp2883
g1
F-1.0
sg7
(lp2884
(lp2885
S'longer'
p2886
aa(lp2887
S'longest'
p2888
aasg13
(dp2889
g15
g16
(g20
S'\x00\x00\x00\x00\x00\x00\xe0?'
p2890
tp2891
Rp2892
sg26
(lp2893
(g2888
g2886
F0.5
tp2894
assg3
F0.0
sg29
(lp2895
(lp2896
g2888
aa(lp2897
g2886
aasg2
F1.0
ssI192
(dp2898
g1
F-1.0
sg7
(lp2899
(lp2900
S'harder'
p2901
aa(lp2902
S'hardest'
p2903
aasg13
(dp2904
g15
g16
(g20
S'\x00\x00\x00\x00\x00\x00\xe0?'
p2905
tp2906
Rp2907
sg26
(lp2908
(g2903
g2901
F0.5
tp2909
assg3
F0.0
sg29
(lp2910
(lp2911
g2903
aa(lp2912
g2901
aasg2
F1.0
ssI193
(dp2913
g1
F-1.0
sg7
(lp2914
(lp2915
S'broader'
p2916
aa(lp2917
S'broadest'
p2918
aasg13
(dp2919
g15
g16
(g20
S'\x00\x00\x00\x00\x00\x00\xe0?'
p2920
tp2921
Rp2922
sg26
(lp2923
(g2918
g2916
F0.5
tp2924
assg3
F0.0
sg29
(lp2925
(lp2926
g2918
aa(lp2927
g2916
aasg2
F1.0
ssI194
(dp2928
g1
F-1.0
sg7
(lp2929
(lp2930
S'deeper'
p2931
aa(lp2932
S'deepest'
p2933
aasg13
(dp2934
g15
g16
(g20
S'\x00\x00\x00\x00\x00\x00\xe0?'
p2935
tp2936
Rp2937
sg26
(lp2938
(g2933
g2931
F0.5
tp2939
assg3
F0.0
sg29
(lp2940
(lp2941
g2933
aa(lp2942
g2931
aasg2
F1.0
ssI195
(dp2943
g1
F-1.0
sg7
(lp2944
(lp2945
S'older'
p2946
aa(lp2947
S'oldest'
p2948
aasg13
(dp2949
g15
g16
(g20
S'\x00\x00\x00\x00\x00\x00\xe0?'
p2950
tp2951
Rp2952
sg26
(lp2953
(g2948
g2946
F0.5
tp2954
assg3
F0.0
sg29
(lp2955
(lp2956
g2948
aa(lp2957
g2946
aasg2
F1.0
ssI196
(dp2958
g1
F-1.0
sg7
(lp2959
(lp2960
S'lower'
p2961
aa(lp2962
S'lowest'
p2963
aasg13
(dp2964
g15
g16
(g20
S'\x00\x00\x00\x00\x00\x00\xe0?'
p2965
tp2966
Rp2967
sg26
(lp2968
(g2963
g2961
F0.5
tp2969
assg3
F0.0
sg29
(lp2970
(lp2971
g2963
aa(lp2972
g2961
aasg2
F1.0
ssI197
(dp2973
g1
F-1.0
sg7
(lp2974
(lp2975
S'weaker'
p2976
aa(lp2977
S'weakest'
p2978
aasg13
(dp2979
g15
g16
(g20
S'\x00\x00\x00\x00\x00\x00\xe0?'
p2980
tp2981
Rp2982
sg26
(lp2983
(g2978
g2976
F0.5
tp2984
assg3
F0.0
sg29
(lp2985
(lp2986
g2978
aa(lp2987
g2976
aasg2
F1.0
ssI198
(dp2988
g1
F-1.0
sg7
(lp2989
(lp2990
S'smaller'
p2991
aa(lp2992
S'smallest'
p2993
aasg13
(dp2994
g15
g16
(g20
S'\x00\x00\x00\x00\x00\x00\xe0?'
p2995
tp2996
Rp2997
sg26
(lp2998
(g2993
g2991
F0.5
tp2999
assg3
F0.0
sg29
(lp3000
(lp3001
g2993
aa(lp3002
g2991
aasg2
F1.0
ssI199
(dp3003
g1
F-1.0
sg7
(lp3004
(lp3005
S'further'
p3006
aa(lp3007
S'furthest'
p3008
aasg13
(dp3009
g15
g16
(g20
S'\x00\x00\x00\x00\x00\x00\xe0?'
p3010
tp3011
Rp3012
sg26
(lp3013
(g3008
g3006
F0.5
tp3014
assg3
F0.0
sg29
(lp3015
(lp3016
g3008
aa(lp3017
g3006
aasg2
F1.0
ssI200
(dp3018
g1
F-1.0
sg7
(lp3019
(lp3020
S'larger'
p3021
aa(lp3022
S'largest'
p3023
aasg13
(dp3024
g15
g16
(g20
S'\x00\x00\x00\x00\x00\x00\xe0?'
p3025
tp3026
Rp3027
sg26
(lp3028
(g3023
g3021
F0.5
tp3029
assg3
F0.0
sg29
(lp3030
(lp3031
g3023
aa(lp3032
g3021
aasg2
F1.0
ssI201
(dp3033
g1
F-1.0
sg7
(lp3034
(lp3035
S'fairer'
p3036
aa(lp3037
S'fairest'
p3038
aasg13
(dp3039
g15
g16
(g20
S'\x00\x00\x00\x00\x00\x00\xe0?'
p3040
tp3041
Rp3042
sg26
(lp3043
(g3038
g3036
F0.5
tp3044
assg3
F0.0
sg29
(lp3045
(lp3046
g3038
aa(lp3047
g3036
aasg2
F1.0
ssI202
(dp3048
g1
F-1.0
sg7
(lp3049
(lp3050
S'greater'
p3051
aa(lp3052
S'greatest'
p3053
aasg13
(dp3054
g15
g16
(g20
S'\x00\x00\x00\x00\x00\x00\xe0?'
p3055
tp3056
Rp3057
sg26
(lp3058
(g3053
g3051
F0.5
tp3059
assg3
F0.0
sg29
(lp3060
(lp3061
g3053
aa(lp3062
g3051
aasg2
F1.0
ssI203
(dp3063
g1
F-1.0
sg7
(lp3064
(lp3065
S'closer'
p3066
aa(lp3067
S'closest'
p3068
aasg13
(dp3069
g15
g16
(g20
S'\x00\x00\x00\x00\x00\x00\xe0?'
p3070
tp3071
Rp3072
sg26
(lp3073
(g3068
g3066
F0.5
tp3074
assg3
F0.0
sg29
(lp3075
(lp3076
g3068
aa(lp3077
g3066
aasg2
F1.0
ssI204
(dp3078
g1
F-1.0
sg7
(lp3079
(lp3080
S'rarer'
p3081
aa(lp3082
S'rarest'
p3083
aasg13
(dp3084
g15
g16
(g20
S'\x00\x00\x00\x00\x00\x00\xe0?'
p3085
tp3086
Rp3087
sg26
(lp3088
(g3083
g3081
F0.5
tp3089
assg3
F0.0
sg29
(lp3090
(lp3091
g3083
aa(lp3092
g3081
aasg2
F1.0
ssI205
(dp3093
g1
F-1.0
sg7
(lp3094
(lp3095
S'richer'
p3096
aa(lp3097
S'richest'
p3098
aasg13
(dp3099
g15
g16
(g20
S'\x00\x00\x00\x00\x00\x00\xe0?'
p3100
tp3101
Rp3102
sg26
(lp3103
(g3098
g3096
F0.5
tp3104
assg3
F0.0
sg29
(lp3105
(lp3106
g3098
aa(lp3107
g3096
aasg2
F1.0
ssI206
(dp3108
g1
F-1.0
sg7
(lp3109
(lp3110
S'brighter'
p3111
aa(lp3112
S'brightest'
p3113
aasg13
(dp3114
g15
g16
(g20
S'\x00\x00\x00\x00\x00\x00\xe0?'
p3115
tp3116
Rp3117
sg26
(lp3118
(g3113
g3111
F0.5
tp3119
assg3
F0.0
sg29
(lp3120
(lp3121
g3113
aa(lp3122
g3111
aasg2
F1.0
ssI207
(dp3123
g1
F-1.0
sg7
(lp3124
(lp3125
S'wider'
p3126
aa(lp3127
S'widest'
p3128
aasg13
(dp3129
g15
g16
(g20
S'\x00\x00\x00\x00\x00\x00\xe0?'
p3130
tp3131
Rp3132
sg26
(lp3133
(g3128
g3126
F0.5
tp3134
assg3
F0.0
sg29
(lp3135
(lp3136
g3128
aa(lp3137
g3126
aasg2
F1.0
ssI208
(dp3138
g1
F-1.0
sg7
(lp3139
(lp3140
S'shorter'
p3141
aa(lp3142
S'shortest'
p3143
aasg13
(dp3144
g15
g16
(g20
S'\x00\x00\x00\x00\x00\x00\xe0?'
p3145
tp3146
Rp3147
sg26
(lp3148
(g3143
g3141
F0.5
tp3149
assg3
F0.0
sg29
(lp3150
(lp3151
g3143
aa(lp3152
g3141
aasg2
F1.0
ssI209
(dp3153
g1
F-1.0
sg7
(lp3154
(lp3155
S'cleaner'
p3156
aa(lp3157
S'cleanest'
p3158
aasg13
(dp3159
g15
g16
(g20
S'\x00\x00\x00\x00\x00\x00\xe0?'
p3160
tp3161
Rp3162
sg26
(lp3163
(g3158
g3156
F0.5
tp3164
assg3
F0.0
sg29
(lp3165
(lp3166
g3158
aa(lp3167
g3156
aasg2
F1.0
ssI210
(dp3168
g1
F-1.0
sg7
(lp3169
(lp3170
S'braver'
p3171
aa(lp3172
S'bravest'
p3173
aasg13
(dp3174
g15
g16
(g20
S'\x00\x00\x00\x00\x00\x00\xe0?'
p3175
tp3176
Rp3177
sg26
(lp3178
(g3173
g3171
F0.5
tp3179
assg3
F0.0
sg29
(lp3180
(lp3181
g3173
aa(lp3182
g3171
aasg2
F1.0
ssI211
(dp3183
g1
F-1.0
sg7
(lp3184
(lp3185
S'stronger'
p3186
aa(lp3187
S'strongest'
p3188
aasg13
(dp3189
g15
g16
(g20
S'\x00\x00\x00\x00\x00\x00\xe0?'
p3190
tp3191
Rp3192
sg26
(lp3193
(g3188
g3186
F0.5
tp3194
assg3
F0.0
sg29
(lp3195
(lp3196
g3188
aa(lp3197
g3186
aasg2
F1.0
ssI212
(dp3198
g1
F-1.0
sg7
(lp3199
(lp3200
S'heavier'
p3201
aa(lp3202
S'heaviest'
p3203
aasg13
(dp3204
g15
g16
(g20
S'\x00\x00\x00\x00\x00\x00\xe0?'
p3205
tp3206
Rp3207
sg26
(lp3208
(g3203
g3201
F0.5
tp3209
assg3
F0.0
sg29
(lp3210
(lp3211
g3203
aa(lp3212
g3201
aasg2
F1.0
ssI213
(dp3213
g1
F-1.0
sg7
(lp3214
(lp3215
S'cheaper'
p3216
aa(lp3217
S'cheapest'
p3218
aasg13
(dp3219
g15
g16
(g20
S'\x00\x00\x00\x00\x00\x00\xe0?'
p3220
tp3221
Rp3222
sg26
(lp3223
(g3218
g3216
F0.5
tp3224
assg3
F0.0
sg29
(lp3225
(lp3226
g3218
aa(lp3227
g3216
aasg2
F1.0
ssI214
(dp3228
g1
F-1.0
sg7
(lp3229
(lp3230
S'happier'
p3231
aa(lp3232
S'happiest'
p3233
aasg13
(dp3234
g15
g16
(g20
S'\x00\x00\x00\x00\x00\x00\xe0?'
p3235
tp3236
Rp3237
sg26
(lp3238
(g3233
g3231
F0.5
tp3239
assg3
F0.0
sg29
(lp3240
(lp3241
g3233
aa(lp3242
g3231
aasg2
F1.0
ssI215
(dp3243
g1
F-1.0
sg7
(lp3244
(lp3245
S'later'
p3246
aa(lp3247
S'latest'
p3248
aasg13
(dp3249
g15
g16
(g20
S'\x00\x00\x00\x00\x00\x00\xe0?'
p3250
tp3251
Rp3252
sg26
(lp3253
(g3248
g3246
F0.5
tp3254
assg3
F0.0
sg29
(lp3255
(lp3256
g3248
aa(lp3257
g3246
aasg2
F1.0
ssI216
(dp3258
g1
F-1.0
sg7
(lp3259
(lp3260
S'smarter'
p3261
aa(lp3262
S'smartest'
p3263
aasg13
(dp3264
g15
g16
(g20
S'\x00\x00\x00\x00\x00\x00\xe0?'
p3265
tp3266
Rp3267
sg26
(lp3268
(g3263
g3261
F0.5
tp3269
assg3
F0.0
sg29
(lp3270
(lp3271
g3263
aa(lp3272
g3261
aasg2
F1.0
ssI217
(dp3273
g1
F-1.0
sg7
(lp3274
(lp3275
S'simpler'
p3276
aa(lp3277
S'simplest'
p3278
aasg13
(dp3279
g15
g16
(g20
S'\x00\x00\x00\x00\x00\x00\xe0?'
p3280
tp3281
Rp3282
sg26
(lp3283
(g3278
g3276
F0.5
tp3284
assg3
F0.0
sg29
(lp3285
(lp3286
g3278
aa(lp3287
g3276
aasg2
F1.0
ssI218
(dp3288
g1
F-1.0
sg7
(lp3289
(lp3290
S'easier'
p3291
aa(lp3292
S'easiest'
p3293
aasg13
(dp3294
g15
g16
(g20
S'\x00\x00\x00\x00\x00\x00\xe0?'
p3295
tp3296
Rp3297
sg26
(lp3298
(g3293
g3291
F0.5
tp3299
assg3
F0.0
sg29
(lp3300
(lp3301
g3293
aa(lp3302
g3291
aasg2
F1.0
ssI219
(dp3303
g1
F1.0
sg7
(lp3304
(lp3305
S'less'
p3306
aa(lp3307
S'least'
p3308
aasg13
(dp3309
g15
g16
(g20
S'\x00\x00\x00\x00\x00\x00\xe0?'
p3310
tp3311
Rp3312
sg26
(lp3313
(g3306
g3308
F0.5
tp3314
assg3
F1.0
sg29
(lp3315
(lp3316
g3306
aa(lp3317
g3308
aasg2
F1.0
ssI220
(dp3318
g1
F-1.0
sg7
(lp3319
(lp3320
S'higher'
p3321
aa(lp3322
S'highest'
p3323
aasg13
(dp3324
g15
g16
(g20
S'\x00\x00\x00\x00\x00\x00\xe0?'
p3325
tp3326
Rp3327
sg26
(lp3328
(g3323
g3321
F0.5
tp3329
assg3
F0.0
sg29
(lp3330
(lp3331
g3323
aa(lp3332
g3321
aasg2
F1.0
ssI221
(dp3333
g1
F-1.0
sg7
(lp3334
(lp3335
S'clearer'
p3336
aa(lp3337
S'clearest'
p3338
aasg13
(dp3339
g15
g16
(g20
S'\x00\x00\x00\x00\x00\x00\xe0?'
p3340
tp3341
Rp3342
sg26
(lp3343
(g3338
g3336
F0.5
tp3344
assg3
F0.0
sg29
(lp3345
(lp3346
g3338
aa(lp3347
g3336
aasg2
F1.0
ssI222
(dp3348
g1
F-1.0
sg7
(lp3349
(lp3350
S'darker'
p3351
aa(lp3352
S'darkest'
p3353
aasg13
(dp3354
g15
g16
(g20
S'\x00\x00\x00\x00\x00\x00\xe0?'
p3355
tp3356
Rp3357
sg26
(lp3358
(g3353
g3351
F0.5
tp3359
assg3
F0.0
sg29
(lp3360
(lp3361
g3353
aa(lp3362
g3351
aasg2
F1.0
ssI223
(dp3363
g1
F-1.0
sg7
(lp3364
(lp3365
S'quicker'
p3366
aa(lp3367
S'quickest'
p3368
aasg13
(dp3369
g15
g16
(g20
S'\x00\x00\x00\x00\x00\x00\xe0?'
p3370
tp3371
Rp3372
sg26
(lp3373
(g3368
g3366
F0.5
tp3374
assg3
F0.0
sg29
(lp3375
(lp3376
g3368
aa(lp3377
g3366
aasg2
F1.0
ssI224
(dp3378
g1
F-1.0
sg7
(lp3379
(lp3380
S'poorer'
p3381
aa(lp3382
S'poorest'
p3383
aasg13
(dp3384
g15
g16
(g20
S'\x00\x00\x00\x00\x00\x00\xe0?'
p3385
tp3386
Rp3387
sg26
(lp3388
(g3383
g3381
F0.5
tp3389
assg3
F0.0
sg29
(lp3390
(lp3391
g3383
aa(lp3392
g3381
aasg2
F1.0
ssI225
(dp3393
g1
F-1.0
sg7
(lp3394
(lp3395
S'graver'
p3396
aa(lp3397
S'gravest'
p3398
aasg13
(dp3399
g15
g16
(g20
S'\x00\x00\x00\x00\x00\x00\xe0?'
p3400
tp3401
Rp3402
sg26
(lp3403
(g3398
g3396
F0.5
tp3404
assg3
F0.0
sg29
(lp3405
(lp3406
g3398
aa(lp3407
g3396
aasg2
F1.0
ssI226
(dp3408
g1
F-1.0
sg7
(lp3409
(lp3410
S'bigger'
p3411
aa(lp3412
S'biggest'
p3413
aasg13
(dp3414
g15
g16
(g20
S'\x00\x00\x00\x00\x00\x00\xe0?'
p3415
tp3416
Rp3417
sg26
(lp3418
(g3413
g3411
F0.5
tp3419
assg3
F0.0
sg29
(lp3420
(lp3421
g3413
aa(lp3422
g3411
aasg2
F1.0
ssI227
(dp3423
g1
F-1.0
sg7
(lp3424
(lp3425
S'safer'
p3426
aa(lp3427
S'safest'
p3428
aasg13
(dp3429
g15
g16
(g20
S'\x00\x00\x00\x00\x00\x00\xe0?'
p3430
tp3431
Rp3432
sg26
(lp3433
(g3428
g3426
F0.5
tp3434
assg3
F0.0
sg29
(lp3435
(lp3436
g3428
aa(lp3437
g3426
aasg2
F1.0
ssI228
(dp3438
g1
F-1.0
sg7
(lp3439
(lp3440
S'younger'
p3441
aa(lp3442
S'youngest'
p3443
aasg13
(dp3444
g15
g16
(g20
S'\x00\x00\x00\x00\x00\x00\xe0?'
p3445
tp3446
Rp3447
sg26
(lp3448
(g3443
g3441
F0.5
tp3449
assg3
F0.0
sg29
(lp3450
(lp3451
g3443
aa(lp3452
g3441
aasg2
F1.0
ssI229
(dp3453
g1
F-1.0
sg7
(lp3454
(lp3455
S'earlier'
p3456
aa(lp3457
S'earliest'
p3458
aasg13
(dp3459
g15
g16
(g20
S'\x00\x00\x00\x00\x00\x00\xe0?'
p3460
tp3461
Rp3462
sg26
(lp3463
(g3458
g3456
F0.5
tp3464
assg3
F0.0
sg29
(lp3465
(lp3466
g3458
aa(lp3467
g3456
aasg2
F1.0
ssI230
(dp3468
g1
F-1.0
sg7
(lp3469
(lp3470
S'fuller'
p3471
aa(lp3472
S'fullest'
p3473
aasg13
(dp3474
g15
g16
(g20
S'\x00\x00\x00\x00\x00\x00\xe0?'
p3475
tp3476
Rp3477
sg26
(lp3478
(g3473
g3471
F0.5
tp3479
assg3
F0.0
sg29
(lp3480
(lp3481
g3473
aa(lp3482
g3471
aasg2
F1.0
ssI231
(dp3483
g1
F-1.0
sg7
(lp3484
(lp3485
S'warmer'
p3486
aa(lp3487
S'warmest'
p3488
aasg13
(dp3489
g15
g16
(g20
S'\x00\x00\x00\x00\x00\x00\xe0?'
p3490
tp3491
Rp3492
sg26
(lp3493
(g3488
g3486
F0.5
tp3494
assg3
F0.0
sg29
(lp3495
(lp3496
g3488
aa(lp3497
g3486
aasg2
F1.0
ssI232
(dp3498
g1
F-1.0
sg7
(lp3499
(lp3500
S'wealthier'
p3501
aa(lp3502
S'wealthiest'
p3503
aasg13
(dp3504
g15
g16
(g20
S'\x00\x00\x00\x00\x00\x00\xe0?'
p3505
tp3506
Rp3507
sg26
(lp3508
(g3503
g3501
F0.5
tp3509
assg3
F0.0
sg29
(lp3510
(lp3511
g3503
aa(lp3512
g3501
aasg2
F1.0
ssI233
(dp3513
g1
F-1.0
sg7
(lp3514
(lp3515
S'faster'
p3516
aa(lp3517
S'fastest'
p3518
aasg13
(dp3519
g15
g16
(g20
S'\x00\x00\x00\x00\x00\x00\xe0?'
p3520
tp3521
Rp3522
sg26
(lp3523
(g3518
g3516
F0.5
tp3524
assg3
F0.0
sg29
(lp3525
(lp3526
g3518
aa(lp3527
g3516
aasg2
F1.0
ssI234
(dp3528
g1
F-1.0
sg7
(lp3529
(lp3530
S'freer'
p3531
aa(lp3532
S'freest'
p3533
aasg13
(dp3534
g15
g16
(g20
S'\x00\x00\x00\x00\x00\x00\xe0?'
p3535
tp3536
Rp3537
sg26
(lp3538
(g3533
g3531
F0.5
tp3539
assg3
F0.0
sg29
(lp3540
(lp3541
g3533
aa(lp3542
g3531
aasg2
F1.0
ssI235
(dp3543
g1
F-1.0
sg7
(lp3544
(lp3545
S'newer'
p3546
aa(lp3547
S'newest'
p3548
aasg13
(dp3549
g15
g16
(g20
S'\x00\x00\x00\x00\x00\x00\xe0?'
p3550
tp3551
Rp3552
sg26
(lp3553
(g3548
g3546
F0.5
tp3554
assg3
F0.0
sg29
(lp3555
(lp3556
g3548
aa(lp3557
g3546
aasg2
F1.0
ssI236
(dp3558
g1
F-1.0
sg7
(lp3559
(lp3560
S'finer'
p3561
aa(lp3562
S'finest'
p3563
aasg13
(dp3564
g15
g16
(g20
S'\x00\x00\x00\x00\x00\x00\xe0?'
p3565
tp3566
Rp3567
sg26
(lp3568
(g3563
g3561
F0.5
tp3569
assg3
F0.0
sg29
(lp3570
(lp3571
g3563
aa(lp3572
g3561
aasg2
F1.0
ssI237
(dp3573
g1
F-1.0
sg7
(lp3574
(lp3575
S'stricter'
p3576
aa(lp3577
S'strictest'
p3578
aasg13
(dp3579
g15
g16
(g20
S'\x00\x00\x00\x00\x00\x00\xe0?'
p3580
tp3581
Rp3582
sg26
(lp3583
(g3578
g3576
F0.5
tp3584
assg3
F0.0
sg29
(lp3585
(lp3586
g3578
aa(lp3587
g3576
aasg2
F1.0
sss.